

Microchip MPLAB XC8 Assembler V2.20 build 20200408173844 
                                                                                               Sat Jun 13 02:09:14 2020

Microchip MPLAB XC8 C Compiler v2.20 (Free license) build 20200408173844 Og1 
     1                           	processor	16F886
     2                           	pagewidth 120
     3                           	opt	flic
     4                           	psect	eeprom_data,global,class=EEDATA,space=3,delta=2,noexec
     5                           	psect	idataBANK1,global,class=CODE,delta=2,noexec
     6                           	psect	strings,global,class=STRING,delta=2,noexec
     7                           	psect	nvBANK1,global,class=BANK1,space=1,delta=1,noexec
     8                           	psect	cinit,global,class=CODE,merge=1,delta=2
     9                           	psect	bitbssBANK1,global,bit,class=BANK1,space=1,delta=1,noexec
    10                           	psect	bssBANK1,global,class=BANK1,space=1,delta=1,noexec
    11                           	psect	dataBANK1,global,class=BANK1,space=1,delta=1,noexec
    12                           	psect	clrtext,global,class=CODE,delta=2
    13                           	psect	cstackBANK3,global,class=BANK3,space=1,delta=1,noexec
    14                           	psect	cstackBANK1,global,class=BANK1,space=1,delta=1,noexec
    15                           	psect	cstackCOMMON,global,class=COMMON,space=1,delta=1,noexec
    16                           	psect	cstackBANK0,global,class=BANK0,space=1,delta=1,noexec
    17                           	psect	maintext,global,class=CODE,split=1,delta=2
    18                           	psect	text1,local,class=CODE,merge=1,delta=2
    19                           	psect	text2,local,class=CODE,merge=1,delta=2
    20                           	psect	text3,local,class=CODE,merge=1,delta=2
    21                           	psect	text4,local,class=CODE,merge=1,delta=2
    22                           	psect	text5,local,class=CODE,merge=1,delta=2
    23                           	psect	text6,local,class=CODE,merge=1,delta=2
    24                           	psect	text7,local,class=CODE,merge=1,delta=2
    25                           	psect	text8,local,class=CODE,merge=1,delta=2
    26                           	psect	text9,local,class=CODE,merge=1,delta=2
    27                           	psect	text10,local,class=CODE,merge=1,delta=2
    28                           	psect	text11,local,class=CODE,merge=1,delta=2
    29                           	psect	text12,local,class=CODE,merge=1,delta=2
    30                           	psect	text13,local,class=CODE,merge=1,delta=2
    31                           	psect	text14,local,class=CODE,merge=1,delta=2
    32                           	psect	text15,local,class=CODE,merge=1,delta=2
    33                           	psect	text16,local,class=CODE,merge=1,delta=2
    34                           	psect	text17,local,class=CODE,merge=1,delta=2
    35                           	psect	text18,local,class=CODE,merge=1,delta=2
    36                           	psect	text19,local,class=CODE,merge=1,delta=2
    37                           	psect	intentry,global,class=CODE,delta=2
    38                           	psect	text20,local,class=CODE,merge=1,delta=2
    39                           	psect	text21,local,class=CODE,merge=1,delta=2
    40                           	psect	text22,local,class=CODE,merge=1,delta=2
    41                           	psect	text23,local,class=CODE,merge=1,delta=2
    42                           	psect	text24,local,class=CODE,merge=1,delta=2
    43                           	psect	text25,local,class=CODE,merge=1,delta=2
    44                           	psect	text26,local,class=CODE,merge=1,delta=2,group=1
    45                           	psect	text27,local,class=CODE,merge=1,delta=2,group=1
    46                           	psect	text28,local,class=CODE,merge=1,delta=2,group=2
    47                           	psect	text29,local,class=CODE,merge=1,delta=2,group=2
    48                           	psect	text30,local,class=CODE,merge=1,delta=2,group=1
    49                           	psect	text31,local,class=CODE,merge=1,delta=2,group=2
    50                           	psect	text32,local,class=CODE,merge=1,delta=2,group=2
    51                           	psect	text33,local,class=CODE,merge=1,delta=2,group=2
    52                           	psect	text34,local,class=CODE,merge=1,delta=2,group=2
    53                           	psect	text35,local,class=CODE,merge=1,delta=2,group=2
    54                           	psect	text36,local,class=CODE,merge=1,delta=2,group=2
    55                           	psect	text37,local,class=CODE,merge=1,delta=2,group=2
    56                           	psect	text38,local,class=CODE,merge=1,delta=2,group=2
    57                           	psect	text39,local,class=CODE,merge=1,delta=2,group=2
    58                           	psect	text40,local,class=CODE,merge=1,delta=2,group=2
    59                           	psect	text41,local,class=CODE,merge=1,delta=2,group=2
    60                           	psect	text42,local,class=CODE,merge=1,delta=2,group=2
    61                           	psect	text43,local,class=CODE,merge=1,delta=2,group=2
    62                           	psect	text44,local,class=CODE,merge=1,delta=2,group=2
    63                           	psect	text45,local,class=CODE,merge=1,delta=2,group=2
    64                           	psect	text46,local,class=CODE,merge=1,delta=2,group=2
    65                           	psect	text47,local,class=CODE,merge=1,delta=2
    66                           	psect	text48,local,class=CODE,merge=1,delta=2
    67                           	psect	text49,local,class=CODE,merge=1,delta=2,group=2
    68                           	psect	config,global,abs,ovrld,class=CONFIG,space=4,delta=2,noexec
    69                           	dabs	1,0x7E,2
    70  0000                     
    71                           ; Version 2.20
    72                           ; Generated 12/02/2020 GMT
    73                           ; 
    74                           ; Copyright © 2020, Microchip Technology Inc. and its subsidiaries ("Microchip")
    75                           ; All rights reserved.
    76                           ; 
    77                           ; This software is developed by Microchip Technology Inc. and its subsidiaries ("Microch
      +                          ip").
    78                           ; 
    79                           ; Redistribution and use in source and binary forms, with or without modification, are
    80                           ; permitted provided that the following conditions are met:
    81                           ; 
    82                           ;     1. Redistributions of source code must retain the above copyright notice, this lis
      +                          t of
    83                           ;        conditions and the following disclaimer.
    84                           ; 
    85                           ;     2. Redistributions in binary form must reproduce the above copyright notice, this 
      +                          list
    86                           ;        of conditions and the following disclaimer in the documentation and/or other
    87                           ;        materials provided with the distribution.
    88                           ; 
    89                           ;     3. Microchip's name may not be used to endorse or promote products derived from th
      +                          is
    90                           ;        software without specific prior written permission.
    91                           ; 
    92                           ; THIS SOFTWARE IS PROVIDED BY MICROCHIP "AS IS" AND ANY EXPRESS OR IMPLIED WARRANTIES,
    93                           ; INCLUDING, BUT NOT LIMITED TO, THE IMPLIED WARRANTIES OF MERCHANTABILITY AND FITNESS F
      +                          OR
    94                           ; PURPOSE ARE DISCLAIMED.  IN NO EVENT SHALL MICROCHIP BE LIABLE FOR ANY DIRECT, INDIREC
      +                          T,
    95                           ; INCIDENTAL, SPECIAL, EXEMPLARY, OR CONSEQUENTIAL DAMAGES (INCLUDING BUT NOT LIMITED TO
    96                           ; PROCUREMENT OF SUBSTITUTE GOODS OR SERVICES; LOSS OF USE, DATA OR PROFITS; OR BUSINESS
    97                           ; INTERRUPTION) HOWSOEVER CAUSED AND ON ANY THEORY OF LIABILITY, WHETHER IN CONTRACT, ST
      +                          RICT
    98                           ; LIABILITY, OR TORT (INCLUDING NEGLIGENCE OR OTHERWISE) ARISING IN ANY WAY OUT OF THE U
      +                          SE OF
    99                           ; THIS SOFTWARE, EVEN IF ADVISED OF THE POSSIBILITY OF SUCH DAMAGE.
   100                           ; 
   101                           ; 
   102                           ; Code-generator required, PIC16F886 Definitions
   103                           ; 
   104                           ; SFR Addresses
   105  0000                     	;# 
   106  0001                     	;# 
   107  0002                     	;# 
   108  0003                     	;# 
   109  0004                     	;# 
   110  0005                     	;# 
   111  0006                     	;# 
   112  0007                     	;# 
   113  0009                     	;# 
   114  000A                     	;# 
   115  000B                     	;# 
   116  000C                     	;# 
   117  000D                     	;# 
   118  000E                     	;# 
   119  000E                     	;# 
   120  000F                     	;# 
   121  0010                     	;# 
   122  0011                     	;# 
   123  0012                     	;# 
   124  0013                     	;# 
   125  0014                     	;# 
   126  0015                     	;# 
   127  0015                     	;# 
   128  0016                     	;# 
   129  0017                     	;# 
   130  0018                     	;# 
   131  0019                     	;# 
   132  001A                     	;# 
   133  001B                     	;# 
   134  001B                     	;# 
   135  001C                     	;# 
   136  001D                     	;# 
   137  001E                     	;# 
   138  001F                     	;# 
   139  0081                     	;# 
   140  0085                     	;# 
   141  0086                     	;# 
   142  0087                     	;# 
   143  0089                     	;# 
   144  008C                     	;# 
   145  008D                     	;# 
   146  008E                     	;# 
   147  008F                     	;# 
   148  0090                     	;# 
   149  0091                     	;# 
   150  0092                     	;# 
   151  0093                     	;# 
   152  0093                     	;# 
   153  0093                     	;# 
   154  0094                     	;# 
   155  0095                     	;# 
   156  0096                     	;# 
   157  0097                     	;# 
   158  0098                     	;# 
   159  0099                     	;# 
   160  009A                     	;# 
   161  009B                     	;# 
   162  009C                     	;# 
   163  009D                     	;# 
   164  009E                     	;# 
   165  009F                     	;# 
   166  0105                     	;# 
   167  0107                     	;# 
   168  0108                     	;# 
   169  0109                     	;# 
   170  010C                     	;# 
   171  010C                     	;# 
   172  010D                     	;# 
   173  010E                     	;# 
   174  010F                     	;# 
   175  0185                     	;# 
   176  0187                     	;# 
   177  0188                     	;# 
   178  0189                     	;# 
   179  018C                     	;# 
   180  018D                     	;# 
   181  0000                     	;# 
   182  0001                     	;# 
   183  0002                     	;# 
   184  0003                     	;# 
   185  0004                     	;# 
   186  0005                     	;# 
   187  0006                     	;# 
   188  0007                     	;# 
   189  0009                     	;# 
   190  000A                     	;# 
   191  000B                     	;# 
   192  000C                     	;# 
   193  000D                     	;# 
   194  000E                     	;# 
   195  000E                     	;# 
   196  000F                     	;# 
   197  0010                     	;# 
   198  0011                     	;# 
   199  0012                     	;# 
   200  0013                     	;# 
   201  0014                     	;# 
   202  0015                     	;# 
   203  0015                     	;# 
   204  0016                     	;# 
   205  0017                     	;# 
   206  0018                     	;# 
   207  0019                     	;# 
   208  001A                     	;# 
   209  001B                     	;# 
   210  001B                     	;# 
   211  001C                     	;# 
   212  001D                     	;# 
   213  001E                     	;# 
   214  001F                     	;# 
   215  0081                     	;# 
   216  0085                     	;# 
   217  0086                     	;# 
   218  0087                     	;# 
   219  0089                     	;# 
   220  008C                     	;# 
   221  008D                     	;# 
   222  008E                     	;# 
   223  008F                     	;# 
   224  0090                     	;# 
   225  0091                     	;# 
   226  0092                     	;# 
   227  0093                     	;# 
   228  0093                     	;# 
   229  0093                     	;# 
   230  0094                     	;# 
   231  0095                     	;# 
   232  0096                     	;# 
   233  0097                     	;# 
   234  0098                     	;# 
   235  0099                     	;# 
   236  009A                     	;# 
   237  009B                     	;# 
   238  009C                     	;# 
   239  009D                     	;# 
   240  009E                     	;# 
   241  009F                     	;# 
   242  0105                     	;# 
   243  0107                     	;# 
   244  0108                     	;# 
   245  0109                     	;# 
   246  010C                     	;# 
   247  010C                     	;# 
   248  010D                     	;# 
   249  010E                     	;# 
   250  010F                     	;# 
   251  0185                     	;# 
   252  0187                     	;# 
   253  0188                     	;# 
   254  0189                     	;# 
   255  018C                     	;# 
   256  018D                     	;# 
   257                           
   258                           	psect	eeprom_data
   259  0000  0000 0001 00FF 0000 00FF 0000 0000 0001 	db	0,1,-1,0,-1,0,0,1	;# 
   260  0008  0001 0000 0000 00FF 0000 00FF 0001 0000 	db	1,0,0,-1,0,-1,1,0	;# 
   261  0000                     	;# 
   262  0001                     	;# 
   263  0002                     	;# 
   264  0003                     	;# 
   265  0004                     	;# 
   266  0005                     	;# 
   267  0006                     	;# 
   268  0007                     	;# 
   269  0009                     	;# 
   270  000A                     	;# 
   271  000B                     	;# 
   272  000C                     	;# 
   273  000D                     	;# 
   274  000E                     	;# 
   275  000E                     	;# 
   276  000F                     	;# 
   277  0010                     	;# 
   278  0011                     	;# 
   279  0012                     	;# 
   280  0013                     	;# 
   281  0014                     	;# 
   282  0015                     	;# 
   283  0015                     	;# 
   284  0016                     	;# 
   285  0017                     	;# 
   286  0018                     	;# 
   287  0019                     	;# 
   288  001A                     	;# 
   289  001B                     	;# 
   290  001B                     	;# 
   291  001C                     	;# 
   292  001D                     	;# 
   293  001E                     	;# 
   294  001F                     	;# 
   295  0081                     	;# 
   296  0085                     	;# 
   297  0086                     	;# 
   298  0087                     	;# 
   299  0089                     	;# 
   300  008C                     	;# 
   301  008D                     	;# 
   302  008E                     	;# 
   303  008F                     	;# 
   304  0090                     	;# 
   305  0091                     	;# 
   306  0092                     	;# 
   307  0093                     	;# 
   308  0093                     	;# 
   309  0093                     	;# 
   310  0094                     	;# 
   311  0095                     	;# 
   312  0096                     	;# 
   313  0097                     	;# 
   314  0098                     	;# 
   315  0099                     	;# 
   316  009A                     	;# 
   317  009B                     	;# 
   318  009C                     	;# 
   319  009D                     	;# 
   320  009E                     	;# 
   321  009F                     	;# 
   322  0105                     	;# 
   323  0107                     	;# 
   324  0108                     	;# 
   325  0109                     	;# 
   326  010C                     	;# 
   327  010C                     	;# 
   328  010D                     	;# 
   329  010E                     	;# 
   330  010F                     	;# 
   331  0185                     	;# 
   332  0187                     	;# 
   333  0188                     	;# 
   334  0189                     	;# 
   335  018C                     	;# 
   336  018D                     	;# 
   337  0000                     	;# 
   338  0001                     	;# 
   339  0002                     	;# 
   340  0003                     	;# 
   341  0004                     	;# 
   342  0005                     	;# 
   343  0006                     	;# 
   344  0007                     	;# 
   345  0009                     	;# 
   346  000A                     	;# 
   347  000B                     	;# 
   348  000C                     	;# 
   349  000D                     	;# 
   350  000E                     	;# 
   351  000E                     	;# 
   352  000F                     	;# 
   353  0010                     	;# 
   354  0011                     	;# 
   355  0012                     	;# 
   356  0013                     	;# 
   357  0014                     	;# 
   358  0015                     	;# 
   359  0015                     	;# 
   360  0016                     	;# 
   361  0017                     	;# 
   362  0018                     	;# 
   363  0019                     	;# 
   364  001A                     	;# 
   365  001B                     	;# 
   366  001B                     	;# 
   367  001C                     	;# 
   368  001D                     	;# 
   369  001E                     	;# 
   370  001F                     	;# 
   371  0081                     	;# 
   372  0085                     	;# 
   373  0086                     	;# 
   374  0087                     	;# 
   375  0089                     	;# 
   376  008C                     	;# 
   377  008D                     	;# 
   378  008E                     	;# 
   379  008F                     	;# 
   380  0090                     	;# 
   381  0091                     	;# 
   382  0092                     	;# 
   383  0093                     	;# 
   384  0093                     	;# 
   385  0093                     	;# 
   386  0094                     	;# 
   387  0095                     	;# 
   388  0096                     	;# 
   389  0097                     	;# 
   390  0098                     	;# 
   391  0099                     	;# 
   392  009A                     	;# 
   393  009B                     	;# 
   394  009C                     	;# 
   395  009D                     	;# 
   396  009E                     	;# 
   397  009F                     	;# 
   398  0105                     	;# 
   399  0107                     	;# 
   400  0108                     	;# 
   401  0109                     	;# 
   402  010C                     	;# 
   403  010C                     	;# 
   404  010D                     	;# 
   405  010E                     	;# 
   406  010F                     	;# 
   407  0185                     	;# 
   408  0187                     	;# 
   409  0188                     	;# 
   410  0189                     	;# 
   411  018C                     	;# 
   412  018D                     	;# 
   413  0000                     	;# 
   414  0001                     	;# 
   415  0002                     	;# 
   416  0003                     	;# 
   417  0004                     	;# 
   418  0005                     	;# 
   419  0006                     	;# 
   420  0007                     	;# 
   421  0009                     	;# 
   422  000A                     	;# 
   423  000B                     	;# 
   424  000C                     	;# 
   425  000D                     	;# 
   426  000E                     	;# 
   427  000E                     	;# 
   428  000F                     	;# 
   429  0010                     	;# 
   430  0011                     	;# 
   431  0012                     	;# 
   432  0013                     	;# 
   433  0014                     	;# 
   434  0015                     	;# 
   435  0015                     	;# 
   436  0016                     	;# 
   437  0017                     	;# 
   438  0018                     	;# 
   439  0019                     	;# 
   440  001A                     	;# 
   441  001B                     	;# 
   442  001B                     	;# 
   443  001C                     	;# 
   444  001D                     	;# 
   445  001E                     	;# 
   446  001F                     	;# 
   447  0081                     	;# 
   448  0085                     	;# 
   449  0086                     	;# 
   450  0087                     	;# 
   451  0089                     	;# 
   452  008C                     	;# 
   453  008D                     	;# 
   454  008E                     	;# 
   455  008F                     	;# 
   456  0090                     	;# 
   457  0091                     	;# 
   458  0092                     	;# 
   459  0093                     	;# 
   460  0093                     	;# 
   461  0093                     	;# 
   462  0094                     	;# 
   463  0095                     	;# 
   464  0096                     	;# 
   465  0097                     	;# 
   466  0098                     	;# 
   467  0099                     	;# 
   468  009A                     	;# 
   469  009B                     	;# 
   470  009C                     	;# 
   471  009D                     	;# 
   472  009E                     	;# 
   473  009F                     	;# 
   474  0105                     	;# 
   475  0107                     	;# 
   476  0108                     	;# 
   477  0109                     	;# 
   478  010C                     	;# 
   479  010C                     	;# 
   480  010D                     	;# 
   481  010E                     	;# 
   482  010F                     	;# 
   483  0185                     	;# 
   484  0187                     	;# 
   485  0188                     	;# 
   486  0189                     	;# 
   487  018C                     	;# 
   488  018D                     	;# 
   489                           
   490                           	psect	idataBANK1
   491  0003                     __pidataBANK1:
   492                           
   493                           ;initializer for io_sw_read@swOld
   494  0003  3401               	retlw	1
   495                           
   496                           	psect	strings
   497  1800                     __pstrings:
   498  1800                     stringtab:
   499  1800                     __stringtab:
   500                           
   501                           ;	String table - string pointers are 1 byte each
   502  1800  1BFF               	btfsc	btemp+1,7
   503  1801  280A               	ljmp	stringcode
   504  1802  1383               	bcf	3,7
   505  1803  187F               	btfsc	btemp+1,0
   506  1804  1783               	bsf	3,7
   507  1805  0800               	movf	0,w
   508  1806  0A84               	incf	4,f
   509  1807  1903               	skipnz
   510  1808  0AFF               	incf	btemp+1,f
   511  1809  0008               	return
   512  180A                     stringcode:
   513  180A                     stringdir:
   514  180A  3018               	movlw	high stringdir
   515  180B  008A               	movwf	10
   516  180C  0804               	movf	4,w
   517  180D  0A84               	incf	4,f
   518  180E  0782               	addwf	2,f
   519  180F                     __stringbase:
   520  180F  3400               	retlw	0
   521  1810                     __end_of__stringtab:
   522  1810                     __powers_:
   523  1810  3400               	retlw	0
   524  1811  3400               	retlw	0
   525  1812  3480               	retlw	128
   526  1813  343F               	retlw	63
   527  1814  3400               	retlw	0
   528  1815  3400               	retlw	0
   529  1816  3420               	retlw	32
   530  1817  3441               	retlw	65
   531  1818  3400               	retlw	0
   532  1819  3400               	retlw	0
   533  181A  34C8               	retlw	200
   534  181B  3442               	retlw	66
   535  181C  3400               	retlw	0
   536  181D  3400               	retlw	0
   537  181E  347A               	retlw	122
   538  181F  3444               	retlw	68
   539  1820  3400               	retlw	0
   540  1821  3440               	retlw	64
   541  1822  341C               	retlw	28
   542  1823  3446               	retlw	70
   543  1824  3400               	retlw	0
   544  1825  3450               	retlw	80
   545  1826  34C3               	retlw	195
   546  1827  3447               	retlw	71
   547  1828  3400               	retlw	0
   548  1829  3424               	retlw	36
   549  182A  3474               	retlw	116
   550  182B  3449               	retlw	73
   551  182C  3480               	retlw	128
   552  182D  3496               	retlw	150
   553  182E  3418               	retlw	24
   554  182F  344B               	retlw	75
   555  1830  3420               	retlw	32
   556  1831  34BC               	retlw	188
   557  1832  34BE               	retlw	190
   558  1833  344C               	retlw	76
   559  1834  3428               	retlw	40
   560  1835  346B               	retlw	107
   561  1836  346E               	retlw	110
   562  1837  344E               	retlw	78
   563  1838  34F9               	retlw	249
   564  1839  3402               	retlw	2
   565  183A  3415               	retlw	21
   566  183B  3450               	retlw	80
   567  183C  34EC               	retlw	236
   568  183D  3478               	retlw	120
   569  183E  34AD               	retlw	173
   570  183F  3460               	retlw	96
   571  1840  34CA               	retlw	202
   572  1841  34F2               	retlw	242
   573  1842  3449               	retlw	73
   574  1843  3471               	retlw	113
   575  1844                     __end_of__powers_:
   576  1844                     __npowers_:
   577  1844  3400               	retlw	0
   578  1845  3400               	retlw	0
   579  1846  3480               	retlw	128
   580  1847  343F               	retlw	63
   581  1848  34CD               	retlw	205
   582  1849  34CC               	retlw	204
   583  184A  34CC               	retlw	204
   584  184B  343D               	retlw	61
   585  184C  340A               	retlw	10
   586  184D  34D7               	retlw	215
   587  184E  3423               	retlw	35
   588  184F  343C               	retlw	60
   589  1850  346F               	retlw	111
   590  1851  3412               	retlw	18
   591  1852  3483               	retlw	131
   592  1853  343A               	retlw	58
   593  1854  3417               	retlw	23
   594  1855  34B7               	retlw	183
   595  1856  34D1               	retlw	209
   596  1857  3438               	retlw	56
   597  1858  34AC               	retlw	172
   598  1859  34C5               	retlw	197
   599  185A  3427               	retlw	39
   600  185B  3437               	retlw	55
   601  185C  34BD               	retlw	189
   602  185D  3437               	retlw	55
   603  185E  3486               	retlw	134
   604  185F  3435               	retlw	53
   605  1860  3495               	retlw	149
   606  1861  34BF               	retlw	191
   607  1862  34D6               	retlw	214
   608  1863  3433               	retlw	51
   609  1864  3477               	retlw	119
   610  1865  34CC               	retlw	204
   611  1866  342B               	retlw	43
   612  1867  3432               	retlw	50
   613  1868  345F               	retlw	95
   614  1869  3470               	retlw	112
   615  186A  3489               	retlw	137
   616  186B  3430               	retlw	48
   617  186C  34FF               	retlw	255
   618  186D  34E6               	retlw	230
   619  186E  34DB               	retlw	219
   620  186F  342E               	retlw	46
   621  1870  3408               	retlw	8
   622  1871  34E5               	retlw	229
   623  1872  343C               	retlw	60
   624  1873  341E               	retlw	30
   625  1874  3460               	retlw	96
   626  1875  3442               	retlw	66
   627  1876  34A2               	retlw	162
   628  1877  340D               	retlw	13
   629  1878                     __end_of__npowers_:
   630  1878                     _dpowers:
   631  1878  3401               	retlw	1
   632  1879  3400               	retlw	0
   633  187A  3400               	retlw	0
   634  187B  3400               	retlw	0
   635  187C  340A               	retlw	10
   636  187D  3400               	retlw	0
   637  187E  3400               	retlw	0
   638  187F  3400               	retlw	0
   639  1880  3464               	retlw	100
   640  1881  3400               	retlw	0
   641  1882  3400               	retlw	0
   642  1883  3400               	retlw	0
   643  1884  34E8               	retlw	232
   644  1885  3403               	retlw	3
   645  1886  3400               	retlw	0
   646  1887  3400               	retlw	0
   647  1888  3410               	retlw	16
   648  1889  3427               	retlw	39
   649  188A  3400               	retlw	0
   650  188B  3400               	retlw	0
   651  188C  34A0               	retlw	160
   652  188D  3486               	retlw	134
   653  188E  3401               	retlw	1
   654  188F  3400               	retlw	0
   655  1890  3440               	retlw	64
   656  1891  3442               	retlw	66
   657  1892  340F               	retlw	15
   658  1893  3400               	retlw	0
   659  1894  3480               	retlw	128
   660  1895  3496               	retlw	150
   661  1896  3498               	retlw	152
   662  1897  3400               	retlw	0
   663  1898  3400               	retlw	0
   664  1899  34E1               	retlw	225
   665  189A  34F5               	retlw	245
   666  189B  3405               	retlw	5
   667  189C  3400               	retlw	0
   668  189D  34CA               	retlw	202
   669  189E  349A               	retlw	154
   670  189F  343B               	retlw	59
   671  18A0                     __end_of_dpowers:
   672  18A0                     STR_3:
   673  18A0  3454               	retlw	84	;'T'
   674  18A1  3436               	retlw	54	;'6'
   675  18A2  3447               	retlw	71	;'G'
   676  18A3  3431               	retlw	49	;'1'
   677  18A4  342D               	retlw	45	;'-'
   678  18A5  3444               	retlw	68	;'D'
   679  18A6  3449               	retlw	73	;'I'
   680  18A7  3447               	retlw	71	;'G'
   681  18A8  3452               	retlw	82	;'R'
   682  18A9  3400               	retlw	0
   683  18AA                     STR_2:
   684  18AA  3425               	retlw	37	;'%'
   685  18AB  3464               	retlw	100	;'d'
   686  18AC  3400               	retlw	0
   687  18AD                     STR_1:
   688  18AD  3425               	retlw	37	;'%'
   689  18AE  3466               	retlw	102	;'f'
   690  18AF  3400               	retlw	0
   691                           
   692                           	psect	nvBANK1
   693  00ED                     __pnvBANK1:
   694  00ED                     _direcao:
   695  00ED                     	ds	1
   696  000B                     _INTCONbits	set	11
   697  0006                     _PORTB	set	6
   698  0001                     _TMR0	set	1
   699  0031                     _RB1	set	49
   700  0032                     _RB2	set	50
   701  002C                     _RA4	set	44
   702  0037                     _RB7	set	55
   703  0035                     _RB5	set	53
   704  0058                     _RBIF	set	88
   705  005B                     _RBIE	set	91
   706  005A                     _T0IF	set	90
   707  005D                     _T0IE	set	93
   708  0030                     _RB0	set	48
   709  003D                     _RC5	set	61
   710  003C                     _RC4	set	60
   711  003B                     _RC3	set	59
   712  0038                     _RC0	set	56
   713  002B                     _RA3	set	43
   714  002A                     _RA2	set	42
   715  0081                     _OPTION_REGbits	set	129
   716  0087                     _TRISC	set	135
   717  0431                     _TRISB1	set	1073
   718  0432                     _TRISB2	set	1074
   719  042C                     _TRISA4	set	1068
   720  04B6                     _IOCB6	set	1206
   721  04AE                     _WPUB6	set	1198
   722  0436                     _TRISB6	set	1078
   723  0437                     _TRISB7	set	1079
   724  0435                     _TRISB5	set	1077
   725  040F                     _nRBPU	set	1039
   726  04B4                     _IOCB4	set	1204
   727  04B3                     _IOCB3	set	1203
   728  0434                     _TRISB4	set	1076
   729  0433                     _TRISB3	set	1075
   730  040B                     _PSA	set	1035
   731  040D                     _T0CS	set	1037
   732  042A                     _TRISA2	set	1066
   733  042B                     _TRISA3	set	1067
   734  0430                     _TRISB0	set	1072
   735  010C                     _EEDATA	set	268
   736  010D                     _EEADR	set	269
   737  018C                     _EECON1bits	set	396
   738  018C                     _EECON1	set	396
   739  0C48                     _ANS8	set	3144
   740  0C4D                     _ANS13	set	3149
   741  0C49                     _ANS9	set	3145
   742  0C4B                     _ANS11	set	3147
   743  0C42                     _ANS2	set	3138
   744  0C43                     _ANS3	set	3139
   745  0C4C                     _ANS12	set	3148
   746                           
   747                           	psect	cinit
   748  0019                     start_initialization:	
   749                           ; #config settings
   750                           
   751  0019                     __initialization:
   752                           
   753                           ; Initialize objects allocated to BANK1
   754  0019  1683               	bsf	3,5	;RP0=1, select bank1
   755  001A  1303               	bcf	3,6	;RP1=0, select bank1
   756  001B  120A  118A  2003  120A  118A  	fcall	__pidataBANK1	;fetch initializer
   757  0020  00EF               	movwf	__pdataBANK1& (0+127)
   758                           
   759                           ; Clear objects allocated to BANK1
   760  0021  1383               	bcf	3,7	;select IRP bank0
   761  0022  30D3               	movlw	low __pbssBANK1
   762  0023  0084               	movwf	4
   763  0024  30ED               	movlw	low (__pbssBANK1+26)
   764  0025  160A  158A  20E9  120A  118A  	fcall	clear_ram0
   765                           
   766                           ; Clear objects allocated to BITBANK1
   767  002A  01EE               	clrf	(__pbitbssBANK1/(0+8))& (0+127)
   768  002B                     end_of_initialization:	
   769                           ;End of C runtime variable initialization code
   770                           
   771  002B                     __end_of__initialization:
   772  002B  0183               	clrf	3
   773  002C  160A  158A  2E69   	ljmp	_main	;jump to C main() function
   774                           
   775                           	psect	bitbssBANK1
   776  0770                     __pbitbssBANK1:
   777  0770                     _swPressed:
   778  0770                     	ds	1
   779                           
   780                           	psect	bssBANK1
   781  00D3                     __pbssBANK1:
   782  00D3                     _matrizTransicaoEstados:
   783  00D3                     	ds	16
   784  00E3                     _estado_anterior:
   785  00E3                     	ds	2
   786  00E5                     _estado_atual:
   787  00E5                     	ds	2
   788  00E7                     _contagem_interrupcoes_tmr0:
   789  00E7                     	ds	2
   790  00E9                     _contagem_pulsos_anterior:
   791  00E9                     	ds	2
   792  00EB                     _contagem_pulsos:
   793  00EB                     	ds	2
   794                           
   795                           	psect	dataBANK1
   796  00EF                     __pdataBANK1:
   797  00EF                     io_sw_read@swOld:
   798  00EF                     	ds	1
   799                           
   800                           	psect	clrtext
   801  18E9                     clear_ram0:	
   802                           ;	Called with FSR containing the base address, and
   803                           ;	W with the last address+1
   804                           
   805  18E9  0064               	clrwdt	;clear the watchdog before getting into this loop
   806  18EA                     clrloop0:
   807  18EA  0180               	clrf	0	;clear RAM location pointed to by FSR
   808  18EB  0A84               	incf	4,f	;increment pointer
   809  18EC  0604               	xorwf	4,w	;XOR with final address
   810  18ED  1903               	btfsc	3,2	;have we reached the end yet?
   811  18EE  3400               	retlw	0	;all done for this memory range, return
   812  18EF  0604               	xorwf	4,w	;XOR again to restore value
   813  18F0  28EA               	goto	clrloop0	;do the next byte
   814                           
   815                           	psect	cstackBANK3
   816  0190                     __pcstackBANK3:
   817  0190                     ??_io_init:
   818  0190                     ??_debug_init:	
   819                           ; 1 bytes @ 0x0
   820                           
   821  0190                     ?_io_beep:	
   822                           ; 1 bytes @ 0x0
   823                           
   824  0190                     ??_io_led_toggle:	
   825                           ; 1 bytes @ 0x0
   826                           
   827  0190                     ??_LCD_RS_SetLow:	
   828                           ; 1 bytes @ 0x0
   829                           
   830  0190                     ??_LCD_RS_SetHigh:	
   831                           ; 1 bytes @ 0x0
   832                           
   833  0190                     ??_LCD_RW_SetLow:	
   834                           ; 1 bytes @ 0x0
   835                           
   836  0190                     ??_lcd_write_nibble:	
   837                           ; 1 bytes @ 0x0
   838                           
   839  0190                     ??_t0_init:	
   840                           ; 1 bytes @ 0x0
   841                           
   842  0190                     ??_portB_init:	
   843                           ; 1 bytes @ 0x0
   844                           
   845  0190                     ??_matriz_estados_init:	
   846                           ; 1 bytes @ 0x0
   847                           
   848  0190                     ?_io_sw_pressed:	
   849                           ; 1 bytes @ 0x0
   850                           
   851  0190                     io_beep@period:	
   852                           ; 2 bytes @ 0x0
   853                           
   854                           
   855                           ; 2 bytes @ 0x0
   856  0190                     	ds	1
   857  0191                     lcd_write_nibble@c:
   858                           
   859                           ; 1 bytes @ 0x1
   860  0191                     	ds	1
   861  0192                     ??_io_beep:
   862  0192                     ??_io_sw_pressed:	
   863                           ; 1 bytes @ 0x2
   864                           
   865  0192                     ??_lcd_write:	
   866                           ; 1 bytes @ 0x2
   867                           
   868                           
   869                           ; 1 bytes @ 0x2
   870  0192                     	ds	1
   871  0193                     lcd_write@c:
   872  0193                     matriz_estados_init@contador:	
   873                           ; 1 bytes @ 0x3
   874                           
   875                           
   876                           ; 1 bytes @ 0x3
   877  0193                     	ds	1
   878  0194                     ??_lcd_clear:
   879  0194                     ?_lcd_puts:	
   880                           ; 1 bytes @ 0x4
   881                           
   882  0194                     ??_lcd_goto:	
   883                           ; 1 bytes @ 0x4
   884                           
   885  0194                     ?_lcd_cursor:	
   886                           ; 1 bytes @ 0x4
   887                           
   888  0194                     ??_lcd_init:	
   889                           ; 1 bytes @ 0x4
   890                           
   891  0194                     lcd_goto@pos:	
   892                           ; 1 bytes @ 0x4
   893                           
   894  0194                     lcd_puts@s:	
   895                           ; 1 bytes @ 0x4
   896                           
   897  0194                     lcd_cursor@on:	
   898                           ; 2 bytes @ 0x4
   899                           
   900  0194                     matriz_estados_init@i:	
   901                           ; 2 bytes @ 0x4
   902                           
   903                           
   904                           ; 2 bytes @ 0x4
   905  0194                     	ds	2
   906  0196                     ??_lcd_puts:
   907  0196                     ??_lcd_cursor:	
   908                           ; 1 bytes @ 0x6
   909                           
   910  0196                     matriz_estados_init@j:	
   911                           ; 1 bytes @ 0x6
   912                           
   913                           
   914                           ; 2 bytes @ 0x6
   915  0196                     	ds	2
   916  0198                     ??_main:
   917                           
   918                           ; 1 bytes @ 0x8
   919  0198                     	ds	2
   920                           
   921                           	psect	cstackBANK1
   922  00A0                     __pcstackBANK1:
   923  00A0                     ??_sprintf:
   924                           
   925                           ; 1 bytes @ 0x0
   926  00A0                     	ds	5
   927  00A5                     _sprintf$976:
   928                           
   929                           ; 4 bytes @ 0x5
   930  00A5                     	ds	4
   931  00A9                     sprintf@ap:
   932                           
   933                           ; 1 bytes @ 0x9
   934  00A9                     	ds	1
   935  00AA                     sprintf@flag:
   936                           
   937                           ; 2 bytes @ 0xA
   938  00AA                     	ds	2
   939  00AC                     sprintf@prec:
   940                           
   941                           ; 2 bytes @ 0xC
   942  00AC                     	ds	2
   943  00AE                     sprintf@val:
   944                           
   945                           ; 4 bytes @ 0xE
   946  00AE                     	ds	4
   947  00B2                     sprintf@eexp:
   948                           
   949                           ; 2 bytes @ 0x12
   950  00B2                     	ds	2
   951  00B4                     sprintf@tmpval:
   952                           
   953                           ; 4 bytes @ 0x14
   954  00B4                     	ds	4
   955  00B8                     sprintf@sp:
   956                           
   957                           ; 1 bytes @ 0x18
   958  00B8                     	ds	1
   959  00B9                     sprintf@fval:
   960                           
   961                           ; 4 bytes @ 0x19
   962  00B9                     	ds	4
   963  00BD                     sprintf@c:
   964                           
   965                           ; 1 bytes @ 0x1D
   966  00BD                     	ds	1
   967  00BE                     ??_isr:
   968                           
   969                           ; 1 bytes @ 0x1E
   970  00BE                     	ds	7
   971  00C5                     isr@message:
   972                           
   973                           ; 9 bytes @ 0x25
   974  00C5                     	ds	9
   975  00CE                     _isr$972:
   976                           
   977                           ; 4 bytes @ 0x2E
   978  00CE                     	ds	4
   979  00D2                     isr@portB:
   980                           
   981                           ; 1 bytes @ 0x32
   982  00D2                     	ds	1
   983                           
   984                           	psect	cstackCOMMON
   985  0070                     __pcstackCOMMON:
   986  0070                     ?___fleq:
   987  0070                     ?___flge:	
   988                           ; 1 bit 
   989                           
   990  0070                     ?_io_sw_read:	
   991                           ; 1 bit 
   992                           
   993  0070                     ??_io_sw_read:	
   994                           ; 1 bytes @ 0x0
   995                           
   996  0070                     ?_debug_led_toggle:	
   997                           ; 1 bytes @ 0x0
   998                           
   999  0070                     ??_debug_led_toggle:	
  1000                           ; 1 bytes @ 0x0
  1001                           
  1002  0070                     ?_io_init:	
  1003                           ; 1 bytes @ 0x0
  1004                           
  1005  0070                     ?_debug_init:	
  1006                           ; 1 bytes @ 0x0
  1007                           
  1008  0070                     ?_io_led_toggle:	
  1009                           ; 1 bytes @ 0x0
  1010                           
  1011  0070                     ?_LCD_RS_SetLow:	
  1012                           ; 1 bytes @ 0x0
  1013                           
  1014  0070                     ?_LCD_RS_SetHigh:	
  1015                           ; 1 bytes @ 0x0
  1016                           
  1017  0070                     ?_LCD_RW_SetLow:	
  1018                           ; 1 bytes @ 0x0
  1019                           
  1020  0070                     ?_lcd_write_nibble:	
  1021                           ; 1 bytes @ 0x0
  1022                           
  1023  0070                     ?_lcd_write:	
  1024                           ; 1 bytes @ 0x0
  1025                           
  1026  0070                     ?_lcd_clear:	
  1027                           ; 1 bytes @ 0x0
  1028                           
  1029  0070                     ?_lcd_goto:	
  1030                           ; 1 bytes @ 0x0
  1031                           
  1032  0070                     ?_lcd_init:	
  1033                           ; 1 bytes @ 0x0
  1034                           
  1035  0070                     ?_isr:	
  1036                           ; 1 bytes @ 0x0
  1037                           
  1038  0070                     ?_t0_init:	
  1039                           ; 1 bytes @ 0x0
  1040                           
  1041  0070                     ?_portB_init:	
  1042                           ; 1 bytes @ 0x0
  1043                           
  1044  0070                     ?_matriz_estados_init:	
  1045                           ; 1 bytes @ 0x0
  1046                           
  1047  0070                     ?_main:	
  1048                           ; 1 bytes @ 0x0
  1049                           
  1050  0070                     ?i1_LCD_RS_SetLow:	
  1051                           ; 1 bytes @ 0x0
  1052                           
  1053  0070                     ??i1_LCD_RS_SetLow:	
  1054                           ; 1 bytes @ 0x0
  1055                           
  1056  0070                     ?i1_LCD_RS_SetHigh:	
  1057                           ; 1 bytes @ 0x0
  1058                           
  1059  0070                     ??i1_LCD_RS_SetHigh:	
  1060                           ; 1 bytes @ 0x0
  1061                           
  1062  0070                     ?i1_lcd_write_nibble:	
  1063                           ; 1 bytes @ 0x0
  1064                           
  1065  0070                     ??i1_lcd_write_nibble:	
  1066                           ; 1 bytes @ 0x0
  1067                           
  1068  0070                     ?i1_lcd_write:	
  1069                           ; 1 bytes @ 0x0
  1070                           
  1071  0070                     ?i1_lcd_goto:	
  1072                           ; 1 bytes @ 0x0
  1073                           
  1074  0070                     ?__Umul8_16:	
  1075                           ; 1 bytes @ 0x0
  1076                           
  1077  0070                     ?___wmul:	
  1078                           ; 2 bytes @ 0x0
  1079                           
  1080  0070                     ?___awmod:	
  1081                           ; 2 bytes @ 0x0
  1082                           
  1083  0070                     ?___lwmod:	
  1084                           ; 2 bytes @ 0x0
  1085                           
  1086  0070                     ?__tdiv_to_l_:	
  1087                           ; 2 bytes @ 0x0
  1088                           
  1089  0070                     ?__div_to_l_:	
  1090                           ; 4 bytes @ 0x0
  1091                           
  1092  0070                     ?___lldiv:	
  1093                           ; 4 bytes @ 0x0
  1094                           
  1095  0070                     ?___flneg:	
  1096                           ; 4 bytes @ 0x0
  1097                           
  1098  0070                     ?___xxtofl:	
  1099                           ; 4 bytes @ 0x0
  1100                           
  1101  0070                     debug_led_toggle@led:	
  1102                           ; 4 bytes @ 0x0
  1103                           
  1104  0070                     __Umul8_16@multiplicand:	
  1105                           ; 1 bytes @ 0x0
  1106                           
  1107  0070                     ___wmul@multiplier:	
  1108                           ; 1 bytes @ 0x0
  1109                           
  1110  0070                     ___awmod@divisor:	
  1111                           ; 2 bytes @ 0x0
  1112                           
  1113  0070                     ___lwmod@divisor:	
  1114                           ; 2 bytes @ 0x0
  1115                           
  1116  0070                     ___lldiv@divisor:	
  1117                           ; 2 bytes @ 0x0
  1118                           
  1119  0070                     __div_to_l_@f1:	
  1120                           ; 4 bytes @ 0x0
  1121                           
  1122  0070                     ___fleq@ff1:	
  1123                           ; 4 bytes @ 0x0
  1124                           
  1125  0070                     ___flge@ff1:	
  1126                           ; 4 bytes @ 0x0
  1127                           
  1128  0070                     ___flneg@f1:	
  1129                           ; 4 bytes @ 0x0
  1130                           
  1131  0070                     __tdiv_to_l_@f1:	
  1132                           ; 4 bytes @ 0x0
  1133                           
  1134  0070                     ___xxtofl@val:	
  1135                           ; 4 bytes @ 0x0
  1136                           
  1137                           
  1138                           ; 4 bytes @ 0x0
  1139  0070                     	ds	1
  1140  0071                     io_sw_read@port:
  1141  0071                     i1lcd_write_nibble@c:	
  1142                           ; 1 bytes @ 0x1
  1143                           
  1144                           
  1145                           ; 1 bytes @ 0x1
  1146  0071                     	ds	1
  1147  0072                     ??__Umul8_16:
  1148  0072                     ??i1_lcd_write:	
  1149                           ; 1 bytes @ 0x2
  1150                           
  1151  0072                     io_sw_read@swNew:	
  1152                           ; 1 bytes @ 0x2
  1153                           
  1154  0072                     ___wmul@multiplicand:	
  1155                           ; 1 bytes @ 0x2
  1156                           
  1157  0072                     ___awmod@dividend:	
  1158                           ; 2 bytes @ 0x2
  1159                           
  1160  0072                     ___lwmod@dividend:	
  1161                           ; 2 bytes @ 0x2
  1162                           
  1163                           
  1164                           ; 2 bytes @ 0x2
  1165  0072                     	ds	1
  1166  0073                     i1lcd_write@c:
  1167                           
  1168                           ; 1 bytes @ 0x3
  1169  0073                     	ds	1
  1170  0074                     ??___wmul:
  1171  0074                     ??___awmod:	
  1172                           ; 1 bytes @ 0x4
  1173                           
  1174  0074                     ??___flneg:	
  1175                           ; 1 bytes @ 0x4
  1176                           
  1177  0074                     ??___lwmod:	
  1178                           ; 1 bytes @ 0x4
  1179                           
  1180  0074                     ??___xxtofl:	
  1181                           ; 1 bytes @ 0x4
  1182                           
  1183  0074                     ?i1_lcd_puts:	
  1184                           ; 1 bytes @ 0x4
  1185                           
  1186  0074                     ??i1_lcd_goto:	
  1187                           ; 1 bytes @ 0x4
  1188                           
  1189  0074                     ___awmod@counter:	
  1190                           ; 1 bytes @ 0x4
  1191                           
  1192  0074                     ___lwmod@counter:	
  1193                           ; 1 bytes @ 0x4
  1194                           
  1195  0074                     i1lcd_goto@pos:	
  1196                           ; 1 bytes @ 0x4
  1197                           
  1198  0074                     ___wmul@product:	
  1199                           ; 1 bytes @ 0x4
  1200                           
  1201  0074                     __Umul8_16@product:	
  1202                           ; 2 bytes @ 0x4
  1203                           
  1204  0074                     i1lcd_puts@s:	
  1205                           ; 2 bytes @ 0x4
  1206                           
  1207  0074                     ___lldiv@dividend:	
  1208                           ; 2 bytes @ 0x4
  1209                           
  1210  0074                     __div_to_l_@f2:	
  1211                           ; 4 bytes @ 0x4
  1212                           
  1213  0074                     ___fleq@ff2:	
  1214                           ; 4 bytes @ 0x4
  1215                           
  1216  0074                     ___flge@ff2:	
  1217                           ; 4 bytes @ 0x4
  1218                           
  1219  0074                     __tdiv_to_l_@f2:	
  1220                           ; 4 bytes @ 0x4
  1221                           
  1222                           
  1223                           ; 4 bytes @ 0x4
  1224  0074                     	ds	1
  1225  0075                     ?___lwdiv:
  1226  0075                     ___awmod@sign:	
  1227                           ; 2 bytes @ 0x5
  1228                           
  1229  0075                     ___lwdiv@divisor:	
  1230                           ; 1 bytes @ 0x5
  1231                           
  1232                           
  1233                           ; 2 bytes @ 0x5
  1234  0075                     	ds	1
  1235  0076                     ??i1_lcd_puts:
  1236  0076                     ?___awdiv:	
  1237                           ; 1 bytes @ 0x6
  1238                           
  1239  0076                     ___awdiv@divisor:	
  1240                           ; 2 bytes @ 0x6
  1241                           
  1242  0076                     __Umul8_16@word_mpld:	
  1243                           ; 2 bytes @ 0x6
  1244                           
  1245                           
  1246                           ; 2 bytes @ 0x6
  1247  0076                     	ds	1
  1248  0077                     ___lwdiv@dividend:
  1249                           
  1250                           ; 2 bytes @ 0x7
  1251  0077                     	ds	1
  1252  0078                     ??__tdiv_to_l_:
  1253  0078                     ??__div_to_l_:	
  1254                           ; 1 bytes @ 0x8
  1255                           
  1256  0078                     ??___lldiv:	
  1257                           ; 1 bytes @ 0x8
  1258                           
  1259  0078                     ??___fleq:	
  1260                           ; 1 bytes @ 0x8
  1261                           
  1262  0078                     ??___flge:	
  1263                           ; 1 bytes @ 0x8
  1264                           
  1265  0078                     __Umul8_16@multiplier:	
  1266                           ; 1 bytes @ 0x8
  1267                           
  1268  0078                     ___xxtofl@sign:	
  1269                           ; 1 bytes @ 0x8
  1270                           
  1271  0078                     ___awdiv@dividend:	
  1272                           ; 1 bytes @ 0x8
  1273                           
  1274                           
  1275                           ; 2 bytes @ 0x8
  1276  0078                     	ds	1
  1277  0079                     ??___lwdiv:
  1278  0079                     ___xxtofl@exp:	
  1279                           ; 1 bytes @ 0x9
  1280                           
  1281  0079                     ___lwdiv@quotient:	
  1282                           ; 1 bytes @ 0x9
  1283                           
  1284  0079                     ___lldiv@quotient:	
  1285                           ; 2 bytes @ 0x9
  1286                           
  1287                           
  1288                           ; 4 bytes @ 0x9
  1289  0079                     	ds	1
  1290  007A                     ??___awdiv:
  1291  007A                     ___awdiv@counter:	
  1292                           ; 1 bytes @ 0xA
  1293                           
  1294  007A                     ___xxtofl@arg:	
  1295                           ; 1 bytes @ 0xA
  1296                           
  1297                           
  1298                           ; 4 bytes @ 0xA
  1299  007A                     	ds	1
  1300  007B                     ___awdiv@sign:
  1301  007B                     ___lwdiv@counter:	
  1302                           ; 1 bytes @ 0xB
  1303                           
  1304                           
  1305                           ; 1 bytes @ 0xB
  1306  007B                     	ds	1
  1307  007C                     ___awdiv@quotient:
  1308                           
  1309                           ; 2 bytes @ 0xC
  1310  007C                     	ds	1
  1311  007D                     ___lldiv@counter:
  1312                           
  1313                           ; 1 bytes @ 0xD
  1314  007D                     	ds	1
  1315  007E                     ??___flsub:
  1316                           
  1317                           	psect	cstackBANK0
  1318  0020                     __pcstackBANK0:	
  1319                           ; 1 bytes @ 0xE
  1320                           
  1321  0020                     ?___llmod:
  1322  0020                     ?___fldiv:	
  1323                           ; 4 bytes @ 0x0
  1324                           
  1325  0020                     ?___flmul:	
  1326                           ; 4 bytes @ 0x0
  1327                           
  1328  0020                     __div_to_l_@quot:	
  1329                           ; 4 bytes @ 0x0
  1330                           
  1331  0020                     __tdiv_to_l_@quot:	
  1332                           ; 4 bytes @ 0x0
  1333                           
  1334  0020                     ___llmod@divisor:	
  1335                           ; 4 bytes @ 0x0
  1336                           
  1337  0020                     ___fldiv@a:	
  1338                           ; 4 bytes @ 0x0
  1339                           
  1340  0020                     ___flmul@b:	
  1341                           ; 4 bytes @ 0x0
  1342                           
  1343                           
  1344                           ; 4 bytes @ 0x0
  1345  0020                     	ds	4
  1346  0024                     __div_to_l_@cntr:
  1347  0024                     __tdiv_to_l_@cntr:	
  1348                           ; 1 bytes @ 0x4
  1349                           
  1350  0024                     ___llmod@dividend:	
  1351                           ; 1 bytes @ 0x4
  1352                           
  1353  0024                     ___fldiv@b:	
  1354                           ; 4 bytes @ 0x4
  1355                           
  1356  0024                     ___flmul@a:	
  1357                           ; 4 bytes @ 0x4
  1358                           
  1359                           
  1360                           ; 4 bytes @ 0x4
  1361  0024                     	ds	1
  1362  0025                     __div_to_l_@exp1:
  1363  0025                     __tdiv_to_l_@exp1:	
  1364                           ; 1 bytes @ 0x5
  1365                           
  1366                           
  1367                           ; 1 bytes @ 0x5
  1368  0025                     	ds	3
  1369  0028                     ??___llmod:
  1370  0028                     ??___fldiv:	
  1371                           ; 1 bytes @ 0x8
  1372                           
  1373  0028                     ??___flmul:	
  1374                           ; 1 bytes @ 0x8
  1375                           
  1376                           
  1377                           ; 1 bytes @ 0x8
  1378  0028                     	ds	1
  1379  0029                     ___llmod@counter:
  1380                           
  1381                           ; 1 bytes @ 0x9
  1382  0029                     	ds	4
  1383  002D                     ___flmul@sign:
  1384  002D                     ___fldiv@rem:	
  1385                           ; 1 bytes @ 0xD
  1386                           
  1387                           
  1388                           ; 4 bytes @ 0xD
  1389  002D                     	ds	1
  1390  002E                     ___flmul@grs:
  1391                           
  1392                           ; 4 bytes @ 0xE
  1393  002E                     	ds	3
  1394  0031                     ___fldiv@sign:
  1395                           
  1396                           ; 1 bytes @ 0x11
  1397  0031                     	ds	1
  1398  0032                     ___flmul@aexp:
  1399  0032                     ___fldiv@new_exp:	
  1400                           ; 1 bytes @ 0x12
  1401                           
  1402                           
  1403                           ; 2 bytes @ 0x12
  1404  0032                     	ds	1
  1405  0033                     ___flmul@bexp:
  1406                           
  1407                           ; 1 bytes @ 0x13
  1408  0033                     	ds	1
  1409  0034                     ___fldiv@grs:
  1410  0034                     ___flmul@prod:	
  1411                           ; 4 bytes @ 0x14
  1412                           
  1413                           
  1414                           ; 4 bytes @ 0x14
  1415  0034                     	ds	4
  1416  0038                     ___fldiv@bexp:
  1417  0038                     ___flmul@temp:	
  1418                           ; 1 bytes @ 0x18
  1419                           
  1420                           
  1421                           ; 2 bytes @ 0x18
  1422  0038                     	ds	1
  1423  0039                     ___fldiv@aexp:
  1424                           
  1425                           ; 1 bytes @ 0x19
  1426  0039                     	ds	1
  1427  003A                     ?_fround:
  1428  003A                     ?_scale:	
  1429                           ; 4 bytes @ 0x1A
  1430                           
  1431  003A                     ?___fltol:	
  1432                           ; 4 bytes @ 0x1A
  1433                           
  1434  003A                     ___fltol@f1:	
  1435                           ; 4 bytes @ 0x1A
  1436                           
  1437                           
  1438                           ; 4 bytes @ 0x1A
  1439  003A                     	ds	4
  1440  003E                     ??_fround:
  1441  003E                     ??_scale:	
  1442                           ; 1 bytes @ 0x1E
  1443                           
  1444  003E                     ??___fltol:	
  1445                           ; 1 bytes @ 0x1E
  1446                           
  1447                           
  1448                           ; 1 bytes @ 0x1E
  1449  003E                     	ds	4
  1450  0042                     ___fltol@sign1:
  1451                           
  1452                           ; 1 bytes @ 0x22
  1453  0042                     	ds	1
  1454  0043                     ___fltol@exp1:
  1455                           
  1456                           ; 1 bytes @ 0x23
  1457  0043                     	ds	2
  1458  0045                     _fround$974:
  1459                           
  1460                           ; 4 bytes @ 0x25
  1461  0045                     	ds	3
  1462  0048                     _scale$975:
  1463                           
  1464                           ; 4 bytes @ 0x28
  1465  0048                     	ds	1
  1466  0049                     _fround$973:
  1467                           
  1468                           ; 4 bytes @ 0x29
  1469  0049                     	ds	3
  1470  004C                     scale@scl:
  1471                           
  1472                           ; 1 bytes @ 0x2C
  1473  004C                     	ds	1
  1474  004D                     fround@prec:
  1475                           
  1476                           ; 1 bytes @ 0x2D
  1477  004D                     	ds	1
  1478  004E                     ?___fladd:
  1479  004E                     ___fladd@b:	
  1480                           ; 4 bytes @ 0x2E
  1481                           
  1482                           
  1483                           ; 4 bytes @ 0x2E
  1484  004E                     	ds	4
  1485  0052                     ___fladd@a:
  1486                           
  1487                           ; 4 bytes @ 0x32
  1488  0052                     	ds	4
  1489  0056                     ??___fladd:
  1490                           
  1491                           ; 1 bytes @ 0x36
  1492  0056                     	ds	8
  1493  005E                     ___fladd@signs:
  1494                           
  1495                           ; 1 bytes @ 0x3E
  1496  005E                     	ds	1
  1497  005F                     ___fladd@aexp:
  1498                           
  1499                           ; 1 bytes @ 0x3F
  1500  005F                     	ds	1
  1501  0060                     ___fladd@bexp:
  1502                           
  1503                           ; 1 bytes @ 0x40
  1504  0060                     	ds	1
  1505  0061                     ___fladd@grs:
  1506                           
  1507                           ; 1 bytes @ 0x41
  1508  0061                     	ds	1
  1509  0062                     ?___flsub:
  1510  0062                     ___flsub@a:	
  1511                           ; 4 bytes @ 0x42
  1512                           
  1513                           
  1514                           ; 4 bytes @ 0x42
  1515  0062                     	ds	4
  1516  0066                     ___flsub@b:
  1517                           
  1518                           ; 4 bytes @ 0x46
  1519  0066                     	ds	4
  1520  006A                     ?_sprintf:
  1521  006A                     sprintf@f:	
  1522                           ; 2 bytes @ 0x4A
  1523                           
  1524                           
  1525                           ; 1 bytes @ 0x4A
  1526  006A                     	ds	5
  1527                           
  1528                           	psect	maintext
  1529  1E69                     __pmaintext:	
  1530 ;;
  1531 ;;Main: autosize = 0, tempsize = 2, incstack = 0, save=0
  1532 ;;
  1533 ;; *************** function _main *****************
  1534 ;; Defined at:
  1535 ;;		line 133 in file "main.c"
  1536 ;; Parameters:    Size  Location     Type
  1537 ;;		None
  1538 ;; Auto vars:     Size  Location     Type
  1539 ;;  message         9    0        unsigned char [9]
  1540 ;;  loopCount       2    0        unsigned int 
  1541 ;; Return value:  Size  Location     Type
  1542 ;;                  1    wreg      void 
  1543 ;; Registers used:
  1544 ;;		wreg, fsr0l, fsr0h, status,2, status,0, btemp+1, pclath, cstack
  1545 ;; Tracked objects:
  1546 ;;		On entry : B00/0
  1547 ;;		On exit  : 0/0
  1548 ;;		Unchanged: 0/0
  1549 ;; Data sizes:     COMMON   BANK0   BANK1   BANK3   BANK2
  1550 ;;      Params:         0       0       0       0       0
  1551 ;;      Locals:         0       0       0       2       0
  1552 ;;      Temps:          0       0       0       2       0
  1553 ;;      Totals:         0       0       0       4       0
  1554 ;;Total ram usage:        4 bytes
  1555 ;; Hardware stack levels required when called:    8
  1556 ;; This function calls:
  1557 ;;		_debug_init
  1558 ;;		_io_beep
  1559 ;;		_io_init
  1560 ;;		_io_led_toggle
  1561 ;;		_io_sw_pressed
  1562 ;;		_lcd_clear
  1563 ;;		_lcd_cursor
  1564 ;;		_lcd_goto
  1565 ;;		_lcd_init
  1566 ;;		_lcd_puts
  1567 ;;		_matriz_estados_init
  1568 ;;		_portB_init
  1569 ;;		_t0_init
  1570 ;; This function is called by:
  1571 ;;		Startup code after reset
  1572 ;; This function uses a non-reentrant model
  1573 ;;
  1574                           
  1575                           
  1576                           ;psect for function _main
  1577  1E69                     _main:
  1578  1E69                     l4035:	
  1579                           ;incstack = 0
  1580                           ; Regs used in _main: [wreg-fsr0h+status,2+status,0+btemp+1+pclath+cstack]
  1581                           
  1582                           
  1583                           ;main.c: 137: char message[9];;main.c: 140: contagem_pulsos = 0;
  1584  1E69  1683               	bsf	3,5	;RP0=1, select bank1
  1585  1E6A  1303               	bcf	3,6	;RP1=0, select bank1
  1586  1E6B  01EB               	clrf	_contagem_pulsos^(0+128)
  1587  1E6C  01EC               	clrf	(_contagem_pulsos+1)^(0+128)
  1588                           
  1589                           ;main.c: 141: contagem_pulsos_anterior = 0;
  1590  1E6D  01E9               	clrf	_contagem_pulsos_anterior^(0+128)
  1591  1E6E  01EA               	clrf	(_contagem_pulsos_anterior+1)^(0+128)
  1592                           
  1593                           ;main.c: 142: contagem_interrupcoes_tmr0 = 0;
  1594  1E6F  01E7               	clrf	_contagem_interrupcoes_tmr0^(0+128)
  1595  1E70  01E8               	clrf	(_contagem_interrupcoes_tmr0+1)^(0+128)
  1596                           
  1597                           ;main.c: 143: estado_atual = 0;
  1598  1E71  01E5               	clrf	_estado_atual^(0+128)
  1599  1E72  01E6               	clrf	(_estado_atual+1)^(0+128)
  1600                           
  1601                           ;main.c: 144: estado_anterior = 0;
  1602  1E73  01E3               	clrf	_estado_anterior^(0+128)
  1603  1E74  01E4               	clrf	(_estado_anterior+1)^(0+128)
  1604  1E75                     l4037:
  1605                           
  1606                           ;main.c: 145: direcao = 1;
  1607  1E75  01ED               	clrf	_direcao^(0+128)
  1608  1E76  0AED               	incf	_direcao^(0+128),f
  1609  1E77                     l4039:
  1610                           
  1611                           ;main.c: 148: t0_init();
  1612  1E77  160A  158A  2106  160A  158A  	fcall	_t0_init
  1613  1E7C                     l4041:
  1614                           
  1615                           ;main.c: 149: portB_init();
  1616  1E7C  120A  118A  27F1  160A  158A  	fcall	_portB_init
  1617  1E81                     l4043:
  1618                           
  1619                           ;main.c: 150: matriz_estados_init();
  1620  1E81  160A  158A  2540  160A  158A  	fcall	_matriz_estados_init
  1621  1E86                     l4045:
  1622                           
  1623                           ;main.c: 151: io_init();
  1624  1E86  160A  158A  2120  160A  158A  	fcall	_io_init
  1625  1E8B                     l4047:
  1626                           
  1627                           ;main.c: 152: lcd_init();
  1628  1E8B  160A  158A  248F  160A  158A  	fcall	_lcd_init
  1629  1E90                     l4049:
  1630                           
  1631                           ;main.c: 153: debug_init();
  1632  1E90  160A  158A  20F1  160A  158A  	fcall	_debug_init
  1633  1E95                     l4051:
  1634                           
  1635                           ;main.c: 154: (INTCONbits.GIE = 1);
  1636  1E95  178B               	bsf	11,7	;volatile
  1637  1E96                     l4053:
  1638                           
  1639                           ;main.c: 157: io_beep(100);
  1640  1E96  3064               	movlw	100
  1641  1E97  1683               	bsf	3,5	;RP0=1, select bank3
  1642  1E98  1703               	bsf	3,6	;RP1=1, select bank3
  1643  1E99  0090               	movwf	io_beep@period^(0+384)
  1644  1E9A  3000               	movlw	0
  1645  1E9B  0091               	movwf	(io_beep@period^(0+384)+1)
  1646  1E9C  160A  158A  226A  160A  158A  	fcall	_io_beep
  1647  1EA1                     l4055:
  1648                           
  1649                           ;main.c: 159: lcd_cursor(0);
  1650  1EA1  3000               	movlw	0
  1651  1EA2  1683               	bsf	3,5	;RP0=1, select bank3
  1652  1EA3  1703               	bsf	3,6	;RP1=1, select bank3
  1653  1EA4  0094               	movwf	lcd_cursor@on^(0+384)
  1654  1EA5  0095               	movwf	(lcd_cursor@on+1)^(0+384)
  1655  1EA6  120A  158A  2000  160A  158A  	fcall	_lcd_cursor
  1656  1EAB                     l4057:
  1657                           
  1658                           ;main.c: 160: lcd_goto(0);
  1659  1EAB  3000               	movlw	0
  1660  1EAC  160A  158A  212F  160A  158A  	fcall	_lcd_goto
  1661  1EB1                     l4059:
  1662                           
  1663                           ;main.c: 161: lcd_puts("T6G1-DIGR");
  1664  1EB1  3091               	movlw	(low ((STR_3-__stringbase)| (0+32768)))& (0+255)
  1665  1EB2  1683               	bsf	3,5	;RP0=1, select bank3
  1666  1EB3  1703               	bsf	3,6	;RP1=1, select bank3
  1667  1EB4  0094               	movwf	lcd_puts@s^(0+384)
  1668  1EB5  3080               	movlw	128
  1669  1EB6  0095               	movwf	(lcd_puts@s+1)^(0+384)
  1670  1EB7  160A  158A  22D8  160A  158A  	fcall	_lcd_puts
  1671  1EBC                     l4061:
  1672                           
  1673                           ;main.c: 162: lcd_clear();
  1674  1EBC  160A  118A  2003  160A  158A  	fcall	_lcd_clear
  1675  1EC1                     l4063:
  1676                           
  1677                           ;main.c: 167: if (io_sw_pressed())
  1678  1EC1  160A  158A  2141  160A  158A  	fcall	_io_sw_pressed
  1679  1EC6  1683               	bsf	3,5	;RP0=1, select bank3
  1680  1EC7  1703               	bsf	3,6	;RP1=1, select bank3
  1681  1EC8  0810               	movf	?_io_sw_pressed^(0+384),w
  1682  1EC9  0411               	iorwf	(?_io_sw_pressed+1)^(0+384),w
  1683  1ECA  1903               	btfsc	3,2
  1684  1ECB  2ECD               	goto	u6641
  1685  1ECC  2ECE               	goto	u6640
  1686  1ECD                     u6641:
  1687  1ECD  2ED3               	goto	l4067
  1688  1ECE                     u6640:
  1689  1ECE                     l4065:
  1690                           
  1691                           ;main.c: 168: io_led_toggle();
  1692  1ECE  160A  158A  20E4  160A  158A  	fcall	_io_led_toggle
  1693  1ED3                     l4067:
  1694                           
  1695                           ;main.c: 170: _delay((unsigned long)((1)*(20000000/4000.0)));
  1696  1ED3  3007               	movlw	7
  1697  1ED4  1683               	bsf	3,5	;RP0=1, select bank3
  1698  1ED5  1703               	bsf	3,6	;RP1=1, select bank3
  1699  1ED6  0099               	movwf	(??_main^(0+384)+1)
  1700  1ED7  307C               	movlw	124
  1701  1ED8  0098               	movwf	??_main^(0+384)
  1702  1ED9                     u6657:
  1703  1ED9  0B98               	decfsz	??_main^(0+384),f
  1704  1EDA  2ED9               	goto	u6657
  1705  1EDB  0B99               	decfsz	(??_main^(0+384)+1),f
  1706  1EDC  2ED9               	goto	u6657
  1707  1EDD  0000               	nop
  1708  1EDE  2EC1               	goto	l4063
  1709  1EDF  120A  118A  2816   	ljmp	start
  1710  1EE2                     __end_of_main:
  1711                           
  1712                           	psect	text1
  1713  1906                     __ptext1:	
  1714 ;; *************** function _t0_init *****************
  1715 ;; Defined at:
  1716 ;;		line 100 in file "main.c"
  1717 ;; Parameters:    Size  Location     Type
  1718 ;;		None
  1719 ;; Auto vars:     Size  Location     Type
  1720 ;;		None
  1721 ;; Return value:  Size  Location     Type
  1722 ;;                  1    wreg      void 
  1723 ;; Registers used:
  1724 ;;		wreg, status,2, status,0
  1725 ;; Tracked objects:
  1726 ;;		On entry : 0/0
  1727 ;;		On exit  : 0/0
  1728 ;;		Unchanged: 0/0
  1729 ;; Data sizes:     COMMON   BANK0   BANK1   BANK3   BANK2
  1730 ;;      Params:         0       0       0       0       0
  1731 ;;      Locals:         0       0       0       0       0
  1732 ;;      Temps:          0       0       0       0       0
  1733 ;;      Totals:         0       0       0       0       0
  1734 ;;Total ram usage:        0 bytes
  1735 ;; Hardware stack levels used:    1
  1736 ;; Hardware stack levels required when called:    5
  1737 ;; This function calls:
  1738 ;;		Nothing
  1739 ;; This function is called by:
  1740 ;;		_main
  1741 ;; This function uses a non-reentrant model
  1742 ;;
  1743                           
  1744                           
  1745                           ;psect for function _t0_init
  1746  1906                     _t0_init:
  1747  1906                     l3657:	
  1748                           ;incstack = 0
  1749                           ; Regs used in _t0_init: [wreg+status,2+status,0]
  1750                           
  1751                           
  1752                           ;main.c: 101: T0CS = 0;
  1753  1906  1683               	bsf	3,5	;RP0=1, select bank1
  1754  1907  1303               	bcf	3,6	;RP1=0, select bank1
  1755  1908  1281               	bcf	1,5	;volatile
  1756                           
  1757                           ;main.c: 102: PSA = 0;
  1758  1909  1181               	bcf	1,3	;volatile
  1759  190A                     l3659:
  1760                           
  1761                           ;main.c: 104: OPTION_REGbits.PS = 0b111;
  1762  190A  3007               	movlw	7
  1763  190B  0481               	iorwf	1,f	;volatile
  1764  190C                     l3661:
  1765                           
  1766                           ;main.c: 105: TMR0 = 255 - 195;
  1767  190C  303C               	movlw	60
  1768  190D  1283               	bcf	3,5	;RP0=0, select bank0
  1769  190E  1303               	bcf	3,6	;RP1=0, select bank0
  1770  190F  0081               	movwf	1	;volatile
  1771  1910                     l3663:
  1772                           
  1773                           ;main.c: 106: T0IE = 1;
  1774  1910  168B               	bsf	11,5	;volatile
  1775  1911                     l168:
  1776  1911  0008               	return
  1777  1912                     __end_of_t0_init:
  1778                           
  1779                           	psect	text2
  1780  07F1                     __ptext2:	
  1781 ;; *************** function _portB_init *****************
  1782 ;; Defined at:
  1783 ;;		line 110 in file "main.c"
  1784 ;; Parameters:    Size  Location     Type
  1785 ;;		None
  1786 ;; Auto vars:     Size  Location     Type
  1787 ;;		None
  1788 ;; Return value:  Size  Location     Type
  1789 ;;                  1    wreg      void 
  1790 ;; Registers used:
  1791 ;;		None
  1792 ;; Tracked objects:
  1793 ;;		On entry : 0/0
  1794 ;;		On exit  : 0/0
  1795 ;;		Unchanged: 0/0
  1796 ;; Data sizes:     COMMON   BANK0   BANK1   BANK3   BANK2
  1797 ;;      Params:         0       0       0       0       0
  1798 ;;      Locals:         0       0       0       0       0
  1799 ;;      Temps:          0       0       0       0       0
  1800 ;;      Totals:         0       0       0       0       0
  1801 ;;Total ram usage:        0 bytes
  1802 ;; Hardware stack levels used:    1
  1803 ;; Hardware stack levels required when called:    5
  1804 ;; This function calls:
  1805 ;;		Nothing
  1806 ;; This function is called by:
  1807 ;;		_main
  1808 ;; This function uses a non-reentrant model
  1809 ;;
  1810                           
  1811                           
  1812                           ;psect for function _portB_init
  1813  07F1                     _portB_init:
  1814  07F1                     l3665:	
  1815                           ;incstack = 0
  1816                           ; Regs used in _portB_init: []
  1817                           
  1818                           
  1819                           ;main.c: 111: TRISB3 = 1;
  1820  07F1  1683               	bsf	3,5	;RP0=1, select bank1
  1821  07F2  1303               	bcf	3,6	;RP1=0, select bank1
  1822  07F3  1586               	bsf	6,3	;volatile
  1823                           
  1824                           ;main.c: 112: TRISB4 = 1;
  1825  07F4  1606               	bsf	6,4	;volatile
  1826                           
  1827                           ;main.c: 113: ANS11 = 0;
  1828  07F5  1683               	bsf	3,5	;RP0=1, select bank3
  1829  07F6  1703               	bsf	3,6	;RP1=1, select bank3
  1830  07F7  1189               	bcf	9,3	;volatile
  1831                           
  1832                           ;main.c: 114: ANS9 = 0;
  1833  07F8  1089               	bcf	9,1	;volatile
  1834                           
  1835                           ;main.c: 115: IOCB3 = 1;
  1836  07F9  1683               	bsf	3,5	;RP0=1, select bank1
  1837  07FA  1303               	bcf	3,6	;RP1=0, select bank1
  1838  07FB  1596               	bsf	22,3	;volatile
  1839                           
  1840                           ;main.c: 116: IOCB4 = 1;
  1841  07FC  1616               	bsf	22,4	;volatile
  1842                           
  1843                           ;main.c: 117: nRBPU = 1;
  1844  07FD  1781               	bsf	1,7	;volatile
  1845                           
  1846                           ;main.c: 118: RBIE = 1;
  1847  07FE  158B               	bsf	11,3	;volatile
  1848  07FF                     l171:
  1849  07FF  0008               	return
  1850  0800                     __end_of_portB_init:
  1851                           
  1852                           	psect	text3
  1853  1D40                     __ptext3:	
  1854 ;; *************** function _matriz_estados_init *****************
  1855 ;; Defined at:
  1856 ;;		line 122 in file "main.c"
  1857 ;; Parameters:    Size  Location     Type
  1858 ;;		None
  1859 ;; Auto vars:     Size  Location     Type
  1860 ;;  j               2    6[BANK3 ] int 
  1861 ;;  i               2    4[BANK3 ] int 
  1862 ;;  contador        1    3[BANK3 ] unsigned char 
  1863 ;; Return value:  Size  Location     Type
  1864 ;;                  1    wreg      void 
  1865 ;; Registers used:
  1866 ;;		wreg, fsr0l, fsr0h, status,2, status,0, btemp+1
  1867 ;; Tracked objects:
  1868 ;;		On entry : 0/0
  1869 ;;		On exit  : 0/0
  1870 ;;		Unchanged: 0/0
  1871 ;; Data sizes:     COMMON   BANK0   BANK1   BANK3   BANK2
  1872 ;;      Params:         0       0       0       0       0
  1873 ;;      Locals:         0       0       0       5       0
  1874 ;;      Temps:          0       0       0       3       0
  1875 ;;      Totals:         0       0       0       8       0
  1876 ;;Total ram usage:        8 bytes
  1877 ;; Hardware stack levels used:    1
  1878 ;; Hardware stack levels required when called:    5
  1879 ;; This function calls:
  1880 ;;		Nothing
  1881 ;; This function is called by:
  1882 ;;		_main
  1883 ;; This function uses a non-reentrant model
  1884 ;;
  1885                           
  1886                           
  1887                           ;psect for function _matriz_estados_init
  1888  1D40                     _matriz_estados_init:
  1889  1D40                     l3667:	
  1890                           ;incstack = 0
  1891                           ; Regs used in _matriz_estados_init: [wreg-fsr0h+status,2+status,0+btemp+1]
  1892                           
  1893                           
  1894                           ;main.c: 123: unsigned char contador = 0;
  1895  1D40  1683               	bsf	3,5	;RP0=1, select bank3
  1896  1D41  1703               	bsf	3,6	;RP1=1, select bank3
  1897  1D42  0193               	clrf	matriz_estados_init@contador^(0+384)
  1898                           
  1899                           ;main.c: 124: for (int i = 0; i < 4; i++) {
  1900  1D43  0194               	clrf	matriz_estados_init@i^(0+384)
  1901  1D44  0195               	clrf	(matriz_estados_init@i+1)^(0+384)
  1902  1D45                     l3673:
  1903                           
  1904                           ;main.c: 125: for (int j = 0; j < 4; j++) {
  1905  1D45  1683               	bsf	3,5	;RP0=1, select bank3
  1906  1D46  1703               	bsf	3,6	;RP1=1, select bank3
  1907  1D47  0196               	clrf	matriz_estados_init@j^(0+384)
  1908  1D48  0197               	clrf	(matriz_estados_init@j+1)^(0+384)
  1909  1D49                     l3679:
  1910                           
  1911                           ;main.c: 126: matrizTransicaoEstados[i][j] = (signed char)( EEADR = contador, EECON1 &= 
      +                          0x3F, EECON1bits.RD = 1, EEDATA);
  1912  1D49  1683               	bsf	3,5	;RP0=1, select bank3
  1913  1D4A  1703               	bsf	3,6	;RP1=1, select bank3
  1914  1D4B  0813               	movf	matriz_estados_init@contador^(0+384),w
  1915  1D4C  1283               	bcf	3,5	;RP0=0, select bank2
  1916  1D4D  1703               	bsf	3,6	;RP1=1, select bank2
  1917  1D4E  008D               	movwf	13	;volatile
  1918  1D4F                     l3681:
  1919  1D4F  303F               	movlw	63
  1920  1D50  00FF               	movwf	btemp+1
  1921  1D51  087F               	movf	btemp+1,w
  1922  1D52  1683               	bsf	3,5	;RP0=1, select bank3
  1923  1D53  1703               	bsf	3,6	;RP1=1, select bank3
  1924  1D54  058C               	andwf	12,f	;volsfr
  1925  1D55                     l3683:
  1926  1D55  140C               	bsf	12,0	;volsfr
  1927  1D56                     l3685:
  1928  1D56  1283               	bcf	3,5	;RP0=0, select bank2
  1929  1D57  1703               	bsf	3,6	;RP1=1, select bank2
  1930  1D58  080C               	movf	12,w	;volatile
  1931  1D59  00FF               	movwf	btemp+1
  1932  1D5A  1683               	bsf	3,5	;RP0=1, select bank3
  1933  1D5B  1703               	bsf	3,6	;RP1=1, select bank3
  1934  1D5C  0814               	movf	matriz_estados_init@i^(0+384),w
  1935  1D5D  0090               	movwf	??_matriz_estados_init^(0+384)
  1936  1D5E  3002               	movlw	2
  1937  1D5F                     u6105:
  1938  1D5F  1003               	clrc
  1939  1D60  0D90               	rlf	??_matriz_estados_init^(0+384),f
  1940  1D61  3EFF               	addlw	-1
  1941  1D62  1D03               	skipz
  1942  1D63  2D5F               	goto	u6105
  1943  1D64  30D3               	movlw	(low (_matrizTransicaoEstados| 0))& (0+255)
  1944  1D65  0710               	addwf	??_matriz_estados_init^(0+384),w
  1945  1D66  0091               	movwf	(??_matriz_estados_init+1)^(0+384)
  1946  1D67  0816               	movf	matriz_estados_init@j^(0+384),w
  1947  1D68  0711               	addwf	(??_matriz_estados_init+1)^(0+384),w
  1948  1D69  0092               	movwf	(??_matriz_estados_init+2)^(0+384)
  1949  1D6A  0812               	movf	(??_matriz_estados_init+2)^(0+384),w
  1950  1D6B  0084               	movwf	4
  1951  1D6C  087F               	movf	btemp+1,w
  1952  1D6D  1383               	bcf	3,7	;select IRP bank1
  1953  1D6E  0080               	movwf	0
  1954  1D6F                     l3687:
  1955                           
  1956                           ;main.c: 127: contador ++;
  1957  1D6F  3001               	movlw	1
  1958  1D70  00FF               	movwf	btemp+1
  1959  1D71  087F               	movf	btemp+1,w
  1960  1D72  0793               	addwf	matriz_estados_init@contador^(0+384),f
  1961  1D73                     l3689:
  1962  1D73  3001               	movlw	1
  1963  1D74  0796               	addwf	matriz_estados_init@j^(0+384),f
  1964  1D75  1803               	skipnc
  1965  1D76  0A97               	incf	(matriz_estados_init@j+1)^(0+384),f
  1966  1D77  3000               	movlw	0
  1967  1D78  0797               	addwf	(matriz_estados_init@j+1)^(0+384),f
  1968  1D79                     l3691:
  1969  1D79  0817               	movf	(matriz_estados_init@j+1)^(0+384),w
  1970  1D7A  3A80               	xorlw	128
  1971  1D7B  00FF               	movwf	btemp+1
  1972  1D7C  3080               	movlw	128
  1973  1D7D  027F               	subwf	btemp+1,w
  1974  1D7E  1D03               	skipz
  1975  1D7F  2D82               	goto	u6115
  1976  1D80  3004               	movlw	4
  1977  1D81  0216               	subwf	matriz_estados_init@j^(0+384),w
  1978  1D82                     u6115:
  1979  1D82  1C03               	skipc
  1980  1D83  2D85               	goto	u6111
  1981  1D84  2D86               	goto	u6110
  1982  1D85                     u6111:
  1983  1D85  2D49               	goto	l3679
  1984  1D86                     u6110:
  1985  1D86                     l3693:
  1986  1D86  3001               	movlw	1
  1987  1D87  1683               	bsf	3,5	;RP0=1, select bank3
  1988  1D88  1703               	bsf	3,6	;RP1=1, select bank3
  1989  1D89  0794               	addwf	matriz_estados_init@i^(0+384),f
  1990  1D8A  1803               	skipnc
  1991  1D8B  0A95               	incf	(matriz_estados_init@i+1)^(0+384),f
  1992  1D8C  3000               	movlw	0
  1993  1D8D  0795               	addwf	(matriz_estados_init@i+1)^(0+384),f
  1994  1D8E                     l3695:
  1995  1D8E  0815               	movf	(matriz_estados_init@i+1)^(0+384),w
  1996  1D8F  3A80               	xorlw	128
  1997  1D90  00FF               	movwf	btemp+1
  1998  1D91  3080               	movlw	128
  1999  1D92  027F               	subwf	btemp+1,w
  2000  1D93  1D03               	skipz
  2001  1D94  2D97               	goto	u6125
  2002  1D95  3004               	movlw	4
  2003  1D96  0214               	subwf	matriz_estados_init@i^(0+384),w
  2004  1D97                     u6125:
  2005  1D97  1C03               	skipc
  2006  1D98  2D9A               	goto	u6121
  2007  1D99  2D9B               	goto	u6120
  2008  1D9A                     u6121:
  2009  1D9A  2D45               	goto	l3673
  2010  1D9B                     u6120:
  2011  1D9B                     l178:
  2012  1D9B  0008               	return
  2013  1D9C                     __end_of_matriz_estados_init:
  2014                           
  2015                           	psect	text4
  2016  1AD8                     __ptext4:	
  2017 ;; *************** function _lcd_puts *****************
  2018 ;; Defined at:
  2019 ;;		line 52 in file "lcd.c"
  2020 ;; Parameters:    Size  Location     Type
  2021 ;;  s               2    4[BANK3 ] PTR const unsigned char 
  2022 ;;		 -> STR_3(10), isr@message(9), 
  2023 ;; Auto vars:     Size  Location     Type
  2024 ;;		None
  2025 ;; Return value:  Size  Location     Type
  2026 ;;                  1    wreg      void 
  2027 ;; Registers used:
  2028 ;;		wreg, fsr0l, fsr0h, status,2, status,0, btemp+1, pclath, cstack
  2029 ;; Tracked objects:
  2030 ;;		On entry : 0/0
  2031 ;;		On exit  : 0/0
  2032 ;;		Unchanged: 0/0
  2033 ;; Data sizes:     COMMON   BANK0   BANK1   BANK3   BANK2
  2034 ;;      Params:         0       0       0       2       0
  2035 ;;      Locals:         0       0       0       0       0
  2036 ;;      Temps:          0       0       0       0       0
  2037 ;;      Totals:         0       0       0       2       0
  2038 ;;Total ram usage:        2 bytes
  2039 ;; Hardware stack levels used:    1
  2040 ;; Hardware stack levels required when called:    7
  2041 ;; This function calls:
  2042 ;;		_LCD_RS_SetHigh
  2043 ;;		_lcd_write
  2044 ;; This function is called by:
  2045 ;;		_main
  2046 ;; This function uses a non-reentrant model
  2047 ;;
  2048                           
  2049                           
  2050                           ;psect for function _lcd_puts
  2051  1AD8                     _lcd_puts:
  2052  1AD8                     l3393:	
  2053                           ;incstack = 0
  2054 ;; using string table level
  2055                           ; Regs used in _lcd_puts: [wreg-fsr0h+status,2+status,0+btemp+1+pclath+cstack]
  2056                           
  2057                           
  2058                           ;lcd.c: 53: LCD_RS_SetHigh();
  2059  1AD8  160A  158A  20E0  160A  158A  	fcall	_LCD_RS_SetHigh
  2060                           
  2061                           ;lcd.c: 54: while(*s)
  2062  1ADD  2AFC               	goto	l3399
  2063  1ADE                     l3395:
  2064                           
  2065                           ;lcd.c: 55: lcd_write(*s++);
  2066  1ADE  1683               	bsf	3,5	;RP0=1, select bank3
  2067  1ADF  1703               	bsf	3,6	;RP1=1, select bank3
  2068  1AE0  0815               	movf	(lcd_puts@s+1)^(0+384),w
  2069  1AE1  1283               	bcf	3,5	;RP0=0, select bank0
  2070  1AE2  1303               	bcf	3,6	;RP1=0, select bank0
  2071  1AE3  00FF               	movwf	btemp+1
  2072  1AE4  1683               	bsf	3,5	;RP0=1, select bank3
  2073  1AE5  1703               	bsf	3,6	;RP1=1, select bank3
  2074  1AE6  0814               	movf	lcd_puts@s^(0+384),w
  2075  1AE7  0084               	movwf	4
  2076  1AE8  1283               	bcf	3,5	;RP0=0, select bank0
  2077  1AE9  1303               	bcf	3,6	;RP1=0, select bank0
  2078  1AEA  160A  158A  2000  160A  158A  	fcall	stringtab
  2079  1AEF  160A  158A  218C  160A  158A  	fcall	_lcd_write
  2080  1AF4                     l3397:
  2081  1AF4  3001               	movlw	1
  2082  1AF5  1683               	bsf	3,5	;RP0=1, select bank3
  2083  1AF6  1703               	bsf	3,6	;RP1=1, select bank3
  2084  1AF7  0794               	addwf	lcd_puts@s^(0+384),f
  2085  1AF8  1803               	skipnc
  2086  1AF9  0A95               	incf	(lcd_puts@s+1)^(0+384),f
  2087  1AFA  3000               	movlw	0
  2088  1AFB  0795               	addwf	(lcd_puts@s+1)^(0+384),f
  2089  1AFC                     l3399:
  2090  1AFC  1683               	bsf	3,5	;RP0=1, select bank3
  2091  1AFD  1703               	bsf	3,6	;RP1=1, select bank3
  2092  1AFE  0815               	movf	(lcd_puts@s+1)^(0+384),w
  2093  1AFF  1283               	bcf	3,5	;RP0=0, select bank0
  2094  1B00  1303               	bcf	3,6	;RP1=0, select bank0
  2095  1B01  00FF               	movwf	btemp+1
  2096  1B02  1683               	bsf	3,5	;RP0=1, select bank3
  2097  1B03  1703               	bsf	3,6	;RP1=1, select bank3
  2098  1B04  0814               	movf	lcd_puts@s^(0+384),w
  2099  1B05  0084               	movwf	4
  2100  1B06  1283               	bcf	3,5	;RP0=0, select bank0
  2101  1B07  1303               	bcf	3,6	;RP1=0, select bank0
  2102  1B08  160A  158A  2000  160A  158A  	fcall	stringtab
  2103  1B0D  3A00               	xorlw	0
  2104  1B0E  1D03               	skipz
  2105  1B0F  2B11               	goto	u5721
  2106  1B10  2B12               	goto	u5720
  2107  1B11                     u5721:
  2108  1B11  2ADE               	goto	l3395
  2109  1B12                     u5720:
  2110  1B12                     l57:
  2111  1B12  0008               	return
  2112  1B13                     __end_of_lcd_puts:
  2113                           
  2114                           	psect	text5
  2115  18E0                     __ptext5:	
  2116 ;; *************** function _LCD_RS_SetHigh *****************
  2117 ;; Defined at:
  2118 ;;		line 24 in file "lcd.c"
  2119 ;; Parameters:    Size  Location     Type
  2120 ;;		None
  2121 ;; Auto vars:     Size  Location     Type
  2122 ;;		None
  2123 ;; Return value:  Size  Location     Type
  2124 ;;                  1    wreg      void 
  2125 ;; Registers used:
  2126 ;;		None
  2127 ;; Tracked objects:
  2128 ;;		On entry : 0/0
  2129 ;;		On exit  : 0/0
  2130 ;;		Unchanged: 0/0
  2131 ;; Data sizes:     COMMON   BANK0   BANK1   BANK3   BANK2
  2132 ;;      Params:         0       0       0       0       0
  2133 ;;      Locals:         0       0       0       0       0
  2134 ;;      Temps:          0       0       0       0       0
  2135 ;;      Totals:         0       0       0       0       0
  2136 ;;Total ram usage:        0 bytes
  2137 ;; Hardware stack levels used:    1
  2138 ;; Hardware stack levels required when called:    5
  2139 ;; This function calls:
  2140 ;;		Nothing
  2141 ;; This function is called by:
  2142 ;;		_lcd_puts
  2143 ;;		_lcd_putchar
  2144 ;; This function uses a non-reentrant model
  2145 ;;
  2146                           
  2147                           
  2148                           ;psect for function _LCD_RS_SetHigh
  2149  18E0                     _LCD_RS_SetHigh:
  2150  18E0                     l3009:	
  2151                           ;incstack = 0
  2152                           ; Regs used in _LCD_RS_SetHigh: []
  2153                           
  2154  18E0  1283               	bcf	3,5	;RP0=0, select bank0
  2155  18E1  1303               	bcf	3,6	;RP1=0, select bank0
  2156  18E2  1505               	bsf	5,2	;volatile
  2157  18E3                     l36:
  2158  18E3  0008               	return
  2159  18E4                     __end_of_LCD_RS_SetHigh:
  2160                           
  2161                           	psect	text6
  2162  1C8F                     __ptext6:	
  2163 ;; *************** function _lcd_init *****************
  2164 ;; Defined at:
  2165 ;;		line 84 in file "lcd.c"
  2166 ;; Parameters:    Size  Location     Type
  2167 ;;		None
  2168 ;; Auto vars:     Size  Location     Type
  2169 ;;		None
  2170 ;; Return value:  Size  Location     Type
  2171 ;;                  1    wreg      void 
  2172 ;; Registers used:
  2173 ;;		wreg, status,2, status,0, btemp+1, pclath, cstack
  2174 ;; Tracked objects:
  2175 ;;		On entry : 0/0
  2176 ;;		On exit  : 0/0
  2177 ;;		Unchanged: 0/0
  2178 ;; Data sizes:     COMMON   BANK0   BANK1   BANK3   BANK2
  2179 ;;      Params:         0       0       0       0       0
  2180 ;;      Locals:         0       0       0       0       0
  2181 ;;      Temps:          0       0       0       2       0
  2182 ;;      Totals:         0       0       0       2       0
  2183 ;;Total ram usage:        2 bytes
  2184 ;; Hardware stack levels used:    1
  2185 ;; Hardware stack levels required when called:    7
  2186 ;; This function calls:
  2187 ;;		_LCD_RS_SetLow
  2188 ;;		_LCD_RW_SetLow
  2189 ;;		_lcd_write
  2190 ;; This function is called by:
  2191 ;;		_main
  2192 ;; This function uses a non-reentrant model
  2193 ;;
  2194                           
  2195                           
  2196                           ;psect for function _lcd_init
  2197  1C8F                     _lcd_init:
  2198  1C8F                     l3413:	
  2199                           ;incstack = 0
  2200                           ; Regs used in _lcd_init: [wreg+status,2+status,0+btemp+1+pclath+cstack]
  2201                           
  2202                           
  2203                           ;lcd.c: 86: TRISB0 = 0;
  2204  1C8F  1683               	bsf	3,5	;RP0=1, select bank1
  2205  1C90  1303               	bcf	3,6	;RP1=0, select bank1
  2206  1C91  1006               	bcf	6,0	;volatile
  2207                           
  2208                           ;lcd.c: 87: ANS12 = 0;
  2209  1C92  1683               	bsf	3,5	;RP0=1, select bank3
  2210  1C93  1703               	bsf	3,6	;RP1=1, select bank3
  2211  1C94  1209               	bcf	9,4	;volatile
  2212                           
  2213                           ;lcd.c: 88: TRISA3 = 0;
  2214  1C95  1683               	bsf	3,5	;RP0=1, select bank1
  2215  1C96  1303               	bcf	3,6	;RP1=0, select bank1
  2216  1C97  1185               	bcf	5,3	;volatile
  2217                           
  2218                           ;lcd.c: 89: ANS3 = 0;
  2219  1C98  1683               	bsf	3,5	;RP0=1, select bank3
  2220  1C99  1703               	bsf	3,6	;RP1=1, select bank3
  2221  1C9A  1188               	bcf	8,3	;volatile
  2222                           
  2223                           ;lcd.c: 90: TRISA2 = 0;
  2224  1C9B  1683               	bsf	3,5	;RP0=1, select bank1
  2225  1C9C  1303               	bcf	3,6	;RP1=0, select bank1
  2226  1C9D  1105               	bcf	5,2	;volatile
  2227                           
  2228                           ;lcd.c: 91: ANS2 = 0;
  2229  1C9E  1683               	bsf	3,5	;RP0=1, select bank3
  2230  1C9F  1703               	bsf	3,6	;RP1=1, select bank3
  2231  1CA0  1108               	bcf	8,2	;volatile
  2232  1CA1                     l3415:
  2233                           
  2234                           ;lcd.c: 92: TRISC & = 0b11000110;
  2235  1CA1  30C6               	movlw	198
  2236  1CA2  00FF               	movwf	btemp+1
  2237  1CA3  087F               	movf	btemp+1,w
  2238  1CA4  1683               	bsf	3,5	;RP0=1, select bank1
  2239  1CA5  1303               	bcf	3,6	;RP1=0, select bank1
  2240  1CA6  0587               	andwf	7,f	;volatile
  2241  1CA7                     l3417:
  2242                           
  2243                           ;lcd.c: 93: RB0 = 0;
  2244  1CA7  1283               	bcf	3,5	;RP0=0, select bank0
  2245  1CA8  1303               	bcf	3,6	;RP1=0, select bank0
  2246  1CA9  1006               	bcf	6,0	;volatile
  2247  1CAA                     l3419:
  2248                           
  2249                           ;lcd.c: 95: LCD_RW_SetLow();
  2250  1CAA  160A  158A  20DC  160A  158A  	fcall	_LCD_RW_SetLow
  2251  1CAF                     l3421:
  2252                           
  2253                           ;lcd.c: 96: LCD_RS_SetLow();
  2254  1CAF  160A  158A  20D8  160A  158A  	fcall	_LCD_RS_SetLow
  2255  1CB4                     l3423:
  2256                           
  2257                           ;lcd.c: 97: _delay((unsigned long)((15)*(20000000/4000.0)));
  2258  1CB4  3062               	movlw	98
  2259  1CB5  1683               	bsf	3,5	;RP0=1, select bank3
  2260  1CB6  1703               	bsf	3,6	;RP1=1, select bank3
  2261  1CB7  0095               	movwf	(??_lcd_init^(0+384)+1)
  2262  1CB8  3065               	movlw	101
  2263  1CB9  0094               	movwf	??_lcd_init^(0+384)
  2264  1CBA                     u6667:
  2265  1CBA  0B94               	decfsz	??_lcd_init^(0+384),f
  2266  1CBB  2CBA               	goto	u6667
  2267  1CBC  0B95               	decfsz	(??_lcd_init^(0+384)+1),f
  2268  1CBD  2CBA               	goto	u6667
  2269  1CBE                     l3425:
  2270                           
  2271                           ;lcd.c: 98: lcd_write(0x02);
  2272  1CBE  3002               	movlw	2
  2273  1CBF  160A  158A  218C  160A  158A  	fcall	_lcd_write
  2274  1CC4                     l3427:
  2275                           
  2276                           ;lcd.c: 99: _delay((unsigned long)((2)*(20000000/4000.0)));
  2277  1CC4  300D               	movlw	13
  2278  1CC5  1683               	bsf	3,5	;RP0=1, select bank3
  2279  1CC6  1703               	bsf	3,6	;RP1=1, select bank3
  2280  1CC7  0095               	movwf	(??_lcd_init^(0+384)+1)
  2281  1CC8  30FB               	movlw	251
  2282  1CC9  0094               	movwf	??_lcd_init^(0+384)
  2283  1CCA                     u6677:
  2284  1CCA  0B94               	decfsz	??_lcd_init^(0+384),f
  2285  1CCB  2CCA               	goto	u6677
  2286  1CCC  0B95               	decfsz	(??_lcd_init^(0+384)+1),f
  2287  1CCD  2CCA               	goto	u6677
  2288  1CCE                     l3429:
  2289                           
  2290                           ;lcd.c: 100: lcd_write(0x28);
  2291  1CCE  3028               	movlw	40
  2292  1CCF  160A  158A  218C  160A  158A  	fcall	_lcd_write
  2293  1CD4                     l3431:
  2294                           
  2295                           ;lcd.c: 101: lcd_write(0x08);
  2296  1CD4  3008               	movlw	8
  2297  1CD5  160A  158A  218C  160A  158A  	fcall	_lcd_write
  2298  1CDA                     l3433:
  2299                           
  2300                           ;lcd.c: 102: lcd_write(0x0f);
  2301  1CDA  300F               	movlw	15
  2302  1CDB  160A  158A  218C  160A  158A  	fcall	_lcd_write
  2303  1CE0                     l3435:
  2304                           
  2305                           ;lcd.c: 103: lcd_write(0x06);
  2306  1CE0  3006               	movlw	6
  2307  1CE1  160A  158A  218C  160A  158A  	fcall	_lcd_write
  2308  1CE6                     l71:
  2309  1CE6  0008               	return
  2310  1CE7                     __end_of_lcd_init:
  2311                           
  2312                           	psect	text7
  2313  18DC                     __ptext7:	
  2314 ;; *************** function _LCD_RW_SetLow *****************
  2315 ;; Defined at:
  2316 ;;		line 25 in file "lcd.c"
  2317 ;; Parameters:    Size  Location     Type
  2318 ;;		None
  2319 ;; Auto vars:     Size  Location     Type
  2320 ;;		None
  2321 ;; Return value:  Size  Location     Type
  2322 ;;                  1    wreg      void 
  2323 ;; Registers used:
  2324 ;;		None
  2325 ;; Tracked objects:
  2326 ;;		On entry : 0/0
  2327 ;;		On exit  : 0/0
  2328 ;;		Unchanged: 0/0
  2329 ;; Data sizes:     COMMON   BANK0   BANK1   BANK3   BANK2
  2330 ;;      Params:         0       0       0       0       0
  2331 ;;      Locals:         0       0       0       0       0
  2332 ;;      Temps:          0       0       0       0       0
  2333 ;;      Totals:         0       0       0       0       0
  2334 ;;Total ram usage:        0 bytes
  2335 ;; Hardware stack levels used:    1
  2336 ;; Hardware stack levels required when called:    5
  2337 ;; This function calls:
  2338 ;;		Nothing
  2339 ;; This function is called by:
  2340 ;;		_lcd_init
  2341 ;; This function uses a non-reentrant model
  2342 ;;
  2343                           
  2344                           
  2345                           ;psect for function _LCD_RW_SetLow
  2346  18DC                     _LCD_RW_SetLow:
  2347  18DC                     l3011:	
  2348                           ;incstack = 0
  2349                           ; Regs used in _LCD_RW_SetLow: []
  2350                           
  2351  18DC  1283               	bcf	3,5	;RP0=0, select bank0
  2352  18DD  1303               	bcf	3,6	;RP1=0, select bank0
  2353  18DE  1185               	bcf	5,3	;volatile
  2354  18DF                     l39:
  2355  18DF  0008               	return
  2356  18E0                     __end_of_LCD_RW_SetLow:
  2357                           
  2358                           	psect	text8
  2359  192F                     __ptext8:	
  2360 ;; *************** function _lcd_goto *****************
  2361 ;; Defined at:
  2362 ;;		line 59 in file "lcd.c"
  2363 ;; Parameters:    Size  Location     Type
  2364 ;;  pos             1    wreg     unsigned char 
  2365 ;; Auto vars:     Size  Location     Type
  2366 ;;  pos             1    4[BANK3 ] unsigned char 
  2367 ;; Return value:  Size  Location     Type
  2368 ;;                  1    wreg      void 
  2369 ;; Registers used:
  2370 ;;		wreg, status,2, status,0, pclath, cstack
  2371 ;; Tracked objects:
  2372 ;;		On entry : 0/0
  2373 ;;		On exit  : 0/0
  2374 ;;		Unchanged: 0/0
  2375 ;; Data sizes:     COMMON   BANK0   BANK1   BANK3   BANK2
  2376 ;;      Params:         0       0       0       0       0
  2377 ;;      Locals:         0       0       0       1       0
  2378 ;;      Temps:          0       0       0       0       0
  2379 ;;      Totals:         0       0       0       1       0
  2380 ;;Total ram usage:        1 bytes
  2381 ;; Hardware stack levels used:    1
  2382 ;; Hardware stack levels required when called:    7
  2383 ;; This function calls:
  2384 ;;		_LCD_RS_SetLow
  2385 ;;		_lcd_write
  2386 ;; This function is called by:
  2387 ;;		_main
  2388 ;; This function uses a non-reentrant model
  2389 ;;
  2390                           
  2391                           
  2392                           ;psect for function _lcd_goto
  2393  192F                     _lcd_goto:
  2394                           
  2395                           ;incstack = 0
  2396                           ; Regs used in _lcd_goto: [wreg+status,2+status,0+pclath+cstack]
  2397                           ;lcd_goto@pos stored from wreg
  2398  192F  1683               	bsf	3,5	;RP0=1, select bank3
  2399  1930  1703               	bsf	3,6	;RP1=1, select bank3
  2400  1931  0094               	movwf	lcd_goto@pos^(0+384)
  2401  1932                     l3401:
  2402                           
  2403                           ;lcd.c: 60: LCD_RS_SetLow();
  2404  1932  160A  158A  20D8  160A  158A  	fcall	_LCD_RS_SetLow
  2405  1937                     l3403:
  2406                           
  2407                           ;lcd.c: 61: lcd_write(0x80 + pos);
  2408  1937  1683               	bsf	3,5	;RP0=1, select bank3
  2409  1938  1703               	bsf	3,6	;RP1=1, select bank3
  2410  1939  0814               	movf	lcd_goto@pos^(0+384),w
  2411  193A  3E80               	addlw	128
  2412  193B  160A  158A  218C  160A  158A  	fcall	_lcd_write
  2413  1940                     l60:
  2414  1940  0008               	return
  2415  1941                     __end_of_lcd_goto:
  2416                           
  2417                           	psect	text9
  2418  0800                     __ptext9:	
  2419 ;; *************** function _lcd_cursor *****************
  2420 ;; Defined at:
  2421 ;;		line 68 in file "lcd.c"
  2422 ;; Parameters:    Size  Location     Type
  2423 ;;  on              2    4[BANK3 ] int 
  2424 ;; Auto vars:     Size  Location     Type
  2425 ;;		None
  2426 ;; Return value:  Size  Location     Type
  2427 ;;                  1    wreg      void 
  2428 ;; Registers used:
  2429 ;;		wreg, status,2, status,0, pclath, cstack
  2430 ;; Tracked objects:
  2431 ;;		On entry : 0/0
  2432 ;;		On exit  : 0/0
  2433 ;;		Unchanged: 0/0
  2434 ;; Data sizes:     COMMON   BANK0   BANK1   BANK3   BANK2
  2435 ;;      Params:         0       0       0       2       0
  2436 ;;      Locals:         0       0       0       0       0
  2437 ;;      Temps:          0       0       0       0       0
  2438 ;;      Totals:         0       0       0       2       0
  2439 ;;Total ram usage:        2 bytes
  2440 ;; Hardware stack levels used:    1
  2441 ;; Hardware stack levels required when called:    7
  2442 ;; This function calls:
  2443 ;;		_LCD_RS_SetLow
  2444 ;;		_lcd_write
  2445 ;; This function is called by:
  2446 ;;		_main
  2447 ;; This function uses a non-reentrant model
  2448 ;;
  2449                           
  2450                           
  2451                           ;psect for function _lcd_cursor
  2452  0800                     _lcd_cursor:
  2453  0800                     l3405:	
  2454                           ;incstack = 0
  2455                           ; Regs used in _lcd_cursor: [wreg+status,2+status,0+pclath+cstack]
  2456                           
  2457                           
  2458                           ;lcd.c: 69: LCD_RS_SetLow();
  2459  0800  160A  158A  20D8  120A  158A  	fcall	_LCD_RS_SetLow
  2460  0805                     l3407:
  2461                           
  2462                           ;lcd.c: 70: if (on) {
  2463  0805  1683               	bsf	3,5	;RP0=1, select bank3
  2464  0806  1703               	bsf	3,6	;RP1=1, select bank3
  2465  0807  0814               	movf	lcd_cursor@on^(0+384),w
  2466  0808  0415               	iorwf	(lcd_cursor@on+1)^(0+384),w
  2467  0809  1903               	btfsc	3,2
  2468  080A  280C               	goto	u5731
  2469  080B  280D               	goto	u5730
  2470  080C                     u5731:
  2471  080C  2814               	goto	l3411
  2472  080D                     u5730:
  2473  080D                     l3409:
  2474                           
  2475                           ;lcd.c: 71: lcd_write(0x0f);
  2476  080D  300F               	movlw	15
  2477  080E  160A  158A  218C  120A  158A  	fcall	_lcd_write
  2478                           
  2479                           ;lcd.c: 72: } else {
  2480  0813  281A               	goto	l65
  2481  0814                     l3411:
  2482                           
  2483                           ;lcd.c: 73: lcd_write(0x0c);
  2484  0814  300C               	movlw	12
  2485  0815  160A  158A  218C  120A  158A  	fcall	_lcd_write
  2486  081A                     l65:
  2487  081A  0008               	return
  2488  081B                     __end_of_lcd_cursor:
  2489                           
  2490                           	psect	text10
  2491  1003                     __ptext10:	
  2492 ;; *************** function _lcd_clear *****************
  2493 ;; Defined at:
  2494 ;;		line 45 in file "lcd.c"
  2495 ;; Parameters:    Size  Location     Type
  2496 ;;		None
  2497 ;; Auto vars:     Size  Location     Type
  2498 ;;		None
  2499 ;; Return value:  Size  Location     Type
  2500 ;;                  1    wreg      void 
  2501 ;; Registers used:
  2502 ;;		wreg, status,2, status,0, pclath, cstack
  2503 ;; Tracked objects:
  2504 ;;		On entry : 0/0
  2505 ;;		On exit  : 0/0
  2506 ;;		Unchanged: 0/0
  2507 ;; Data sizes:     COMMON   BANK0   BANK1   BANK3   BANK2
  2508 ;;      Params:         0       0       0       0       0
  2509 ;;      Locals:         0       0       0       0       0
  2510 ;;      Temps:          0       0       0       2       0
  2511 ;;      Totals:         0       0       0       2       0
  2512 ;;Total ram usage:        2 bytes
  2513 ;; Hardware stack levels used:    1
  2514 ;; Hardware stack levels required when called:    7
  2515 ;; This function calls:
  2516 ;;		_LCD_RS_SetLow
  2517 ;;		_lcd_write
  2518 ;; This function is called by:
  2519 ;;		_main
  2520 ;; This function uses a non-reentrant model
  2521 ;;
  2522                           
  2523                           
  2524                           ;psect for function _lcd_clear
  2525  1003                     _lcd_clear:
  2526  1003                     l3389:	
  2527                           ;incstack = 0
  2528                           ; Regs used in _lcd_clear: [wreg+status,2+status,0+pclath+cstack]
  2529                           
  2530                           
  2531                           ;lcd.c: 46: LCD_RS_SetLow();
  2532  1003  160A  158A  20D8  160A  118A  	fcall	_LCD_RS_SetLow
  2533  1008                     l3391:
  2534                           
  2535                           ;lcd.c: 47: lcd_write(0x1);
  2536  1008  3001               	movlw	1
  2537  1009  160A  158A  218C  160A  118A  	fcall	_lcd_write
  2538                           
  2539                           ;lcd.c: 48: _delay((unsigned long)((2)*(20000000/4000.0)));
  2540  100E  300D               	movlw	13
  2541  100F  1683               	bsf	3,5	;RP0=1, select bank3
  2542  1010  1703               	bsf	3,6	;RP1=1, select bank3
  2543  1011  0095               	movwf	(??_lcd_clear^(0+384)+1)
  2544  1012  30FB               	movlw	251
  2545  1013  0094               	movwf	??_lcd_clear^(0+384)
  2546  1014                     u6687:
  2547  1014  0B94               	decfsz	??_lcd_clear^(0+384),f
  2548  1015  2814               	goto	u6687
  2549  1016  0B95               	decfsz	(??_lcd_clear^(0+384)+1),f
  2550  1017  2814               	goto	u6687
  2551  1018                     l51:
  2552  1018  0008               	return
  2553  1019                     __end_of_lcd_clear:
  2554                           
  2555                           	psect	text11
  2556  198C                     __ptext11:	
  2557 ;; *************** function _lcd_write *****************
  2558 ;; Defined at:
  2559 ;;		line 38 in file "lcd.c"
  2560 ;; Parameters:    Size  Location     Type
  2561 ;;  c               1    wreg     unsigned char 
  2562 ;; Auto vars:     Size  Location     Type
  2563 ;;  c               1    3[BANK3 ] unsigned char 
  2564 ;; Return value:  Size  Location     Type
  2565 ;;                  1    wreg      void 
  2566 ;; Registers used:
  2567 ;;		wreg, status,2, status,0, pclath, cstack
  2568 ;; Tracked objects:
  2569 ;;		On entry : 0/0
  2570 ;;		On exit  : 0/0
  2571 ;;		Unchanged: 0/0
  2572 ;; Data sizes:     COMMON   BANK0   BANK1   BANK3   BANK2
  2573 ;;      Params:         0       0       0       0       0
  2574 ;;      Locals:         0       0       0       1       0
  2575 ;;      Temps:          0       0       0       1       0
  2576 ;;      Totals:         0       0       0       2       0
  2577 ;;Total ram usage:        2 bytes
  2578 ;; Hardware stack levels used:    1
  2579 ;; Hardware stack levels required when called:    6
  2580 ;; This function calls:
  2581 ;;		_lcd_write_nibble
  2582 ;; This function is called by:
  2583 ;;		_lcd_clear
  2584 ;;		_lcd_puts
  2585 ;;		_lcd_goto
  2586 ;;		_lcd_cursor
  2587 ;;		_lcd_init
  2588 ;;		_lcd_putchar
  2589 ;; This function uses a non-reentrant model
  2590 ;;
  2591                           
  2592                           
  2593                           ;psect for function _lcd_write
  2594  198C                     _lcd_write:
  2595                           
  2596                           ;incstack = 0
  2597                           ; Regs used in _lcd_write: [wreg+status,2+status,0+pclath+cstack]
  2598                           ;lcd_write@c stored from wreg
  2599  198C  1683               	bsf	3,5	;RP0=1, select bank3
  2600  198D  1703               	bsf	3,6	;RP1=1, select bank3
  2601  198E  0093               	movwf	lcd_write@c^(0+384)
  2602  198F                     l3013:
  2603                           
  2604                           ;lcd.c: 39: lcd_write_nibble(c >> 4);
  2605  198F  0813               	movf	lcd_write@c^(0+384),w
  2606  1990  0092               	movwf	??_lcd_write^(0+384)
  2607  1991  3004               	movlw	4
  2608  1992                     u4675:
  2609  1992  1003               	clrc
  2610  1993  0C92               	rrf	??_lcd_write^(0+384),f
  2611  1994  3EFF               	addlw	-1
  2612  1995  1D03               	skipz
  2613  1996  2992               	goto	u4675
  2614  1997  0812               	movf	??_lcd_write^(0+384),w
  2615  1998  160A  158A  23EB  160A  158A  	fcall	_lcd_write_nibble
  2616                           
  2617                           ;lcd.c: 40: lcd_write_nibble(c);
  2618  199D  1683               	bsf	3,5	;RP0=1, select bank3
  2619  199E  1703               	bsf	3,6	;RP1=1, select bank3
  2620  199F  0813               	movf	lcd_write@c^(0+384),w
  2621  19A0  160A  158A  23EB  160A  158A  	fcall	_lcd_write_nibble
  2622  19A5                     l3015:
  2623                           
  2624                           ;lcd.c: 41: _delay((unsigned long)((40)*(20000000/4000000.0)));
  2625  19A5  3041               	movlw	65
  2626  19A6  1683               	bsf	3,5	;RP0=1, select bank3
  2627  19A7  1703               	bsf	3,6	;RP1=1, select bank3
  2628  19A8  0092               	movwf	??_lcd_write^(0+384)
  2629  19A9                     u6697:
  2630  19A9  0B92               	decfsz	??_lcd_write^(0+384),f
  2631  19AA  29A9               	goto	u6697
  2632  19AB  29AC               	nop2
  2633  19AC                     l48:
  2634  19AC  0008               	return
  2635  19AD                     __end_of_lcd_write:
  2636                           
  2637                           	psect	text12
  2638  1BEB                     __ptext12:	
  2639 ;; *************** function _lcd_write_nibble *****************
  2640 ;; Defined at:
  2641 ;;		line 28 in file "lcd.c"
  2642 ;; Parameters:    Size  Location     Type
  2643 ;;  c               1    wreg     unsigned char 
  2644 ;; Auto vars:     Size  Location     Type
  2645 ;;  c               1    1[BANK3 ] unsigned char 
  2646 ;; Return value:  Size  Location     Type
  2647 ;;                  1    wreg      void 
  2648 ;; Registers used:
  2649 ;;		wreg, status,2, status,0
  2650 ;; Tracked objects:
  2651 ;;		On entry : 0/0
  2652 ;;		On exit  : 0/0
  2653 ;;		Unchanged: 0/0
  2654 ;; Data sizes:     COMMON   BANK0   BANK1   BANK3   BANK2
  2655 ;;      Params:         0       0       0       0       0
  2656 ;;      Locals:         0       0       0       1       0
  2657 ;;      Temps:          0       0       0       1       0
  2658 ;;      Totals:         0       0       0       2       0
  2659 ;;Total ram usage:        2 bytes
  2660 ;; Hardware stack levels used:    1
  2661 ;; Hardware stack levels required when called:    5
  2662 ;; This function calls:
  2663 ;;		Nothing
  2664 ;; This function is called by:
  2665 ;;		_lcd_write
  2666 ;; This function uses a non-reentrant model
  2667 ;;
  2668                           
  2669                           
  2670                           ;psect for function _lcd_write_nibble
  2671  1BEB                     _lcd_write_nibble:
  2672                           
  2673                           ;incstack = 0
  2674                           ; Regs used in _lcd_write_nibble: [wreg+status,2+status,0]
  2675                           ;lcd_write_nibble@c stored from wreg
  2676  1BEB  1683               	bsf	3,5	;RP0=1, select bank3
  2677  1BEC  1703               	bsf	3,6	;RP1=1, select bank3
  2678  1BED  0091               	movwf	lcd_write_nibble@c^(0+384)
  2679  1BEE                     l2509:
  2680                           
  2681                           ;lcd.c: 29: RC0 = (c & 0b00000001) >> 0;
  2682  1BEE  1811               	btfsc	lcd_write_nibble@c^(0+384),0
  2683  1BEF  2BF1               	goto	u3301
  2684  1BF0  2BF5               	goto	u3300
  2685  1BF1                     u3301:
  2686  1BF1  1283               	bcf	3,5	;RP0=0, select bank0
  2687  1BF2  1303               	bcf	3,6	;RP1=0, select bank0
  2688  1BF3  1407               	bsf	7,0	;volatile
  2689  1BF4  2BF8               	goto	u3314
  2690  1BF5                     u3300:
  2691  1BF5  1283               	bcf	3,5	;RP0=0, select bank0
  2692  1BF6  1303               	bcf	3,6	;RP1=0, select bank0
  2693  1BF7  1007               	bcf	7,0	;volatile
  2694  1BF8                     u3314:
  2695  1BF8                     l2511:
  2696                           
  2697                           ;lcd.c: 30: RC3 = (c & 0b00000010) >> 1;
  2698  1BF8  1683               	bsf	3,5	;RP0=1, select bank3
  2699  1BF9  1703               	bsf	3,6	;RP1=1, select bank3
  2700  1BFA  0811               	movf	lcd_write_nibble@c^(0+384),w
  2701  1BFB  0090               	movwf	??_lcd_write_nibble^(0+384)
  2702  1BFC  3001               	movlw	1
  2703  1BFD                     u3325:
  2704  1BFD  1003               	clrc
  2705  1BFE  0C90               	rrf	??_lcd_write_nibble^(0+384),f
  2706  1BFF  3EFF               	addlw	-1
  2707  1C00  1D03               	skipz
  2708  1C01  2BFD               	goto	u3325
  2709  1C02  1810               	btfsc	??_lcd_write_nibble^(0+384),0
  2710  1C03  2C05               	goto	u3331
  2711  1C04  2C09               	goto	u3330
  2712  1C05                     u3331:
  2713  1C05  1283               	bcf	3,5	;RP0=0, select bank0
  2714  1C06  1303               	bcf	3,6	;RP1=0, select bank0
  2715  1C07  1587               	bsf	7,3	;volatile
  2716  1C08  2C0C               	goto	u3344
  2717  1C09                     u3330:
  2718  1C09  1283               	bcf	3,5	;RP0=0, select bank0
  2719  1C0A  1303               	bcf	3,6	;RP1=0, select bank0
  2720  1C0B  1187               	bcf	7,3	;volatile
  2721  1C0C                     u3344:
  2722                           
  2723                           ;lcd.c: 31: RC4 = (c & 0b00000100) >> 2;
  2724  1C0C  1683               	bsf	3,5	;RP0=1, select bank3
  2725  1C0D  1703               	bsf	3,6	;RP1=1, select bank3
  2726  1C0E  0811               	movf	lcd_write_nibble@c^(0+384),w
  2727  1C0F  0090               	movwf	??_lcd_write_nibble^(0+384)
  2728  1C10  3002               	movlw	2
  2729  1C11                     u3355:
  2730  1C11  1003               	clrc
  2731  1C12  0C90               	rrf	??_lcd_write_nibble^(0+384),f
  2732  1C13  3EFF               	addlw	-1
  2733  1C14  1D03               	skipz
  2734  1C15  2C11               	goto	u3355
  2735  1C16  1810               	btfsc	??_lcd_write_nibble^(0+384),0
  2736  1C17  2C19               	goto	u3361
  2737  1C18  2C1D               	goto	u3360
  2738  1C19                     u3361:
  2739  1C19  1283               	bcf	3,5	;RP0=0, select bank0
  2740  1C1A  1303               	bcf	3,6	;RP1=0, select bank0
  2741  1C1B  1607               	bsf	7,4	;volatile
  2742  1C1C  2C20               	goto	u3374
  2743  1C1D                     u3360:
  2744  1C1D  1283               	bcf	3,5	;RP0=0, select bank0
  2745  1C1E  1303               	bcf	3,6	;RP1=0, select bank0
  2746  1C1F  1207               	bcf	7,4	;volatile
  2747  1C20                     u3374:
  2748                           
  2749                           ;lcd.c: 32: RC5 = (c & 0b00001000) >> 3;
  2750  1C20  1683               	bsf	3,5	;RP0=1, select bank3
  2751  1C21  1703               	bsf	3,6	;RP1=1, select bank3
  2752  1C22  0811               	movf	lcd_write_nibble@c^(0+384),w
  2753  1C23  0090               	movwf	??_lcd_write_nibble^(0+384)
  2754  1C24  3003               	movlw	3
  2755  1C25                     u3385:
  2756  1C25  1003               	clrc
  2757  1C26  0C90               	rrf	??_lcd_write_nibble^(0+384),f
  2758  1C27  3EFF               	addlw	-1
  2759  1C28  1D03               	skipz
  2760  1C29  2C25               	goto	u3385
  2761  1C2A  1810               	btfsc	??_lcd_write_nibble^(0+384),0
  2762  1C2B  2C2D               	goto	u3391
  2763  1C2C  2C31               	goto	u3390
  2764  1C2D                     u3391:
  2765  1C2D  1283               	bcf	3,5	;RP0=0, select bank0
  2766  1C2E  1303               	bcf	3,6	;RP1=0, select bank0
  2767  1C2F  1687               	bsf	7,5	;volatile
  2768  1C30  2C34               	goto	u3404
  2769  1C31                     u3390:
  2770  1C31  1283               	bcf	3,5	;RP0=0, select bank0
  2771  1C32  1303               	bcf	3,6	;RP1=0, select bank0
  2772  1C33  1287               	bcf	7,5	;volatile
  2773  1C34                     u3404:
  2774  1C34                     l2513:
  2775                           
  2776                           ;lcd.c: 34: ((RB0 = 1),(RB0 = 1),(RB0 = 1),(RB0 = 0));
  2777  1C34  1406               	bsf	6,0	;volatile
  2778  1C35                     l2515:
  2779  1C35  1406               	bsf	6,0	;volatile
  2780  1C36                     l2517:
  2781  1C36  1406               	bsf	6,0	;volatile
  2782  1C37                     l2519:
  2783  1C37  1006               	bcf	6,0	;volatile
  2784  1C38                     l45:
  2785  1C38  0008               	return
  2786  1C39                     __end_of_lcd_write_nibble:
  2787                           
  2788                           	psect	text13
  2789  18D8                     __ptext13:	
  2790 ;; *************** function _LCD_RS_SetLow *****************
  2791 ;; Defined at:
  2792 ;;		line 23 in file "lcd.c"
  2793 ;; Parameters:    Size  Location     Type
  2794 ;;		None
  2795 ;; Auto vars:     Size  Location     Type
  2796 ;;		None
  2797 ;; Return value:  Size  Location     Type
  2798 ;;                  1    wreg      void 
  2799 ;; Registers used:
  2800 ;;		None
  2801 ;; Tracked objects:
  2802 ;;		On entry : 0/0
  2803 ;;		On exit  : 0/0
  2804 ;;		Unchanged: 0/0
  2805 ;; Data sizes:     COMMON   BANK0   BANK1   BANK3   BANK2
  2806 ;;      Params:         0       0       0       0       0
  2807 ;;      Locals:         0       0       0       0       0
  2808 ;;      Temps:          0       0       0       0       0
  2809 ;;      Totals:         0       0       0       0       0
  2810 ;;Total ram usage:        0 bytes
  2811 ;; Hardware stack levels used:    1
  2812 ;; Hardware stack levels required when called:    5
  2813 ;; This function calls:
  2814 ;;		Nothing
  2815 ;; This function is called by:
  2816 ;;		_lcd_clear
  2817 ;;		_lcd_goto
  2818 ;;		_lcd_cursor
  2819 ;;		_lcd_init
  2820 ;; This function uses a non-reentrant model
  2821 ;;
  2822                           
  2823                           
  2824                           ;psect for function _LCD_RS_SetLow
  2825  18D8                     _LCD_RS_SetLow:
  2826  18D8                     l3007:	
  2827                           ;incstack = 0
  2828                           ; Regs used in _LCD_RS_SetLow: []
  2829                           
  2830  18D8  1283               	bcf	3,5	;RP0=0, select bank0
  2831  18D9  1303               	bcf	3,6	;RP1=0, select bank0
  2832  18DA  1105               	bcf	5,2	;volatile
  2833  18DB                     l33:
  2834  18DB  0008               	return
  2835  18DC                     __end_of_LCD_RS_SetLow:
  2836                           
  2837                           	psect	text14
  2838  1941                     __ptext14:	
  2839 ;; *************** function _io_sw_pressed *****************
  2840 ;; Defined at:
  2841 ;;		line 58 in file "io.c"
  2842 ;; Parameters:    Size  Location     Type
  2843 ;;		None
  2844 ;; Auto vars:     Size  Location     Type
  2845 ;;		None
  2846 ;; Return value:  Size  Location     Type
  2847 ;;                  2    0[BANK3 ] int 
  2848 ;; Registers used:
  2849 ;;		wreg, status,2
  2850 ;; Tracked objects:
  2851 ;;		On entry : 0/0
  2852 ;;		On exit  : 0/0
  2853 ;;		Unchanged: 0/0
  2854 ;; Data sizes:     COMMON   BANK0   BANK1   BANK3   BANK2
  2855 ;;      Params:         0       0       0       2       0
  2856 ;;      Locals:         0       0       0       0       0
  2857 ;;      Temps:          0       0       0       0       0
  2858 ;;      Totals:         0       0       0       2       0
  2859 ;;Total ram usage:        2 bytes
  2860 ;; Hardware stack levels used:    1
  2861 ;; Hardware stack levels required when called:    5
  2862 ;; This function calls:
  2863 ;;		Nothing
  2864 ;; This function is called by:
  2865 ;;		_main
  2866 ;; This function uses a non-reentrant model
  2867 ;;
  2868                           
  2869                           
  2870                           ;psect for function _io_sw_pressed
  2871  1941                     _io_sw_pressed:
  2872  1941                     l3975:	
  2873                           ;incstack = 0
  2874                           ; Regs used in _io_sw_pressed: [wreg+status,2]
  2875                           
  2876                           
  2877                           ;io.c: 59: if (swPressed) {
  2878  1941  1683               	bsf	3,5	;RP0=1, select bank1
  2879  1942  1303               	bcf	3,6	;RP1=0, select bank1
  2880  1943  1C6E               	btfss	(_swPressed/(0+8))^(0+128),_swPressed& (0+7)	;volatile
  2881  1944  2946               	goto	u6561
  2882  1945  2947               	goto	u6560
  2883  1946                     u6561:
  2884  1946  294F               	goto	l3983
  2885  1947                     u6560:
  2886  1947                     l3977:
  2887                           
  2888                           ;io.c: 60: swPressed = 0;
  2889  1947  106E               	bcf	(_swPressed/(0+8))^(0+128),_swPressed& (0+7)	;volatile
  2890  1948                     l3979:
  2891                           
  2892                           ;io.c: 61: return 1;
  2893  1948  3001               	movlw	1
  2894  1949  1683               	bsf	3,5	;RP0=1, select bank3
  2895  194A  1703               	bsf	3,6	;RP1=1, select bank3
  2896  194B  0090               	movwf	?_io_sw_pressed^(0+384)
  2897  194C  3000               	movlw	0
  2898  194D  0091               	movwf	(?_io_sw_pressed^(0+384)+1)
  2899  194E  2953               	goto	l239
  2900  194F                     l3983:
  2901                           
  2902                           ;io.c: 62: };io.c: 63: return 0;
  2903  194F  1683               	bsf	3,5	;RP0=1, select bank3
  2904  1950  1703               	bsf	3,6	;RP1=1, select bank3
  2905  1951  0190               	clrf	?_io_sw_pressed^(0+384)
  2906  1952  0191               	clrf	(?_io_sw_pressed+1)^(0+384)
  2907  1953                     l239:
  2908  1953  0008               	return
  2909  1954                     __end_of_io_sw_pressed:
  2910                           
  2911                           	psect	text15
  2912  18E4                     __ptext15:	
  2913 ;; *************** function _io_led_toggle *****************
  2914 ;; Defined at:
  2915 ;;		line 36 in file "io.c"
  2916 ;; Parameters:    Size  Location     Type
  2917 ;;		None
  2918 ;; Auto vars:     Size  Location     Type
  2919 ;;		None
  2920 ;; Return value:  Size  Location     Type
  2921 ;;                  1    wreg      void 
  2922 ;; Registers used:
  2923 ;;		wreg
  2924 ;; Tracked objects:
  2925 ;;		On entry : 0/0
  2926 ;;		On exit  : 0/0
  2927 ;;		Unchanged: 0/0
  2928 ;; Data sizes:     COMMON   BANK0   BANK1   BANK3   BANK2
  2929 ;;      Params:         0       0       0       0       0
  2930 ;;      Locals:         0       0       0       0       0
  2931 ;;      Temps:          0       0       0       0       0
  2932 ;;      Totals:         0       0       0       0       0
  2933 ;;Total ram usage:        0 bytes
  2934 ;; Hardware stack levels used:    1
  2935 ;; Hardware stack levels required when called:    5
  2936 ;; This function calls:
  2937 ;;		Nothing
  2938 ;; This function is called by:
  2939 ;;		_main
  2940 ;; This function uses a non-reentrant model
  2941 ;;
  2942                           
  2943                           
  2944                           ;psect for function _io_led_toggle
  2945  18E4                     _io_led_toggle:
  2946  18E4                     l3721:	
  2947                           ;incstack = 0
  2948                           ; Regs used in _io_led_toggle: [wreg]
  2949                           
  2950                           
  2951                           ;io.c: 37: RB5 = ~RB5;
  2952  18E4  3020               	movlw	32
  2953  18E5  1283               	bcf	3,5	;RP0=0, select bank0
  2954  18E6  1303               	bcf	3,6	;RP1=0, select bank0
  2955  18E7  0686               	xorwf	6,f
  2956  18E8                     l223:
  2957  18E8  0008               	return
  2958  18E9                     __end_of_io_led_toggle:
  2959                           
  2960                           	psect	text16
  2961  1920                     __ptext16:	
  2962 ;; *************** function _io_init *****************
  2963 ;; Defined at:
  2964 ;;		line 17 in file "io.c"
  2965 ;; Parameters:    Size  Location     Type
  2966 ;;		None
  2967 ;; Auto vars:     Size  Location     Type
  2968 ;;		None
  2969 ;; Return value:  Size  Location     Type
  2970 ;;                  1    wreg      void 
  2971 ;; Registers used:
  2972 ;;		None
  2973 ;; Tracked objects:
  2974 ;;		On entry : 0/0
  2975 ;;		On exit  : 0/0
  2976 ;;		Unchanged: 0/0
  2977 ;; Data sizes:     COMMON   BANK0   BANK1   BANK3   BANK2
  2978 ;;      Params:         0       0       0       0       0
  2979 ;;      Locals:         0       0       0       0       0
  2980 ;;      Temps:          0       0       0       0       0
  2981 ;;      Totals:         0       0       0       0       0
  2982 ;;Total ram usage:        0 bytes
  2983 ;; Hardware stack levels used:    1
  2984 ;; Hardware stack levels required when called:    5
  2985 ;; This function calls:
  2986 ;;		Nothing
  2987 ;; This function is called by:
  2988 ;;		_main
  2989 ;; This function uses a non-reentrant model
  2990 ;;
  2991                           
  2992                           
  2993                           ;psect for function _io_init
  2994  1920                     _io_init:
  2995  1920                     l3697:	
  2996                           ;incstack = 0
  2997                           ; Regs used in _io_init: []
  2998                           
  2999                           
  3000                           ;io.c: 18: TRISB5 = 0;
  3001  1920  1683               	bsf	3,5	;RP0=1, select bank1
  3002  1921  1303               	bcf	3,6	;RP1=0, select bank1
  3003  1922  1286               	bcf	6,5	;volatile
  3004                           
  3005                           ;io.c: 19: ANS13 = 0;
  3006  1923  1683               	bsf	3,5	;RP0=1, select bank3
  3007  1924  1703               	bsf	3,6	;RP1=1, select bank3
  3008  1925  1289               	bcf	9,5	;volatile
  3009                           
  3010                           ;io.c: 20: TRISB7 = 0;
  3011  1926  1683               	bsf	3,5	;RP0=1, select bank1
  3012  1927  1303               	bcf	3,6	;RP1=0, select bank1
  3013  1928  1386               	bcf	6,7	;volatile
  3014                           
  3015                           ;io.c: 21: TRISB6 = 1;
  3016  1929  1706               	bsf	6,6	;volatile
  3017                           
  3018                           ;io.c: 22: nRBPU = 0;
  3019  192A  1381               	bcf	1,7	;volatile
  3020                           
  3021                           ;io.c: 23: WPUB6 = 1;
  3022  192B  1715               	bsf	21,6	;volatile
  3023                           
  3024                           ;io.c: 24: IOCB6 = 1;
  3025  192C  1716               	bsf	22,6	;volatile
  3026                           
  3027                           ;io.c: 25: RBIE = 1;
  3028  192D  158B               	bsf	11,3	;volatile
  3029  192E                     l214:
  3030  192E  0008               	return
  3031  192F                     __end_of_io_init:
  3032                           
  3033                           	psect	text17
  3034  1A6A                     __ptext17:	
  3035 ;; *************** function _io_beep *****************
  3036 ;; Defined at:
  3037 ;;		line 40 in file "io.c"
  3038 ;; Parameters:    Size  Location     Type
  3039 ;;  period          2    0[BANK3 ] int 
  3040 ;; Auto vars:     Size  Location     Type
  3041 ;;		None
  3042 ;; Return value:  Size  Location     Type
  3043 ;;                  1    wreg      void 
  3044 ;; Registers used:
  3045 ;;		wreg, btemp+1
  3046 ;; Tracked objects:
  3047 ;;		On entry : 0/0
  3048 ;;		On exit  : 0/0
  3049 ;;		Unchanged: 0/0
  3050 ;; Data sizes:     COMMON   BANK0   BANK1   BANK3   BANK2
  3051 ;;      Params:         0       0       0       2       0
  3052 ;;      Locals:         0       0       0       0       0
  3053 ;;      Temps:          0       0       0       2       0
  3054 ;;      Totals:         0       0       0       4       0
  3055 ;;Total ram usage:        4 bytes
  3056 ;; Hardware stack levels used:    1
  3057 ;; Hardware stack levels required when called:    5
  3058 ;; This function calls:
  3059 ;;		Nothing
  3060 ;; This function is called by:
  3061 ;;		_main
  3062 ;; This function uses a non-reentrant model
  3063 ;;
  3064                           
  3065                           
  3066                           ;psect for function _io_beep
  3067  1A6A                     _io_beep:
  3068  1A6A                     l3701:	
  3069                           ;incstack = 0
  3070                           ; Regs used in _io_beep: [wreg+btemp+1]
  3071                           
  3072                           
  3073                           ;io.c: 41: while (period-- > 0) {
  3074  1A6A  2A87               	goto	l3707
  3075  1A6B                     l227:
  3076                           
  3077                           ;io.c: 42: RB7 = 1;
  3078  1A6B  1283               	bcf	3,5	;RP0=0, select bank0
  3079  1A6C  1303               	bcf	3,6	;RP1=0, select bank0
  3080  1A6D  1786               	bsf	6,7	;volatile
  3081  1A6E                     l3703:
  3082                           
  3083                           ;io.c: 43: _delay((unsigned long)((4)*(20000000/4000.0)));
  3084  1A6E  301A               	movlw	26
  3085  1A6F  1683               	bsf	3,5	;RP0=1, select bank3
  3086  1A70  1703               	bsf	3,6	;RP1=1, select bank3
  3087  1A71  0093               	movwf	(??_io_beep^(0+384)+1)
  3088  1A72  30F7               	movlw	247
  3089  1A73  0092               	movwf	??_io_beep^(0+384)
  3090  1A74                     u6707:
  3091  1A74  0B92               	decfsz	??_io_beep^(0+384),f
  3092  1A75  2A74               	goto	u6707
  3093  1A76  0B93               	decfsz	(??_io_beep^(0+384)+1),f
  3094  1A77  2A74               	goto	u6707
  3095  1A78  2A79               	nop2
  3096  1A79                     l3705:
  3097                           
  3098                           ;io.c: 44: RB7 = 0;
  3099  1A79  1283               	bcf	3,5	;RP0=0, select bank0
  3100  1A7A  1303               	bcf	3,6	;RP1=0, select bank0
  3101  1A7B  1386               	bcf	6,7	;volatile
  3102                           
  3103                           ;io.c: 45: _delay((unsigned long)((4)*(20000000/4000.0)));
  3104  1A7C  301A               	movlw	26
  3105  1A7D  1683               	bsf	3,5	;RP0=1, select bank3
  3106  1A7E  1703               	bsf	3,6	;RP1=1, select bank3
  3107  1A7F  0093               	movwf	(??_io_beep^(0+384)+1)
  3108  1A80  30F7               	movlw	247
  3109  1A81  0092               	movwf	??_io_beep^(0+384)
  3110  1A82                     u6717:
  3111  1A82  0B92               	decfsz	??_io_beep^(0+384),f
  3112  1A83  2A82               	goto	u6717
  3113  1A84  0B93               	decfsz	(??_io_beep^(0+384)+1),f
  3114  1A85  2A82               	goto	u6717
  3115  1A86  2A87               	nop2
  3116  1A87                     l3707:
  3117  1A87  1683               	bsf	3,5	;RP0=1, select bank3
  3118  1A88  1703               	bsf	3,6	;RP1=1, select bank3
  3119  1A89  0811               	movf	(io_beep@period+1)^(0+384),w
  3120  1A8A  0093               	movwf	(??_io_beep^(0+384)+1)
  3121  1A8B  0390               	decf	io_beep@period^(0+384),f
  3122  1A8C  0A10               	incf	io_beep@period^(0+384),w
  3123  1A8D  0092               	movwf	??_io_beep^(0+384)
  3124  1A8E  1903               	skipnz
  3125  1A8F  0391               	decf	(io_beep@period+1)^(0+384),f
  3126  1A90  0813               	movf	(??_io_beep+1)^(0+384),w
  3127  1A91  3A80               	xorlw	128
  3128  1A92  00FF               	movwf	btemp+1
  3129  1A93  3080               	movlw	128
  3130  1A94  027F               	subwf	btemp+1,w
  3131  1A95  1D03               	skipz
  3132  1A96  2A99               	goto	u6135
  3133  1A97  3001               	movlw	1
  3134  1A98  0212               	subwf	??_io_beep^(0+384),w
  3135  1A99                     u6135:
  3136  1A99  1803               	skipnc
  3137  1A9A  2A9C               	goto	u6131
  3138  1A9B  2A9D               	goto	u6130
  3139  1A9C                     u6131:
  3140  1A9C  2A6B               	goto	l227
  3141  1A9D                     u6130:
  3142  1A9D                     l229:
  3143  1A9D  0008               	return
  3144  1A9E                     __end_of_io_beep:
  3145                           
  3146                           	psect	text18
  3147  18F1                     __ptext18:	
  3148 ;; *************** function _debug_init *****************
  3149 ;; Defined at:
  3150 ;;		line 14 in file "debug.c"
  3151 ;; Parameters:    Size  Location     Type
  3152 ;;		None
  3153 ;; Auto vars:     Size  Location     Type
  3154 ;;		None
  3155 ;; Return value:  Size  Location     Type
  3156 ;;                  1    wreg      void 
  3157 ;; Registers used:
  3158 ;;		None
  3159 ;; Tracked objects:
  3160 ;;		On entry : 0/0
  3161 ;;		On exit  : 0/0
  3162 ;;		Unchanged: 0/0
  3163 ;; Data sizes:     COMMON   BANK0   BANK1   BANK3   BANK2
  3164 ;;      Params:         0       0       0       0       0
  3165 ;;      Locals:         0       0       0       0       0
  3166 ;;      Temps:          0       0       0       0       0
  3167 ;;      Totals:         0       0       0       0       0
  3168 ;;Total ram usage:        0 bytes
  3169 ;; Hardware stack levels used:    1
  3170 ;; Hardware stack levels required when called:    5
  3171 ;; This function calls:
  3172 ;;		Nothing
  3173 ;; This function is called by:
  3174 ;;		_main
  3175 ;; This function uses a non-reentrant model
  3176 ;;
  3177                           
  3178                           
  3179                           ;psect for function _debug_init
  3180  18F1                     _debug_init:
  3181  18F1                     l3699:	
  3182                           ;incstack = 0
  3183                           ; Regs used in _debug_init: []
  3184                           
  3185                           
  3186                           ;debug.c: 15: TRISA4 = 0;
  3187  18F1  1683               	bsf	3,5	;RP0=1, select bank1
  3188  18F2  1303               	bcf	3,6	;RP1=0, select bank1
  3189  18F3  1205               	bcf	5,4	;volatile
  3190                           
  3191                           ;debug.c: 16: TRISB2 = 0;
  3192  18F4  1106               	bcf	6,2	;volatile
  3193                           
  3194                           ;debug.c: 17: TRISB1 = 0;
  3195  18F5  1086               	bcf	6,1	;volatile
  3196                           
  3197                           ;debug.c: 19: ANS8 = 0;
  3198  18F6  1683               	bsf	3,5	;RP0=1, select bank3
  3199  18F7  1703               	bsf	3,6	;RP1=1, select bank3
  3200  18F8  1009               	bcf	9,0	;volatile
  3201                           
  3202                           ;debug.c: 20: ANS12 = 0;
  3203  18F9  1209               	bcf	9,4	;volatile
  3204  18FA                     l258:
  3205  18FA  0008               	return
  3206  18FB                     __end_of_debug_init:
  3207                           
  3208                           	psect	text19
  3209  081B                     __ptext19:	
  3210 ;; *************** function _isr *****************
  3211 ;; Defined at:
  3212 ;;		line 54 in file "main.c"
  3213 ;; Parameters:    Size  Location     Type
  3214 ;;		None
  3215 ;; Auto vars:     Size  Location     Type
  3216 ;;  portB           1   50[BANK1 ] unsigned char 
  3217 ;;  message         9   37[BANK1 ] unsigned char [9]
  3218 ;; Return value:  Size  Location     Type
  3219 ;;                  1    wreg      void 
  3220 ;; Registers used:
  3221 ;;		wreg, fsr0l, fsr0h, status,2, status,0, btemp+1, pclath, cstack
  3222 ;; Tracked objects:
  3223 ;;		On entry : 0/0
  3224 ;;		On exit  : 0/0
  3225 ;;		Unchanged: 0/0
  3226 ;; Data sizes:     COMMON   BANK0   BANK1   BANK3   BANK2
  3227 ;;      Params:         0       0       0       0       0
  3228 ;;      Locals:         0       0      14       0       0
  3229 ;;      Temps:          0       0       7       0       0
  3230 ;;      Totals:         0       0      21       0       0
  3231 ;;Total ram usage:       21 bytes
  3232 ;; Hardware stack levels used:    1
  3233 ;; Hardware stack levels required when called:    4
  3234 ;; This function calls:
  3235 ;;		___fldiv
  3236 ;;		___xxtofl
  3237 ;;		_debug_led_toggle
  3238 ;;		_io_sw_read
  3239 ;;		_sprintf
  3240 ;;		i1_lcd_goto
  3241 ;;		i1_lcd_puts
  3242 ;; This function is called by:
  3243 ;;		Interrupt level 1
  3244 ;; This function uses a non-reentrant model
  3245 ;;
  3246                           
  3247                           
  3248                           ;psect for function _isr
  3249  081B                     _isr:
  3250  081B                     i1l3987:
  3251                           
  3252                           ;main.c: 55: char message[9];;main.c: 58: if (T0IE && T0IF) {
  3253  081B  1E8B               	btfss	11,5	;volatile
  3254  081C  281E               	goto	u657_21
  3255  081D  281F               	goto	u657_20
  3256  081E                     u657_21:
  3257  081E  28B6               	goto	i1l4009
  3258  081F                     u657_20:
  3259  081F                     i1l3989:
  3260  081F  1D0B               	btfss	11,2	;volatile
  3261  0820  2822               	goto	u658_21
  3262  0821  2823               	goto	u658_20
  3263  0822                     u658_21:
  3264  0822  28B6               	goto	i1l4009
  3265  0823                     u658_20:
  3266  0823                     i1l3991:
  3267                           
  3268                           ;main.c: 60: if (contagem_interrupcoes_tmr0++ == 50) {
  3269  0823  3001               	movlw	1
  3270  0824  07E7               	addwf	_contagem_interrupcoes_tmr0^(0+128),f
  3271  0825  1803               	skipnc
  3272  0826  0AE8               	incf	(_contagem_interrupcoes_tmr0+1)^(0+128),f
  3273  0827  3000               	movlw	0
  3274  0828  07E8               	addwf	(_contagem_interrupcoes_tmr0+1)^(0+128),f
  3275  0829  3033               	movlw	51
  3276  082A  0667               	xorwf	_contagem_interrupcoes_tmr0^(0+128),w
  3277  082B  0468               	iorwf	(_contagem_interrupcoes_tmr0+1)^(0+128),w
  3278  082C  1D03               	btfss	3,2
  3279  082D  282F               	goto	u659_21
  3280  082E  2830               	goto	u659_20
  3281  082F                     u659_21:
  3282  082F  28B1               	goto	i1l4005
  3283  0830                     u659_20:
  3284  0830                     i1l3993:
  3285                           
  3286                           ;main.c: 63: sprintf(message, "%f", (contagem_pulsos - contagem_pulsos_anterior) / 0.5);
  3287  0830  303F               	movlw	63
  3288  0831  1283               	bcf	3,5	;RP0=0, select bank0
  3289  0832  1303               	bcf	3,6	;RP1=0, select bank0
  3290  0833  00A3               	movwf	___fldiv@a+3
  3291  0834  3000               	movlw	0
  3292  0835  00A2               	movwf	___fldiv@a+2
  3293  0836  3000               	movlw	0
  3294  0837  00A1               	movwf	___fldiv@a+1
  3295  0838  3000               	movlw	0
  3296  0839  00A0               	movwf	___fldiv@a
  3297  083A  1683               	bsf	3,5	;RP0=1, select bank1
  3298  083B  1303               	bcf	3,6	;RP1=0, select bank1
  3299  083C  0869               	movf	_contagem_pulsos_anterior^(0+128),w
  3300  083D  026B               	subwf	_contagem_pulsos^(0+128),w
  3301  083E  00F0               	movwf	___xxtofl@val
  3302  083F  086A               	movf	(_contagem_pulsos_anterior+1)^(0+128),w
  3303  0840  1C03               	skipc
  3304  0841  0A6A               	incf	(_contagem_pulsos_anterior+1)^(0+128),w
  3305  0842  026C               	subwf	(_contagem_pulsos+1)^(0+128),w
  3306  0843  00F1               	movwf	___xxtofl@val+1
  3307  0844  01F2               	clrf	___xxtofl@val+2
  3308  0845  1BF1               	btfsc	___xxtofl@val+1,7
  3309  0846  03F2               	decf	___xxtofl@val+2,f
  3310  0847  0872               	movf	___xxtofl@val+2,w
  3311  0848  00F3               	movwf	___xxtofl@val+3
  3312  0849  3001               	movlw	1
  3313  084A  160A  118A  2019  120A  158A  	fcall	___xxtofl
  3314  084F  0873               	movf	?___xxtofl+3,w
  3315  0850  1283               	bcf	3,5	;RP0=0, select bank0
  3316  0851  1303               	bcf	3,6	;RP1=0, select bank0
  3317  0852  00A7               	movwf	___fldiv@b+3
  3318  0853  0872               	movf	?___xxtofl+2,w
  3319  0854  00A6               	movwf	___fldiv@b+2
  3320  0855  0871               	movf	?___xxtofl+1,w
  3321  0856  00A5               	movwf	___fldiv@b+1
  3322  0857  0870               	movf	?___xxtofl,w
  3323  0858  00A4               	movwf	___fldiv@b
  3324  0859  160A  118A  2190  120A  158A  	fcall	___fldiv
  3325  085E  1283               	bcf	3,5	;RP0=0, select bank0
  3326  085F  1303               	bcf	3,6	;RP1=0, select bank0
  3327  0860  0823               	movf	?___fldiv+3,w
  3328  0861  1683               	bsf	3,5	;RP0=1, select bank1
  3329  0862  1303               	bcf	3,6	;RP1=0, select bank1
  3330  0863  00D1               	movwf	(_isr$972+3)^(0+128)
  3331  0864  1283               	bcf	3,5	;RP0=0, select bank0
  3332  0865  1303               	bcf	3,6	;RP1=0, select bank0
  3333  0866  0822               	movf	?___fldiv+2,w
  3334  0867  1683               	bsf	3,5	;RP0=1, select bank1
  3335  0868  1303               	bcf	3,6	;RP1=0, select bank1
  3336  0869  00D0               	movwf	(_isr$972+2)^(0+128)
  3337  086A  1283               	bcf	3,5	;RP0=0, select bank0
  3338  086B  1303               	bcf	3,6	;RP1=0, select bank0
  3339  086C  0821               	movf	?___fldiv+1,w
  3340  086D  1683               	bsf	3,5	;RP0=1, select bank1
  3341  086E  1303               	bcf	3,6	;RP1=0, select bank1
  3342  086F  00CF               	movwf	(_isr$972+1)^(0+128)
  3343  0870  1283               	bcf	3,5	;RP0=0, select bank0
  3344  0871  1303               	bcf	3,6	;RP1=0, select bank0
  3345  0872  0820               	movf	?___fldiv,w
  3346  0873  1683               	bsf	3,5	;RP0=1, select bank1
  3347  0874  1303               	bcf	3,6	;RP1=0, select bank1
  3348  0875  00CE               	movwf	_isr$972^(0+128)
  3349  0876                     i1l3995:
  3350                           
  3351                           ;main.c: 63: sprintf(message, "%f", (contagem_pulsos - contagem_pulsos_anterior) / 0.5);
  3352  0876  309E               	movlw	(low ((STR_1-__stringbase)| (0+32768)))& (0+255)
  3353  0877  00FF               	movwf	btemp+1
  3354  0878  087F               	movf	btemp+1,w
  3355  0879  1283               	bcf	3,5	;RP0=0, select bank0
  3356  087A  1303               	bcf	3,6	;RP1=0, select bank0
  3357  087B  00EA               	movwf	sprintf@f
  3358  087C  1683               	bsf	3,5	;RP0=1, select bank1
  3359  087D  1303               	bcf	3,6	;RP1=0, select bank1
  3360  087E  0851               	movf	(_isr$972+3)^(0+128),w
  3361  087F  1283               	bcf	3,5	;RP0=0, select bank0
  3362  0880  1303               	bcf	3,6	;RP1=0, select bank0
  3363  0881  00EE               	movwf	?_sprintf+4
  3364  0882  1683               	bsf	3,5	;RP0=1, select bank1
  3365  0883  1303               	bcf	3,6	;RP1=0, select bank1
  3366  0884  0850               	movf	(_isr$972+2)^(0+128),w
  3367  0885  1283               	bcf	3,5	;RP0=0, select bank0
  3368  0886  1303               	bcf	3,6	;RP1=0, select bank0
  3369  0887  00ED               	movwf	?_sprintf+3
  3370  0888  1683               	bsf	3,5	;RP0=1, select bank1
  3371  0889  1303               	bcf	3,6	;RP1=0, select bank1
  3372  088A  084F               	movf	(_isr$972+1)^(0+128),w
  3373  088B  1283               	bcf	3,5	;RP0=0, select bank0
  3374  088C  1303               	bcf	3,6	;RP1=0, select bank0
  3375  088D  00EC               	movwf	?_sprintf+2
  3376  088E  1683               	bsf	3,5	;RP0=1, select bank1
  3377  088F  1303               	bcf	3,6	;RP1=0, select bank1
  3378  0890  084E               	movf	_isr$972^(0+128),w
  3379  0891  1283               	bcf	3,5	;RP0=0, select bank0
  3380  0892  1303               	bcf	3,6	;RP1=0, select bank0
  3381  0893  00EB               	movwf	?_sprintf+1
  3382  0894  30C5               	movlw	(low (isr@message| 0))& (0+255)
  3383  0895  120A  118A  202F  120A  158A  	fcall	_sprintf
  3384  089A                     i1l3997:
  3385                           
  3386                           ;main.c: 64: lcd_goto(64);
  3387  089A  3040               	movlw	64
  3388  089B  160A  158A  2112  120A  158A  	fcall	i1_lcd_goto
  3389  08A0                     i1l3999:
  3390                           
  3391                           ;main.c: 65: lcd_puts(message);
  3392  08A0  30C5               	movlw	(low (isr@message| 0))& (0+255)
  3393  08A1  00F4               	movwf	i1lcd_puts@s
  3394  08A2  3000               	movlw	0
  3395  08A3  00F5               	movwf	i1lcd_puts@s+1
  3396  08A4  160A  158A  223F  120A  158A  	fcall	i1_lcd_puts
  3397  08A9                     i1l4001:
  3398                           
  3399                           ;main.c: 67: contagem_pulsos_anterior = contagem_pulsos;
  3400  08A9  1683               	bsf	3,5	;RP0=1, select bank1
  3401  08AA  1303               	bcf	3,6	;RP1=0, select bank1
  3402  08AB  086C               	movf	(_contagem_pulsos+1)^(0+128),w
  3403  08AC  00EA               	movwf	(_contagem_pulsos_anterior+1)^(0+128)
  3404  08AD  086B               	movf	_contagem_pulsos^(0+128),w
  3405  08AE  00E9               	movwf	_contagem_pulsos_anterior^(0+128)
  3406  08AF                     i1l4003:
  3407                           
  3408                           ;main.c: 68: contagem_interrupcoes_tmr0 = 0;
  3409  08AF  01E7               	clrf	_contagem_interrupcoes_tmr0^(0+128)
  3410  08B0  01E8               	clrf	(_contagem_interrupcoes_tmr0+1)^(0+128)
  3411  08B1                     i1l4005:
  3412                           
  3413                           ;main.c: 69: };main.c: 71: TMR0 = 255 - 195;
  3414  08B1  303C               	movlw	60
  3415  08B2  1283               	bcf	3,5	;RP0=0, select bank0
  3416  08B3  1303               	bcf	3,6	;RP1=0, select bank0
  3417  08B4  0081               	movwf	1	;volatile
  3418  08B5                     i1l4007:
  3419                           
  3420                           ;main.c: 72: T0IF = 0;
  3421  08B5  110B               	bcf	11,2	;volatile
  3422  08B6                     i1l4009:
  3423                           
  3424                           ;main.c: 73: };main.c: 76: if (RBIE && RBIF) {
  3425  08B6  1D8B               	btfss	11,3	;volatile
  3426  08B7  28B9               	goto	u660_21
  3427  08B8  28BA               	goto	u660_20
  3428  08B9                     u660_21:
  3429  08B9  292F               	goto	i1l165
  3430  08BA                     u660_20:
  3431  08BA                     i1l4011:
  3432  08BA  1C0B               	btfss	11,0	;volatile
  3433  08BB  28BD               	goto	u661_21
  3434  08BC  28BE               	goto	u661_20
  3435  08BD                     u661_21:
  3436  08BD  292F               	goto	i1l165
  3437  08BE                     u661_20:
  3438  08BE                     i1l4013:
  3439                           
  3440                           ;main.c: 78: char portB = PORTB;
  3441  08BE  1283               	bcf	3,5	;RP0=0, select bank0
  3442  08BF  0806               	movf	6,w	;volatile
  3443  08C0  00FF               	movwf	btemp+1
  3444  08C1  087F               	movf	btemp+1,w
  3445  08C2  1683               	bsf	3,5	;RP0=1, select bank1
  3446  08C3  1303               	bcf	3,6	;RP1=0, select bank1
  3447  08C4  00D2               	movwf	isr@portB^(0+128)
  3448  08C5                     i1l4015:
  3449                           
  3450                           ;main.c: 80: io_sw_read(portB);
  3451  08C5  0852               	movf	isr@portB^(0+128),w
  3452  08C6  160A  158A  21AD  120A  158A  	fcall	_io_sw_read
  3453  08CB                     i1l4017:
  3454                           
  3455                           ;main.c: 81: debug_led_toggle(1);
  3456  08CB  3001               	movlw	1
  3457  08CC  160A  158A  216F  120A  158A  	fcall	_debug_led_toggle
  3458  08D1                     i1l4019:
  3459                           
  3460                           ;main.c: 83: estado_atual = (portB & 0b00011000) >> 3;
  3461  08D1  1683               	bsf	3,5	;RP0=1, select bank1
  3462  08D2  1303               	bcf	3,6	;RP1=0, select bank1
  3463  08D3  0852               	movf	isr@portB^(0+128),w
  3464  08D4  00BE               	movwf	??_isr^(0+128)
  3465  08D5  3003               	movlw	3
  3466  08D6                     u662_25:
  3467  08D6  1003               	clrc
  3468  08D7  0CBE               	rrf	??_isr^(0+128),f
  3469  08D8  3EFF               	addlw	-1
  3470  08D9  1D03               	skipz
  3471  08DA  28D6               	goto	u662_25
  3472  08DB  083E               	movf	??_isr^(0+128),w
  3473  08DC  3903               	andlw	3
  3474  08DD  00BF               	movwf	(??_isr+1)^(0+128)
  3475  08DE  01C0               	clrf	((??_isr+1)^(0+128)+1)
  3476  08DF  083F               	movf	(??_isr+1)^(0+128),w
  3477  08E0  00E5               	movwf	_estado_atual^(0+128)
  3478  08E1  0840               	movf	(??_isr+2)^(0+128),w
  3479  08E2  00E6               	movwf	(_estado_atual+1)^(0+128)
  3480  08E3                     i1l4021:
  3481                           
  3482                           ;main.c: 84: direcao = matrizTransicaoEstados[estado_anterior][estado_atual];
  3483  08E3  0863               	movf	_estado_anterior^(0+128),w
  3484  08E4  00BE               	movwf	??_isr^(0+128)
  3485  08E5  3002               	movlw	2
  3486  08E6                     u663_25:
  3487  08E6  1003               	clrc
  3488  08E7  0DBE               	rlf	??_isr^(0+128),f
  3489  08E8  3EFF               	addlw	-1
  3490  08E9  1D03               	skipz
  3491  08EA  28E6               	goto	u663_25
  3492  08EB  30D3               	movlw	(low (_matrizTransicaoEstados| 0))& (0+255)
  3493  08EC  073E               	addwf	??_isr^(0+128),w
  3494  08ED  00BF               	movwf	(??_isr+1)^(0+128)
  3495  08EE  0865               	movf	_estado_atual^(0+128),w
  3496  08EF  073F               	addwf	(??_isr+1)^(0+128),w
  3497  08F0  00C0               	movwf	(??_isr+2)^(0+128)
  3498  08F1  0840               	movf	(??_isr+2)^(0+128),w
  3499  08F2  0084               	movwf	4
  3500  08F3  1383               	bcf	3,7	;select IRP bank1
  3501  08F4  0800               	movf	0,w
  3502  08F5  00FF               	movwf	btemp+1
  3503  08F6  087F               	movf	btemp+1,w
  3504  08F7  00ED               	movwf	_direcao^(0+128)
  3505  08F8                     i1l4023:
  3506                           
  3507                           ;main.c: 85: estado_anterior = estado_atual;
  3508  08F8  0866               	movf	(_estado_atual+1)^(0+128),w
  3509  08F9  00E4               	movwf	(_estado_anterior+1)^(0+128)
  3510  08FA  0865               	movf	_estado_atual^(0+128),w
  3511  08FB  00E3               	movwf	_estado_anterior^(0+128)
  3512  08FC                     i1l4025:
  3513                           
  3514                           ;main.c: 87: contagem_pulsos += direcao;
  3515  08FC  086D               	movf	_direcao^(0+128),w
  3516  08FD  00BE               	movwf	??_isr^(0+128)
  3517  08FE  01BF               	clrf	(??_isr^(0+128)+1)
  3518  08FF  1BBE               	btfsc	??_isr^(0+128),7
  3519  0900  03BF               	decf	(??_isr^(0+128)+1),f
  3520  0901  083E               	movf	??_isr^(0+128),w
  3521  0902  07EB               	addwf	_contagem_pulsos^(0+128),f
  3522  0903  1803               	skipnc
  3523  0904  0AEC               	incf	(_contagem_pulsos+1)^(0+128),f
  3524  0905  083F               	movf	(??_isr+1)^(0+128),w
  3525  0906  07EC               	addwf	(_contagem_pulsos+1)^(0+128),f
  3526  0907                     i1l4027:
  3527                           
  3528                           ;main.c: 89: sprintf(message, "%d", contagem_pulsos);
  3529  0907  309B               	movlw	(low ((STR_2-__stringbase)| (0+32768)))& (0+255)
  3530  0908  00FF               	movwf	btemp+1
  3531  0909  087F               	movf	btemp+1,w
  3532  090A  1283               	bcf	3,5	;RP0=0, select bank0
  3533  090B  1303               	bcf	3,6	;RP1=0, select bank0
  3534  090C  00EA               	movwf	sprintf@f
  3535  090D  1683               	bsf	3,5	;RP0=1, select bank1
  3536  090E  1303               	bcf	3,6	;RP1=0, select bank1
  3537  090F  086C               	movf	(_contagem_pulsos+1)^(0+128),w
  3538  0910  1283               	bcf	3,5	;RP0=0, select bank0
  3539  0911  1303               	bcf	3,6	;RP1=0, select bank0
  3540  0912  00EC               	movwf	?_sprintf+2
  3541  0913  1683               	bsf	3,5	;RP0=1, select bank1
  3542  0914  1303               	bcf	3,6	;RP1=0, select bank1
  3543  0915  086B               	movf	_contagem_pulsos^(0+128),w
  3544  0916  1283               	bcf	3,5	;RP0=0, select bank0
  3545  0917  1303               	bcf	3,6	;RP1=0, select bank0
  3546  0918  00EB               	movwf	?_sprintf+1
  3547  0919  30C5               	movlw	(low (isr@message| 0))& (0+255)
  3548  091A  120A  118A  202F  120A  158A  	fcall	_sprintf
  3549  091F                     i1l4029:
  3550                           
  3551                           ;main.c: 90: lcd_goto(0);
  3552  091F  3000               	movlw	0
  3553  0920  160A  158A  2112  120A  158A  	fcall	i1_lcd_goto
  3554  0925                     i1l4031:
  3555                           
  3556                           ;main.c: 91: lcd_puts(message);
  3557  0925  30C5               	movlw	(low (isr@message| 0))& (0+255)
  3558  0926  00F4               	movwf	i1lcd_puts@s
  3559  0927  3000               	movlw	0
  3560  0928  00F5               	movwf	i1lcd_puts@s+1
  3561  0929  160A  158A  223F  120A  158A  	fcall	i1_lcd_puts
  3562  092E                     i1l4033:
  3563                           
  3564                           ;main.c: 93: RBIF = 0;
  3565  092E  100B               	bcf	11,0	;volatile
  3566  092F                     i1l165:
  3567  092F  1683               	bsf	3,5	;RP0=1, select bank1
  3568  0930  1303               	bcf	3,6	;RP1=0, select bank1
  3569  0931  0844               	movf	(??_isr+6)^(0+128),w
  3570  0932  1283               	bcf	3,5	;RP0=0, select bank0
  3571  0933  1303               	bcf	3,6	;RP1=0, select bank0
  3572  0934  00FF               	movwf	btemp+1
  3573  0935  1683               	bsf	3,5	;RP0=1, select bank1
  3574  0936  1303               	bcf	3,6	;RP1=0, select bank1
  3575  0937  0843               	movf	(??_isr+5)^(0+128),w
  3576  0938  008A               	movwf	10
  3577  0939  0842               	movf	(??_isr+4)^(0+128),w
  3578  093A  0084               	movwf	4
  3579  093B  0E41               	swapf	(??_isr+3)^(0+128),w
  3580  093C  0083               	movwf	3
  3581  093D  0EFE               	swapf	btemp,f
  3582  093E  0E7E               	swapf	btemp,w
  3583  093F  0009               	retfie
  3584  0940                     __end_of_isr:
  3585                           
  3586                           	psect	intentry
  3587  0004                     __pintentry:	
  3588                           ;incstack = 0
  3589                           ; Regs used in _isr: [wreg-fsr0h+status,2+status,0+btemp+1+pclath+cstack]
  3590                           
  3591  0004                     interrupt_function:
  3592  007E                     saved_w	set	btemp
  3593  0004  00FE               	movwf	btemp
  3594  0005  0E03               	swapf	3,w
  3595  0006  1683               	bsf	3,5	;RP0=1, select bank1
  3596  0007  1303               	bcf	3,6	;RP1=0, select bank1
  3597  0008  00C1               	movwf	(??_isr+3)^(0+128)
  3598  0009  0804               	movf	4,w
  3599  000A  00C2               	movwf	(??_isr+4)^(0+128)
  3600  000B  080A               	movf	10,w
  3601  000C  00C3               	movwf	(??_isr+5)^(0+128)
  3602  000D  1283               	bcf	3,5	;RP0=0, select bank0
  3603  000E  1303               	bcf	3,6	;RP1=0, select bank0
  3604  000F  087F               	movf	btemp+1,w
  3605  0010  1683               	bsf	3,5	;RP0=1, select bank1
  3606  0011  1303               	bcf	3,6	;RP1=0, select bank1
  3607  0012  00C4               	movwf	(??_isr+6)^(0+128)
  3608  0013  120A  158A  281B   	ljmp	_isr
  3609                           
  3610                           	psect	text20
  3611  1A3F                     __ptext20:	
  3612 ;; *************** function i1_lcd_puts *****************
  3613 ;; Defined at:
  3614 ;;		line 52 in file "lcd.c"
  3615 ;; Parameters:    Size  Location     Type
  3616 ;;  s               2    4[COMMON] PTR const unsigned char 
  3617 ;;		 -> STR_3(10), isr@message(9), 
  3618 ;; Auto vars:     Size  Location     Type
  3619 ;;		None
  3620 ;; Return value:  Size  Location     Type
  3621 ;;                  1    wreg      void 
  3622 ;; Registers used:
  3623 ;;		wreg, fsr0l, fsr0h, status,2, status,0, btemp+1, pclath, cstack
  3624 ;; Tracked objects:
  3625 ;;		On entry : 0/0
  3626 ;;		On exit  : 0/0
  3627 ;;		Unchanged: 0/0
  3628 ;; Data sizes:     COMMON   BANK0   BANK1   BANK3   BANK2
  3629 ;;      Params:         2       0       0       0       0
  3630 ;;      Locals:         0       0       0       0       0
  3631 ;;      Temps:          0       0       0       0       0
  3632 ;;      Totals:         2       0       0       0       0
  3633 ;;Total ram usage:        2 bytes
  3634 ;; Hardware stack levels used:    1
  3635 ;; Hardware stack levels required when called:    2
  3636 ;; This function calls:
  3637 ;;		i1_LCD_RS_SetHigh
  3638 ;;		i1_lcd_write
  3639 ;; This function is called by:
  3640 ;;		_isr
  3641 ;; This function uses a non-reentrant model
  3642 ;;
  3643                           
  3644                           
  3645                           ;psect for function i1_lcd_puts
  3646  1A3F                     i1_lcd_puts:
  3647  1A3F                     i1l3867:	
  3648                           ;incstack = 0
  3649                           ; Regs used in i1_lcd_puts: [wreg-fsr0h+status,2+status,0+btemp+1+pclath+cstack]
  3650                           
  3651                           
  3652                           ;lcd.c: 53: LCD_RS_SetHigh();
  3653  1A3F  160A  158A  20D4  160A  158A  	fcall	i1_LCD_RS_SetHigh
  3654                           
  3655                           ;lcd.c: 54: while(*s)
  3656  1A44  2A59               	goto	i1l3873
  3657  1A45                     i1l3869:
  3658                           
  3659                           ;lcd.c: 55: lcd_write(*s++);
  3660  1A45  0875               	movf	i1lcd_puts@s+1,w
  3661  1A46  00FF               	movwf	btemp+1
  3662  1A47  0874               	movf	i1lcd_puts@s,w
  3663  1A48  0084               	movwf	4
  3664  1A49  160A  158A  2000  160A  158A  	fcall	stringtab
  3665  1A4E  160A  158A  2154  160A  158A  	fcall	i1_lcd_write
  3666  1A53                     i1l3871:
  3667  1A53  3001               	movlw	1
  3668  1A54  07F4               	addwf	i1lcd_puts@s,f
  3669  1A55  1803               	skipnc
  3670  1A56  0AF5               	incf	i1lcd_puts@s+1,f
  3671  1A57  3000               	movlw	0
  3672  1A58  07F5               	addwf	i1lcd_puts@s+1,f
  3673  1A59                     i1l3873:
  3674  1A59  0875               	movf	i1lcd_puts@s+1,w
  3675  1A5A  1283               	bcf	3,5	;RP0=0, select bank0
  3676  1A5B  1303               	bcf	3,6	;RP1=0, select bank0
  3677  1A5C  00FF               	movwf	btemp+1
  3678  1A5D  0874               	movf	i1lcd_puts@s,w
  3679  1A5E  0084               	movwf	4
  3680  1A5F  160A  158A  2000  160A  158A  	fcall	stringtab
  3681  1A64  3A00               	xorlw	0
  3682  1A65  1D03               	skipz
  3683  1A66  2A68               	goto	u644_21
  3684  1A67  2A69               	goto	u644_20
  3685  1A68                     u644_21:
  3686  1A68  2A45               	goto	i1l3869
  3687  1A69                     u644_20:
  3688  1A69                     i1l57:
  3689  1A69  0008               	return
  3690  1A6A                     __end_ofi1_lcd_puts:
  3691                           
  3692                           	psect	text21
  3693  18D4                     __ptext21:	
  3694 ;; *************** function i1_LCD_RS_SetHigh *****************
  3695 ;; Defined at:
  3696 ;;		line 24 in file "lcd.c"
  3697 ;; Parameters:    Size  Location     Type
  3698 ;;		None
  3699 ;; Auto vars:     Size  Location     Type
  3700 ;;		None
  3701 ;; Return value:  Size  Location     Type
  3702 ;;                  1    wreg      void 
  3703 ;; Registers used:
  3704 ;;		None
  3705 ;; Tracked objects:
  3706 ;;		On entry : 0/0
  3707 ;;		On exit  : 0/0
  3708 ;;		Unchanged: 0/0
  3709 ;; Data sizes:     COMMON   BANK0   BANK1   BANK3   BANK2
  3710 ;;      Params:         0       0       0       0       0
  3711 ;;      Locals:         0       0       0       0       0
  3712 ;;      Temps:          0       0       0       0       0
  3713 ;;      Totals:         0       0       0       0       0
  3714 ;;Total ram usage:        0 bytes
  3715 ;; Hardware stack levels used:    1
  3716 ;; This function calls:
  3717 ;;		Nothing
  3718 ;; This function is called by:
  3719 ;;		i1_lcd_puts
  3720 ;; This function uses a non-reentrant model
  3721 ;;
  3722                           
  3723                           
  3724                           ;psect for function i1_LCD_RS_SetHigh
  3725  18D4                     i1_LCD_RS_SetHigh:
  3726  18D4                     i1l3383:	
  3727                           ;incstack = 0
  3728                           ; Regs used in i1_LCD_RS_SetHigh: []
  3729                           
  3730  18D4  1283               	bcf	3,5	;RP0=0, select bank0
  3731  18D5  1303               	bcf	3,6	;RP1=0, select bank0
  3732  18D6  1505               	bsf	5,2	;volatile
  3733  18D7                     i1l36:
  3734  18D7  0008               	return
  3735  18D8                     __end_ofi1_LCD_RS_SetHigh:
  3736                           
  3737                           	psect	text22
  3738  1912                     __ptext22:	
  3739 ;; *************** function i1_lcd_goto *****************
  3740 ;; Defined at:
  3741 ;;		line 59 in file "lcd.c"
  3742 ;; Parameters:    Size  Location     Type
  3743 ;;  pos             1    wreg     unsigned char 
  3744 ;; Auto vars:     Size  Location     Type
  3745 ;;  pos             1    4[COMMON] unsigned char 
  3746 ;; Return value:  Size  Location     Type
  3747 ;;                  1    wreg      void 
  3748 ;; Registers used:
  3749 ;;		wreg, status,2, status,0, pclath, cstack
  3750 ;; Tracked objects:
  3751 ;;		On entry : 0/0
  3752 ;;		On exit  : 0/0
  3753 ;;		Unchanged: 0/0
  3754 ;; Data sizes:     COMMON   BANK0   BANK1   BANK3   BANK2
  3755 ;;      Params:         0       0       0       0       0
  3756 ;;      Locals:         1       0       0       0       0
  3757 ;;      Temps:          0       0       0       0       0
  3758 ;;      Totals:         1       0       0       0       0
  3759 ;;Total ram usage:        1 bytes
  3760 ;; Hardware stack levels used:    1
  3761 ;; Hardware stack levels required when called:    2
  3762 ;; This function calls:
  3763 ;;		i1_LCD_RS_SetLow
  3764 ;;		i1_lcd_write
  3765 ;; This function is called by:
  3766 ;;		_isr
  3767 ;; This function uses a non-reentrant model
  3768 ;;
  3769                           
  3770                           
  3771                           ;psect for function i1_lcd_goto
  3772  1912                     i1_lcd_goto:
  3773                           
  3774                           ;incstack = 0
  3775                           ; Regs used in i1_lcd_goto: [wreg+status,2+status,0+pclath+cstack]
  3776                           ;i1lcd_goto@pos stored from wreg
  3777  1912  00F4               	movwf	i1lcd_goto@pos
  3778  1913                     i1l3875:
  3779                           
  3780                           ;lcd.c: 60: LCD_RS_SetLow();
  3781  1913  160A  158A  20D0  160A  158A  	fcall	i1_LCD_RS_SetLow
  3782  1918                     i1l3877:
  3783                           
  3784                           ;lcd.c: 61: lcd_write(0x80 + pos);
  3785  1918  0874               	movf	i1lcd_goto@pos,w
  3786  1919  3E80               	addlw	128
  3787  191A  160A  158A  2154  160A  158A  	fcall	i1_lcd_write
  3788  191F                     i1l60:
  3789  191F  0008               	return
  3790  1920                     __end_ofi1_lcd_goto:
  3791                           
  3792                           	psect	text23
  3793  1954                     __ptext23:	
  3794 ;; *************** function i1_lcd_write *****************
  3795 ;; Defined at:
  3796 ;;		line 38 in file "lcd.c"
  3797 ;; Parameters:    Size  Location     Type
  3798 ;;  c               1    wreg     unsigned char 
  3799 ;; Auto vars:     Size  Location     Type
  3800 ;;  c               1    3[COMMON] unsigned char 
  3801 ;; Return value:  Size  Location     Type
  3802 ;;                  1    wreg      void 
  3803 ;; Registers used:
  3804 ;;		wreg, status,2, status,0, pclath, cstack
  3805 ;; Tracked objects:
  3806 ;;		On entry : 0/0
  3807 ;;		On exit  : 0/0
  3808 ;;		Unchanged: 0/0
  3809 ;; Data sizes:     COMMON   BANK0   BANK1   BANK3   BANK2
  3810 ;;      Params:         0       0       0       0       0
  3811 ;;      Locals:         1       0       0       0       0
  3812 ;;      Temps:          1       0       0       0       0
  3813 ;;      Totals:         2       0       0       0       0
  3814 ;;Total ram usage:        2 bytes
  3815 ;; Hardware stack levels used:    1
  3816 ;; Hardware stack levels required when called:    1
  3817 ;; This function calls:
  3818 ;;		i1_lcd_write_nibble
  3819 ;; This function is called by:
  3820 ;;		i1_lcd_puts
  3821 ;;		i1_lcd_goto
  3822 ;; This function uses a non-reentrant model
  3823 ;;
  3824                           
  3825                           
  3826                           ;psect for function i1_lcd_write
  3827  1954                     i1_lcd_write:
  3828                           
  3829                           ;incstack = 0
  3830                           ; Regs used in i1_lcd_write: [wreg+status,2+status,0+pclath+cstack]
  3831                           ;i1lcd_write@c stored from wreg
  3832  1954  00F3               	movwf	i1lcd_write@c
  3833  1955                     i1l3385:
  3834                           
  3835                           ;lcd.c: 39: lcd_write_nibble(c >> 4);
  3836  1955  0873               	movf	i1lcd_write@c,w
  3837  1956  00F2               	movwf	??i1_lcd_write
  3838  1957  3004               	movlw	4
  3839  1958                     u571_25:
  3840  1958  1003               	clrc
  3841  1959  0CF2               	rrf	??i1_lcd_write,f
  3842  195A  3EFF               	addlw	-1
  3843  195B  1D03               	skipz
  3844  195C  2958               	goto	u571_25
  3845  195D  0872               	movf	??i1_lcd_write,w
  3846  195E  160A  158A  2357  160A  158A  	fcall	i1_lcd_write_nibble
  3847                           
  3848                           ;lcd.c: 40: lcd_write_nibble(c);
  3849  1963  0873               	movf	i1lcd_write@c,w
  3850  1964  160A  158A  2357  160A  158A  	fcall	i1_lcd_write_nibble
  3851  1969                     i1l3387:
  3852                           
  3853                           ;lcd.c: 41: _delay((unsigned long)((40)*(20000000/4000000.0)));
  3854  1969  3042               	movlw	66
  3855  196A  00F2               	movwf	??i1_lcd_write
  3856  196B                     u672_27:
  3857  196B  0BF2               	decfsz	??i1_lcd_write,f
  3858  196C  296B               	goto	u672_27
  3859  196D  0000               	nop
  3860  196E                     i1l48:
  3861  196E  0008               	return
  3862  196F                     __end_ofi1_lcd_write:
  3863                           
  3864                           	psect	text24
  3865  1B57                     __ptext24:	
  3866 ;; *************** function i1_lcd_write_nibble *****************
  3867 ;; Defined at:
  3868 ;;		line 28 in file "lcd.c"
  3869 ;; Parameters:    Size  Location     Type
  3870 ;;  c               1    wreg     unsigned char 
  3871 ;; Auto vars:     Size  Location     Type
  3872 ;;  c               1    1[COMMON] unsigned char 
  3873 ;; Return value:  Size  Location     Type
  3874 ;;                  1    wreg      void 
  3875 ;; Registers used:
  3876 ;;		wreg, status,2, status,0
  3877 ;; Tracked objects:
  3878 ;;		On entry : 0/0
  3879 ;;		On exit  : 0/0
  3880 ;;		Unchanged: 0/0
  3881 ;; Data sizes:     COMMON   BANK0   BANK1   BANK3   BANK2
  3882 ;;      Params:         0       0       0       0       0
  3883 ;;      Locals:         1       0       0       0       0
  3884 ;;      Temps:          1       0       0       0       0
  3885 ;;      Totals:         2       0       0       0       0
  3886 ;;Total ram usage:        2 bytes
  3887 ;; Hardware stack levels used:    1
  3888 ;; This function calls:
  3889 ;;		Nothing
  3890 ;; This function is called by:
  3891 ;;		i1_lcd_write
  3892 ;; This function uses a non-reentrant model
  3893 ;;
  3894                           
  3895                           
  3896                           ;psect for function i1_lcd_write_nibble
  3897  1B57                     i1_lcd_write_nibble:
  3898                           
  3899                           ;incstack = 0
  3900                           ; Regs used in i1_lcd_write_nibble: [wreg+status,2+status,0]
  3901                           ;i1lcd_write_nibble@c stored from wreg
  3902  1B57  00F1               	movwf	i1lcd_write_nibble@c
  3903  1B58                     i1l2995:
  3904                           
  3905                           ;lcd.c: 29: RC0 = (c & 0b00000001) >> 0;
  3906  1B58  1871               	btfsc	i1lcd_write_nibble@c,0
  3907  1B59  2B5B               	goto	u456_21
  3908  1B5A  2B5F               	goto	u456_20
  3909  1B5B                     u456_21:
  3910  1B5B  1283               	bcf	3,5	;RP0=0, select bank0
  3911  1B5C  1303               	bcf	3,6	;RP1=0, select bank0
  3912  1B5D  1407               	bsf	7,0	;volatile
  3913  1B5E  2B62               	goto	u457_24
  3914  1B5F                     u456_20:
  3915  1B5F  1283               	bcf	3,5	;RP0=0, select bank0
  3916  1B60  1303               	bcf	3,6	;RP1=0, select bank0
  3917  1B61  1007               	bcf	7,0	;volatile
  3918  1B62                     u457_24:
  3919  1B62                     i1l2997:
  3920                           
  3921                           ;lcd.c: 30: RC3 = (c & 0b00000010) >> 1;
  3922  1B62  0871               	movf	i1lcd_write_nibble@c,w
  3923  1B63  00F0               	movwf	??i1_lcd_write_nibble
  3924  1B64  3001               	movlw	1
  3925  1B65                     u458_25:
  3926  1B65  1003               	clrc
  3927  1B66  0CF0               	rrf	??i1_lcd_write_nibble,f
  3928  1B67  3EFF               	addlw	-1
  3929  1B68  1D03               	skipz
  3930  1B69  2B65               	goto	u458_25
  3931  1B6A  1870               	btfsc	??i1_lcd_write_nibble,0
  3932  1B6B  2B6D               	goto	u459_21
  3933  1B6C  2B71               	goto	u459_20
  3934  1B6D                     u459_21:
  3935  1B6D  1283               	bcf	3,5	;RP0=0, select bank0
  3936  1B6E  1303               	bcf	3,6	;RP1=0, select bank0
  3937  1B6F  1587               	bsf	7,3	;volatile
  3938  1B70  2B74               	goto	u460_24
  3939  1B71                     u459_20:
  3940  1B71  1283               	bcf	3,5	;RP0=0, select bank0
  3941  1B72  1303               	bcf	3,6	;RP1=0, select bank0
  3942  1B73  1187               	bcf	7,3	;volatile
  3943  1B74                     u460_24:
  3944                           
  3945                           ;lcd.c: 31: RC4 = (c & 0b00000100) >> 2;
  3946  1B74  0871               	movf	i1lcd_write_nibble@c,w
  3947  1B75  00F0               	movwf	??i1_lcd_write_nibble
  3948  1B76  3002               	movlw	2
  3949  1B77                     u461_25:
  3950  1B77  1003               	clrc
  3951  1B78  0CF0               	rrf	??i1_lcd_write_nibble,f
  3952  1B79  3EFF               	addlw	-1
  3953  1B7A  1D03               	skipz
  3954  1B7B  2B77               	goto	u461_25
  3955  1B7C  1870               	btfsc	??i1_lcd_write_nibble,0
  3956  1B7D  2B7F               	goto	u462_21
  3957  1B7E  2B83               	goto	u462_20
  3958  1B7F                     u462_21:
  3959  1B7F  1283               	bcf	3,5	;RP0=0, select bank0
  3960  1B80  1303               	bcf	3,6	;RP1=0, select bank0
  3961  1B81  1607               	bsf	7,4	;volatile
  3962  1B82  2B86               	goto	u463_24
  3963  1B83                     u462_20:
  3964  1B83  1283               	bcf	3,5	;RP0=0, select bank0
  3965  1B84  1303               	bcf	3,6	;RP1=0, select bank0
  3966  1B85  1207               	bcf	7,4	;volatile
  3967  1B86                     u463_24:
  3968                           
  3969                           ;lcd.c: 32: RC5 = (c & 0b00001000) >> 3;
  3970  1B86  0871               	movf	i1lcd_write_nibble@c,w
  3971  1B87  00F0               	movwf	??i1_lcd_write_nibble
  3972  1B88  3003               	movlw	3
  3973  1B89                     u464_25:
  3974  1B89  1003               	clrc
  3975  1B8A  0CF0               	rrf	??i1_lcd_write_nibble,f
  3976  1B8B  3EFF               	addlw	-1
  3977  1B8C  1D03               	skipz
  3978  1B8D  2B89               	goto	u464_25
  3979  1B8E  1870               	btfsc	??i1_lcd_write_nibble,0
  3980  1B8F  2B91               	goto	u465_21
  3981  1B90  2B95               	goto	u465_20
  3982  1B91                     u465_21:
  3983  1B91  1283               	bcf	3,5	;RP0=0, select bank0
  3984  1B92  1303               	bcf	3,6	;RP1=0, select bank0
  3985  1B93  1687               	bsf	7,5	;volatile
  3986  1B94  2B98               	goto	u466_24
  3987  1B95                     u465_20:
  3988  1B95  1283               	bcf	3,5	;RP0=0, select bank0
  3989  1B96  1303               	bcf	3,6	;RP1=0, select bank0
  3990  1B97  1287               	bcf	7,5	;volatile
  3991  1B98                     u466_24:
  3992  1B98                     i1l2999:
  3993                           
  3994                           ;lcd.c: 34: ((RB0 = 1),(RB0 = 1),(RB0 = 1),(RB0 = 0));
  3995  1B98  1406               	bsf	6,0	;volatile
  3996  1B99                     i1l3001:
  3997  1B99  1406               	bsf	6,0	;volatile
  3998  1B9A                     i1l3003:
  3999  1B9A  1406               	bsf	6,0	;volatile
  4000  1B9B                     i1l3005:
  4001  1B9B  1006               	bcf	6,0	;volatile
  4002  1B9C                     i1l45:
  4003  1B9C  0008               	return
  4004  1B9D                     __end_ofi1_lcd_write_nibble:
  4005                           
  4006                           	psect	text25
  4007  18D0                     __ptext25:	
  4008 ;; *************** function i1_LCD_RS_SetLow *****************
  4009 ;; Defined at:
  4010 ;;		line 23 in file "lcd.c"
  4011 ;; Parameters:    Size  Location     Type
  4012 ;;		None
  4013 ;; Auto vars:     Size  Location     Type
  4014 ;;		None
  4015 ;; Return value:  Size  Location     Type
  4016 ;;                  1    wreg      void 
  4017 ;; Registers used:
  4018 ;;		None
  4019 ;; Tracked objects:
  4020 ;;		On entry : 0/0
  4021 ;;		On exit  : 0/0
  4022 ;;		Unchanged: 0/0
  4023 ;; Data sizes:     COMMON   BANK0   BANK1   BANK3   BANK2
  4024 ;;      Params:         0       0       0       0       0
  4025 ;;      Locals:         0       0       0       0       0
  4026 ;;      Temps:          0       0       0       0       0
  4027 ;;      Totals:         0       0       0       0       0
  4028 ;;Total ram usage:        0 bytes
  4029 ;; Hardware stack levels used:    1
  4030 ;; This function calls:
  4031 ;;		Nothing
  4032 ;; This function is called by:
  4033 ;;		i1_lcd_goto
  4034 ;; This function uses a non-reentrant model
  4035 ;;
  4036                           
  4037                           
  4038                           ;psect for function i1_LCD_RS_SetLow
  4039  18D0                     i1_LCD_RS_SetLow:
  4040  18D0                     i1l3381:	
  4041                           ;incstack = 0
  4042                           ; Regs used in i1_LCD_RS_SetLow: []
  4043                           
  4044  18D0  1283               	bcf	3,5	;RP0=0, select bank0
  4045  18D1  1303               	bcf	3,6	;RP1=0, select bank0
  4046  18D2  1105               	bcf	5,2	;volatile
  4047  18D3                     i1l33:
  4048  18D3  0008               	return
  4049  18D4                     __end_ofi1_LCD_RS_SetLow:
  4050                           
  4051                           	psect	text26
  4052  002F                     __ptext26:	
  4053 ;; *************** function _sprintf *****************
  4054 ;; Defined at:
  4055 ;;		line 505 in file "/opt/microchip/xc8/v2.20/pic/sources/c90/common/doprnt.c"
  4056 ;; Parameters:    Size  Location     Type
  4057 ;;  sp              1    wreg     PTR unsigned char 
  4058 ;;		 -> isr@message(9), 
  4059 ;;  f               1   74[BANK0 ] PTR const unsigned char 
  4060 ;;		 -> STR_2(3), STR_1(3), 
  4061 ;; Auto vars:     Size  Location     Type
  4062 ;;  sp              1   24[BANK1 ] PTR unsigned char 
  4063 ;;		 -> isr@message(9), 
  4064 ;;  fval            4   25[BANK1 ] PTR unsigned char 
  4065 ;;  tmpval          4   20[BANK1 ] struct .
  4066 ;;  val             4   14[BANK1 ] unsigned long 
  4067 ;;  eexp            2   18[BANK1 ] int 
  4068 ;;  prec            2   12[BANK1 ] int 
  4069 ;;  flag            2   10[BANK1 ] unsigned short 
  4070 ;;  cp              2    0        PTR const unsigned char 
  4071 ;;  len             2    0        unsigned int 
  4072 ;;  width           2    0        int 
  4073 ;;  c               1   29[BANK1 ] unsigned char 
  4074 ;;  ap              1    9[BANK1 ] PTR void [1]
  4075 ;;		 -> ?_sprintf(2), 
  4076 ;;  d               1    0        unsigned char 
  4077 ;; Return value:  Size  Location     Type
  4078 ;;                  2   74[BANK0 ] int 
  4079 ;; Registers used:
  4080 ;;		wreg, fsr0l, fsr0h, status,2, status,0, btemp+1, pclath, cstack
  4081 ;; Tracked objects:
  4082 ;;		On entry : 0/0
  4083 ;;		On exit  : 0/0
  4084 ;;		Unchanged: 0/0
  4085 ;; Data sizes:     COMMON   BANK0   BANK1   BANK3   BANK2
  4086 ;;      Params:         0       5       0       0       0
  4087 ;;      Locals:         0       0      25       0       0
  4088 ;;      Temps:          0       0       5       0       0
  4089 ;;      Totals:         0       5      30       0       0
  4090 ;;Total ram usage:       35 bytes
  4091 ;; Hardware stack levels used:    1
  4092 ;; Hardware stack levels required when called:    3
  4093 ;; This function calls:
  4094 ;;		___awdiv
  4095 ;;		___fladd
  4096 ;;		___fleq
  4097 ;;		___flge
  4098 ;;		___flmul
  4099 ;;		___flneg
  4100 ;;		___flsub
  4101 ;;		___fltol
  4102 ;;		___lldiv
  4103 ;;		___llmod
  4104 ;;		___wmul
  4105 ;;		___xxtofl
  4106 ;;		__div_to_l_
  4107 ;;		__tdiv_to_l_
  4108 ;;		_fround
  4109 ;;		_scale
  4110 ;; This function is called by:
  4111 ;;		_isr
  4112 ;; This function uses a non-reentrant model
  4113 ;;
  4114                           
  4115                           
  4116                           ;psect for function _sprintf
  4117  002F                     _sprintf:
  4118                           
  4119                           ;incstack = 0
  4120 ;; using string table level
  4121                           ; Regs used in _sprintf: [wreg-fsr0h+status,2+status,0+btemp+1+pclath+cstack]
  4122                           ;sprintf@sp stored from wreg
  4123  002F  1683               	bsf	3,5	;RP0=1, select bank1
  4124  0030  1303               	bcf	3,6	;RP1=0, select bank1
  4125  0031  00B8               	movwf	sprintf@sp^(0+128)
  4126  0032                     i1l3437:
  4127                           
  4128                           ;doprnt.c: 507: va_list ap;;doprnt.c: 512: char c;;doprnt.c: 514: int width;;doprnt.c: 5
      +                          17: int prec;;doprnt.c: 525: unsigned short flag;;doprnt.c: 532: char d;;doprnt.c: 533: 
      +                          double fval;;doprnt.c: 534: int eexp;;doprnt.c: 540: union {;doprnt.c: 541: unsigned lon
      +                          g vd;;doprnt.c: 542: double integ;;doprnt.c: 543: } tmpval;;doprnt.c: 545: unsigned long
      +                           val;;doprnt.c: 546: unsigned len;;doprnt.c: 547: const char * cp;;doprnt.c: 550: *ap = 
      +                          __va_start();
  4129  0032  306B               	movlw	(low ((?_sprintf| 0+1)))& (0+255)
  4130  0033  00FF               	movwf	btemp+1
  4131  0034  087F               	movf	btemp+1,w
  4132  0035  00A9               	movwf	sprintf@ap^(0+128)
  4133                           
  4134                           ;doprnt.c: 553: while((c = *f++)) {
  4135  0036  2F18               	goto	i1l3635
  4136  0037                     i1l3439:
  4137                           
  4138                           ;doprnt.c: 555: if(c != '%')
  4139  0037  3025               	movlw	37
  4140  0038  063D               	xorwf	sprintf@c^(0+128),w
  4141  0039  1903               	btfsc	3,2
  4142  003A  283C               	goto	u574_21
  4143  003B  283D               	goto	u574_20
  4144  003C                     u574_21:
  4145  003C  2849               	goto	i1l3445
  4146  003D                     u574_20:
  4147  003D                     i1l3441:
  4148                           
  4149                           ;doprnt.c: 557: {;doprnt.c: 558: ((*sp++ = (c)));
  4150  003D  083D               	movf	sprintf@c^(0+128),w
  4151  003E  00FF               	movwf	btemp+1
  4152  003F  0838               	movf	sprintf@sp^(0+128),w
  4153  0040  0084               	movwf	4
  4154  0041  087F               	movf	btemp+1,w
  4155  0042  1383               	bcf	3,7	;select IRP bank0
  4156  0043  0080               	movwf	0
  4157  0044                     i1l3443:
  4158  0044  3001               	movlw	1
  4159  0045  00FF               	movwf	btemp+1
  4160  0046  087F               	movf	btemp+1,w
  4161  0047  07B8               	addwf	sprintf@sp^(0+128),f
  4162                           
  4163                           ;doprnt.c: 559: continue;
  4164  0048  2F18               	goto	i1l3635
  4165  0049                     i1l3445:
  4166                           
  4167                           ;doprnt.c: 560: };doprnt.c: 565: flag = 0;
  4168  0049  01AA               	clrf	sprintf@flag^(0+128)
  4169  004A  01AB               	clrf	(sprintf@flag+1)^(0+128)
  4170                           
  4171                           ;doprnt.c: 661: switch(c = *f++) {
  4172  004B  284E               	goto	i1l3449
  4173  004C                     i1l388:	
  4174                           ;doprnt.c: 688: case 'f':
  4175                           
  4176                           
  4177                           ;doprnt.c: 689: flag |= 0x400;
  4178  004C  152B               	bsf	(sprintf@flag^(0+128)+1),2
  4179                           
  4180                           ;doprnt.c: 690: break;
  4181  004D  286A               	goto	i1l3451
  4182  004E                     i1l3449:
  4183  004E  3001               	movlw	1
  4184  004F  1283               	bcf	3,5	;RP0=0, select bank0
  4185  0050  1303               	bcf	3,6	;RP1=0, select bank0
  4186  0051  07EA               	addwf	sprintf@f,f
  4187  0052  30FF               	movlw	-1
  4188  0053  076A               	addwf	sprintf@f,w
  4189  0054  0084               	movwf	4
  4190  0055  160A  158A  200A  120A  118A  	fcall	stringdir
  4191  005A  1683               	bsf	3,5	;RP0=1, select bank1
  4192  005B  1303               	bcf	3,6	;RP1=0, select bank1
  4193  005C  00BD               	movwf	sprintf@c^(0+128)
  4194                           
  4195                           ; Switch size 1, requested type "simple"
  4196                           ; Number of cases is 4, Range of values is 0 to 105
  4197                           ; switch strategies available:
  4198                           ; Name         Instructions Cycles
  4199                           ; simple_byte           13     7 (average)
  4200                           ; jumptable            260     6 (fixed)
  4201                           ;	Chosen strategy is simple_byte
  4202  005D  3A00               	xorlw	0	; case 0
  4203  005E  1903               	skipnz
  4204  005F  2F2E               	goto	i1l3637
  4205  0060  3A64               	xorlw	100	; case 100
  4206  0061  1903               	skipnz
  4207  0062  286A               	goto	i1l3451
  4208  0063  3A02               	xorlw	2	; case 102
  4209  0064  1903               	skipnz
  4210  0065  284C               	goto	i1l388
  4211  0066  3A0F               	xorlw	15	; case 105
  4212  0067  1903               	skipnz
  4213  0068  286A               	goto	i1l3451
  4214  0069  2F18               	goto	i1l3635
  4215  006A                     i1l3451:
  4216                           
  4217                           ;doprnt.c: 851: if(flag & (0x700)) {
  4218  006A  3000               	movlw	0
  4219  006B  052A               	andwf	sprintf@flag^(0+128),w
  4220  006C  00A0               	movwf	??_sprintf^(0+128)
  4221  006D  3007               	movlw	7
  4222  006E  052B               	andwf	(sprintf@flag+1)^(0+128),w
  4223  006F  00A1               	movwf	(??_sprintf+1)^(0+128)
  4224  0070  0820               	movf	??_sprintf^(0+128),w
  4225  0071  0421               	iorwf	(??_sprintf^(0+128)+1),w
  4226  0072  1903               	btfsc	3,2
  4227  0073  2875               	goto	u575_21
  4228  0074  2876               	goto	u575_20
  4229  0075                     u575_21:
  4230  0075  2E20               	goto	i1l3595
  4231  0076                     u575_20:
  4232  0076                     i1l3453:
  4233                           
  4234                           ;doprnt.c: 855: prec = 6;
  4235  0076  3006               	movlw	6
  4236  0077  00AC               	movwf	sprintf@prec^(0+128)
  4237  0078  3000               	movlw	0
  4238  0079  00AD               	movwf	(sprintf@prec^(0+128)+1)
  4239  007A                     i1l3455:
  4240                           
  4241                           ;doprnt.c: 856: fval = (*(double *)__va_arg((*(double **)ap), (double)0));
  4242  007A  0829               	movf	sprintf@ap^(0+128),w
  4243  007B  0084               	movwf	4
  4244  007C  1383               	bcf	3,7	;select IRP bank0
  4245  007D  0800               	movf	0,w
  4246  007E  00B9               	movwf	sprintf@fval^(0+128)
  4247  007F  0A84               	incf	4,f
  4248  0080  0800               	movf	0,w
  4249  0081  00BA               	movwf	(sprintf@fval+1)^(0+128)
  4250  0082  0A84               	incf	4,f
  4251  0083  0800               	movf	0,w
  4252  0084  00BB               	movwf	(sprintf@fval+2)^(0+128)
  4253  0085  0A84               	incf	4,f
  4254  0086  0800               	movf	0,w
  4255  0087  00BC               	movwf	(sprintf@fval+3)^(0+128)
  4256  0088                     i1l3457:
  4257  0088  3004               	movlw	4
  4258  0089  00FF               	movwf	btemp+1
  4259  008A  087F               	movf	btemp+1,w
  4260  008B  07A9               	addwf	sprintf@ap^(0+128),f
  4261  008C                     i1l3459:
  4262                           
  4263                           ;doprnt.c: 857: if(fval < 0.0) {
  4264  008C  083C               	movf	(sprintf@fval+3)^(0+128),w
  4265  008D  00F3               	movwf	___flge@ff1+3
  4266  008E  083B               	movf	(sprintf@fval+2)^(0+128),w
  4267  008F  00F2               	movwf	___flge@ff1+2
  4268  0090  083A               	movf	(sprintf@fval+1)^(0+128),w
  4269  0091  00F1               	movwf	___flge@ff1+1
  4270  0092  0839               	movf	sprintf@fval^(0+128),w
  4271  0093  00F0               	movwf	___flge@ff1
  4272  0094  3000               	movlw	0
  4273  0095  00F7               	movwf	___flge@ff2+3
  4274  0096  3000               	movlw	0
  4275  0097  00F6               	movwf	___flge@ff2+2
  4276  0098  3000               	movlw	0
  4277  0099  00F5               	movwf	___flge@ff2+1
  4278  009A  3000               	movlw	0
  4279  009B  00F4               	movwf	___flge@ff2
  4280  009C  160A  158A  275E  120A  118A  	fcall	___flge
  4281  00A1  1803               	btfsc	3,0
  4282  00A2  28A4               	goto	u576_21
  4283  00A3  28A5               	goto	u576_20
  4284  00A4                     u576_21:
  4285  00A4  28C2               	goto	i1l3465
  4286  00A5                     u576_20:
  4287  00A5                     i1l3461:
  4288                           
  4289                           ;doprnt.c: 858: fval = -fval;
  4290  00A5  1683               	bsf	3,5	;RP0=1, select bank1
  4291  00A6  1303               	bcf	3,6	;RP1=0, select bank1
  4292  00A7  083C               	movf	(sprintf@fval+3)^(0+128),w
  4293  00A8  00F3               	movwf	___flneg@f1+3
  4294  00A9  083B               	movf	(sprintf@fval+2)^(0+128),w
  4295  00AA  00F2               	movwf	___flneg@f1+2
  4296  00AB  083A               	movf	(sprintf@fval+1)^(0+128),w
  4297  00AC  00F1               	movwf	___flneg@f1+1
  4298  00AD  0839               	movf	sprintf@fval^(0+128),w
  4299  00AE  00F0               	movwf	___flneg@f1
  4300  00AF  160A  158A  20FB  120A  118A  	fcall	___flneg
  4301  00B4  0873               	movf	?___flneg+3,w
  4302  00B5  1683               	bsf	3,5	;RP0=1, select bank1
  4303  00B6  1303               	bcf	3,6	;RP1=0, select bank1
  4304  00B7  00BC               	movwf	(sprintf@fval+3)^(0+128)
  4305  00B8  0872               	movf	?___flneg+2,w
  4306  00B9  00BB               	movwf	(sprintf@fval+2)^(0+128)
  4307  00BA  0871               	movf	?___flneg+1,w
  4308  00BB  00BA               	movwf	(sprintf@fval+1)^(0+128)
  4309  00BC  0870               	movf	?___flneg,w
  4310  00BD  00B9               	movwf	sprintf@fval^(0+128)
  4311  00BE                     i1l3463:
  4312                           
  4313                           ;doprnt.c: 859: flag |= 0x03;
  4314  00BE  3003               	movlw	3
  4315  00BF  04AA               	iorwf	sprintf@flag^(0+128),f
  4316  00C0  3000               	movlw	0
  4317  00C1  04AB               	iorwf	(sprintf@flag+1)^(0+128),f
  4318  00C2                     i1l3465:
  4319                           
  4320                           ;doprnt.c: 860: };doprnt.c: 861: eexp = 0;
  4321  00C2  1683               	bsf	3,5	;RP0=1, select bank1
  4322  00C3  1303               	bcf	3,6	;RP1=0, select bank1
  4323  00C4  01B2               	clrf	sprintf@eexp^(0+128)
  4324  00C5  01B3               	clrf	(sprintf@eexp+1)^(0+128)
  4325  00C6                     i1l3467:
  4326                           
  4327                           ;doprnt.c: 862: if( fval!=0) {
  4328  00C6  083C               	movf	(sprintf@fval+3)^(0+128),w
  4329  00C7  00F3               	movwf	___fleq@ff1+3
  4330  00C8  083B               	movf	(sprintf@fval+2)^(0+128),w
  4331  00C9  00F2               	movwf	___fleq@ff1+2
  4332  00CA  083A               	movf	(sprintf@fval+1)^(0+128),w
  4333  00CB  00F1               	movwf	___fleq@ff1+1
  4334  00CC  0839               	movf	sprintf@fval^(0+128),w
  4335  00CD  00F0               	movwf	___fleq@ff1
  4336  00CE  3000               	movlw	0
  4337  00CF  00F7               	movwf	___fleq@ff2+3
  4338  00D0  3000               	movlw	0
  4339  00D1  00F6               	movwf	___fleq@ff2+2
  4340  00D2  3000               	movlw	0
  4341  00D3  00F5               	movwf	___fleq@ff2+1
  4342  00D4  3000               	movlw	0
  4343  00D5  00F4               	movwf	___fleq@ff2
  4344  00D6  160A  158A  239D  120A  118A  	fcall	___fleq
  4345  00DB  1803               	btfsc	3,0
  4346  00DC  28DE               	goto	u577_21
  4347  00DD  28DF               	goto	u577_20
  4348  00DE                     u577_21:
  4349  00DE  29CF               	goto	i1l3493
  4350  00DF                     u577_20:
  4351  00DF                     i1l3469:
  4352                           
  4353                           ;doprnt.c: 863: (void)(*(&eexp) = (unsigned char)((*(unsigned long *)&fval >> 23) & 255)
      +                           - 126);
  4354  00DF  1003               	clrc
  4355  00E0  1683               	bsf	3,5	;RP0=1, select bank1
  4356  00E1  1303               	bcf	3,6	;RP1=0, select bank1
  4357  00E2  0D3B               	rlf	(sprintf@fval+2)^(0+128),w
  4358  00E3  0D3C               	rlf	(sprintf@fval+3)^(0+128),w
  4359  00E4  3E82               	addlw	130
  4360  00E5  00B2               	movwf	sprintf@eexp^(0+128)
  4361  00E6  30FF               	movlw	255
  4362  00E7  1803               	skipnc
  4363  00E8  3000               	movlw	0
  4364  00E9  00B3               	movwf	(sprintf@eexp^(0+128)+1)
  4365  00EA                     i1l3471:
  4366                           
  4367                           ;doprnt.c: 864: eexp--;
  4368  00EA  30FF               	movlw	255
  4369  00EB  07B2               	addwf	sprintf@eexp^(0+128),f
  4370  00EC  1803               	skipnc
  4371  00ED  0AB3               	incf	(sprintf@eexp+1)^(0+128),f
  4372  00EE  30FF               	movlw	255
  4373  00EF  07B3               	addwf	(sprintf@eexp+1)^(0+128),f
  4374  00F0                     i1l3473:
  4375                           
  4376                           ;doprnt.c: 865: eexp *= 3;
  4377  00F0  3003               	movlw	3
  4378  00F1  00F0               	movwf	___wmul@multiplier
  4379  00F2  3000               	movlw	0
  4380  00F3  00F1               	movwf	___wmul@multiplier+1
  4381  00F4  0833               	movf	(sprintf@eexp+1)^(0+128),w
  4382  00F5  00F3               	movwf	___wmul@multiplicand+1
  4383  00F6  0832               	movf	sprintf@eexp^(0+128),w
  4384  00F7  00F2               	movwf	___wmul@multiplicand
  4385  00F8  160A  158A  21F3  120A  118A  	fcall	___wmul
  4386  00FD  0871               	movf	?___wmul+1,w
  4387  00FE  1683               	bsf	3,5	;RP0=1, select bank1
  4388  00FF  1303               	bcf	3,6	;RP1=0, select bank1
  4389  0100  00B3               	movwf	(sprintf@eexp+1)^(0+128)
  4390  0101  0870               	movf	?___wmul,w
  4391  0102  00B2               	movwf	sprintf@eexp^(0+128)
  4392  0103                     i1l3475:
  4393                           
  4394                           ;doprnt.c: 866: eexp /= 10;
  4395  0103  300A               	movlw	10
  4396  0104  00F6               	movwf	___awdiv@divisor
  4397  0105  3000               	movlw	0
  4398  0106  00F7               	movwf	___awdiv@divisor+1
  4399  0107  0833               	movf	(sprintf@eexp+1)^(0+128),w
  4400  0108  00F9               	movwf	___awdiv@dividend+1
  4401  0109  0832               	movf	sprintf@eexp^(0+128),w
  4402  010A  00F8               	movwf	___awdiv@dividend
  4403  010B  160A  158A  2602  120A  118A  	fcall	___awdiv
  4404  0110  0877               	movf	?___awdiv+1,w
  4405  0111  1683               	bsf	3,5	;RP0=1, select bank1
  4406  0112  1303               	bcf	3,6	;RP1=0, select bank1
  4407  0113  00B3               	movwf	(sprintf@eexp+1)^(0+128)
  4408  0114  0876               	movf	?___awdiv,w
  4409  0115  00B2               	movwf	sprintf@eexp^(0+128)
  4410  0116                     i1l3477:
  4411                           
  4412                           ;doprnt.c: 867: if(eexp < 0)
  4413  0116  1FB3               	btfss	(sprintf@eexp+1)^(0+128),7
  4414  0117  2919               	goto	u578_21
  4415  0118  291A               	goto	u578_20
  4416  0119                     u578_21:
  4417  0119  2920               	goto	i1l3481
  4418  011A                     u578_20:
  4419  011A                     i1l3479:
  4420                           
  4421                           ;doprnt.c: 868: eexp--;
  4422  011A  30FF               	movlw	255
  4423  011B  07B2               	addwf	sprintf@eexp^(0+128),f
  4424  011C  1803               	skipnc
  4425  011D  0AB3               	incf	(sprintf@eexp+1)^(0+128),f
  4426  011E  30FF               	movlw	255
  4427  011F  07B3               	addwf	(sprintf@eexp+1)^(0+128),f
  4428  0120                     i1l3481:
  4429                           
  4430                           ;doprnt.c: 872: tmpval.integ = scale(-eexp);
  4431  0120  0332               	decf	sprintf@eexp^(0+128),w
  4432  0121  3AFF               	xorlw	255
  4433  0122  120A  158A  2140  120A  118A  	fcall	_scale
  4434  0127  1283               	bcf	3,5	;RP0=0, select bank0
  4435  0128  1303               	bcf	3,6	;RP1=0, select bank0
  4436  0129  083D               	movf	?_scale+3,w
  4437  012A  1683               	bsf	3,5	;RP0=1, select bank1
  4438  012B  1303               	bcf	3,6	;RP1=0, select bank1
  4439  012C  00B7               	movwf	(sprintf@tmpval+3)^(0+128)
  4440  012D  1283               	bcf	3,5	;RP0=0, select bank0
  4441  012E  1303               	bcf	3,6	;RP1=0, select bank0
  4442  012F  083C               	movf	?_scale+2,w
  4443  0130  1683               	bsf	3,5	;RP0=1, select bank1
  4444  0131  1303               	bcf	3,6	;RP1=0, select bank1
  4445  0132  00B6               	movwf	(sprintf@tmpval+2)^(0+128)
  4446  0133  1283               	bcf	3,5	;RP0=0, select bank0
  4447  0134  1303               	bcf	3,6	;RP1=0, select bank0
  4448  0135  083B               	movf	?_scale+1,w
  4449  0136  1683               	bsf	3,5	;RP0=1, select bank1
  4450  0137  1303               	bcf	3,6	;RP1=0, select bank1
  4451  0138  00B5               	movwf	(sprintf@tmpval+1)^(0+128)
  4452  0139  1283               	bcf	3,5	;RP0=0, select bank0
  4453  013A  1303               	bcf	3,6	;RP1=0, select bank0
  4454  013B  083A               	movf	?_scale,w
  4455  013C  1683               	bsf	3,5	;RP0=1, select bank1
  4456  013D  1303               	bcf	3,6	;RP1=0, select bank1
  4457  013E  00B4               	movwf	sprintf@tmpval^(0+128)
  4458  013F                     i1l3483:
  4459                           
  4460                           ;doprnt.c: 873: tmpval.integ *= fval;
  4461  013F  083C               	movf	(sprintf@fval+3)^(0+128),w
  4462  0140  1283               	bcf	3,5	;RP0=0, select bank0
  4463  0141  1303               	bcf	3,6	;RP1=0, select bank0
  4464  0142  00A3               	movwf	___flmul@b+3
  4465  0143  1683               	bsf	3,5	;RP0=1, select bank1
  4466  0144  1303               	bcf	3,6	;RP1=0, select bank1
  4467  0145  083B               	movf	(sprintf@fval+2)^(0+128),w
  4468  0146  1283               	bcf	3,5	;RP0=0, select bank0
  4469  0147  1303               	bcf	3,6	;RP1=0, select bank0
  4470  0148  00A2               	movwf	___flmul@b+2
  4471  0149  1683               	bsf	3,5	;RP0=1, select bank1
  4472  014A  1303               	bcf	3,6	;RP1=0, select bank1
  4473  014B  083A               	movf	(sprintf@fval+1)^(0+128),w
  4474  014C  1283               	bcf	3,5	;RP0=0, select bank0
  4475  014D  1303               	bcf	3,6	;RP1=0, select bank0
  4476  014E  00A1               	movwf	___flmul@b+1
  4477  014F  1683               	bsf	3,5	;RP0=1, select bank1
  4478  0150  1303               	bcf	3,6	;RP1=0, select bank1
  4479  0151  0839               	movf	sprintf@fval^(0+128),w
  4480  0152  1283               	bcf	3,5	;RP0=0, select bank0
  4481  0153  1303               	bcf	3,6	;RP1=0, select bank0
  4482  0154  00A0               	movwf	___flmul@b
  4483  0155  1683               	bsf	3,5	;RP0=1, select bank1
  4484  0156  1303               	bcf	3,6	;RP1=0, select bank1
  4485  0157  0837               	movf	(sprintf@tmpval+3)^(0+128),w
  4486  0158  1283               	bcf	3,5	;RP0=0, select bank0
  4487  0159  1303               	bcf	3,6	;RP1=0, select bank0
  4488  015A  00A7               	movwf	___flmul@a+3
  4489  015B  1683               	bsf	3,5	;RP0=1, select bank1
  4490  015C  1303               	bcf	3,6	;RP1=0, select bank1
  4491  015D  0836               	movf	(sprintf@tmpval+2)^(0+128),w
  4492  015E  1283               	bcf	3,5	;RP0=0, select bank0
  4493  015F  1303               	bcf	3,6	;RP1=0, select bank0
  4494  0160  00A6               	movwf	___flmul@a+2
  4495  0161  1683               	bsf	3,5	;RP0=1, select bank1
  4496  0162  1303               	bcf	3,6	;RP1=0, select bank1
  4497  0163  0835               	movf	(sprintf@tmpval+1)^(0+128),w
  4498  0164  1283               	bcf	3,5	;RP0=0, select bank0
  4499  0165  1303               	bcf	3,6	;RP1=0, select bank0
  4500  0166  00A5               	movwf	___flmul@a+1
  4501  0167  1683               	bsf	3,5	;RP0=1, select bank1
  4502  0168  1303               	bcf	3,6	;RP1=0, select bank1
  4503  0169  0834               	movf	sprintf@tmpval^(0+128),w
  4504  016A  1283               	bcf	3,5	;RP0=0, select bank0
  4505  016B  1303               	bcf	3,6	;RP1=0, select bank0
  4506  016C  00A4               	movwf	___flmul@a
  4507  016D  120A  158A  249F  120A  118A  	fcall	___flmul
  4508  0172  1283               	bcf	3,5	;RP0=0, select bank0
  4509  0173  1303               	bcf	3,6	;RP1=0, select bank0
  4510  0174  0823               	movf	?___flmul+3,w
  4511  0175  1683               	bsf	3,5	;RP0=1, select bank1
  4512  0176  1303               	bcf	3,6	;RP1=0, select bank1
  4513  0177  00B7               	movwf	(sprintf@tmpval+3)^(0+128)
  4514  0178  1283               	bcf	3,5	;RP0=0, select bank0
  4515  0179  1303               	bcf	3,6	;RP1=0, select bank0
  4516  017A  0822               	movf	?___flmul+2,w
  4517  017B  1683               	bsf	3,5	;RP0=1, select bank1
  4518  017C  1303               	bcf	3,6	;RP1=0, select bank1
  4519  017D  00B6               	movwf	(sprintf@tmpval+2)^(0+128)
  4520  017E  1283               	bcf	3,5	;RP0=0, select bank0
  4521  017F  1303               	bcf	3,6	;RP1=0, select bank0
  4522  0180  0821               	movf	?___flmul+1,w
  4523  0181  1683               	bsf	3,5	;RP0=1, select bank1
  4524  0182  1303               	bcf	3,6	;RP1=0, select bank1
  4525  0183  00B5               	movwf	(sprintf@tmpval+1)^(0+128)
  4526  0184  1283               	bcf	3,5	;RP0=0, select bank0
  4527  0185  1303               	bcf	3,6	;RP1=0, select bank0
  4528  0186  0820               	movf	?___flmul,w
  4529  0187  1683               	bsf	3,5	;RP0=1, select bank1
  4530  0188  1303               	bcf	3,6	;RP1=0, select bank1
  4531  0189  00B4               	movwf	sprintf@tmpval^(0+128)
  4532  018A                     i1l3485:
  4533                           
  4534                           ;doprnt.c: 874: if(tmpval.integ < 1.0)
  4535  018A  0837               	movf	(sprintf@tmpval+3)^(0+128),w
  4536  018B  00F3               	movwf	___flge@ff1+3
  4537  018C  0836               	movf	(sprintf@tmpval+2)^(0+128),w
  4538  018D  00F2               	movwf	___flge@ff1+2
  4539  018E  0835               	movf	(sprintf@tmpval+1)^(0+128),w
  4540  018F  00F1               	movwf	___flge@ff1+1
  4541  0190  0834               	movf	sprintf@tmpval^(0+128),w
  4542  0191  00F0               	movwf	___flge@ff1
  4543  0192  303F               	movlw	63
  4544  0193  00F7               	movwf	___flge@ff2+3
  4545  0194  3080               	movlw	128
  4546  0195  00F6               	movwf	___flge@ff2+2
  4547  0196  3000               	movlw	0
  4548  0197  00F5               	movwf	___flge@ff2+1
  4549  0198  3000               	movlw	0
  4550  0199  00F4               	movwf	___flge@ff2
  4551  019A  160A  158A  275E  120A  118A  	fcall	___flge
  4552  019F  1803               	btfsc	3,0
  4553  01A0  29A2               	goto	u579_21
  4554  01A1  29A3               	goto	u579_20
  4555  01A2                     u579_21:
  4556  01A2  29AC               	goto	i1l3489
  4557  01A3                     u579_20:
  4558  01A3                     i1l3487:
  4559                           
  4560                           ;doprnt.c: 875: eexp--;
  4561  01A3  30FF               	movlw	255
  4562  01A4  1683               	bsf	3,5	;RP0=1, select bank1
  4563  01A5  1303               	bcf	3,6	;RP1=0, select bank1
  4564  01A6  07B2               	addwf	sprintf@eexp^(0+128),f
  4565  01A7  1803               	skipnc
  4566  01A8  0AB3               	incf	(sprintf@eexp+1)^(0+128),f
  4567  01A9  30FF               	movlw	255
  4568  01AA  07B3               	addwf	(sprintf@eexp+1)^(0+128),f
  4569  01AB  29CF               	goto	i1l3493
  4570  01AC                     i1l3489:
  4571                           
  4572                           ;doprnt.c: 876: else if(tmpval.integ >= 10.0)
  4573  01AC  1683               	bsf	3,5	;RP0=1, select bank1
  4574  01AD  1303               	bcf	3,6	;RP1=0, select bank1
  4575  01AE  0837               	movf	(sprintf@tmpval+3)^(0+128),w
  4576  01AF  00F3               	movwf	___flge@ff1+3
  4577  01B0  0836               	movf	(sprintf@tmpval+2)^(0+128),w
  4578  01B1  00F2               	movwf	___flge@ff1+2
  4579  01B2  0835               	movf	(sprintf@tmpval+1)^(0+128),w
  4580  01B3  00F1               	movwf	___flge@ff1+1
  4581  01B4  0834               	movf	sprintf@tmpval^(0+128),w
  4582  01B5  00F0               	movwf	___flge@ff1
  4583  01B6  3041               	movlw	65
  4584  01B7  00F7               	movwf	___flge@ff2+3
  4585  01B8  3020               	movlw	32
  4586  01B9  00F6               	movwf	___flge@ff2+2
  4587  01BA  3000               	movlw	0
  4588  01BB  00F5               	movwf	___flge@ff2+1
  4589  01BC  3000               	movlw	0
  4590  01BD  00F4               	movwf	___flge@ff2
  4591  01BE  160A  158A  275E  120A  118A  	fcall	___flge
  4592  01C3  1C03               	btfss	3,0
  4593  01C4  29C6               	goto	u580_21
  4594  01C5  29C7               	goto	u580_20
  4595  01C6                     u580_21:
  4596  01C6  29CF               	goto	i1l3493
  4597  01C7                     u580_20:
  4598  01C7                     i1l3491:
  4599                           
  4600                           ;doprnt.c: 877: eexp++;
  4601  01C7  3001               	movlw	1
  4602  01C8  1683               	bsf	3,5	;RP0=1, select bank1
  4603  01C9  1303               	bcf	3,6	;RP1=0, select bank1
  4604  01CA  07B2               	addwf	sprintf@eexp^(0+128),f
  4605  01CB  1803               	skipnc
  4606  01CC  0AB3               	incf	(sprintf@eexp+1)^(0+128),f
  4607  01CD  3000               	movlw	0
  4608  01CE  07B3               	addwf	(sprintf@eexp+1)^(0+128),f
  4609  01CF                     i1l3493:
  4610  01CF                     i1l3495:	
  4611                           ;doprnt.c: 878: };doprnt.c: 1138: if(prec <= 12)
  4612                           
  4613                           
  4614                           ;doprnt.c: 1139: fval += fround((unsigned int)prec);
  4615  01CF  3006               	movlw	6
  4616  01D0  160A  118A  236D  120A  118A  	fcall	_fround
  4617  01D5  1283               	bcf	3,5	;RP0=0, select bank0
  4618  01D6  1303               	bcf	3,6	;RP1=0, select bank0
  4619  01D7  083D               	movf	?_fround+3,w
  4620  01D8  00D1               	movwf	___fladd@b+3
  4621  01D9  083C               	movf	?_fround+2,w
  4622  01DA  00D0               	movwf	___fladd@b+2
  4623  01DB  083B               	movf	?_fround+1,w
  4624  01DC  00CF               	movwf	___fladd@b+1
  4625  01DD  083A               	movf	?_fround,w
  4626  01DE  00CE               	movwf	___fladd@b
  4627  01DF  1683               	bsf	3,5	;RP0=1, select bank1
  4628  01E0  1303               	bcf	3,6	;RP1=0, select bank1
  4629  01E1  083C               	movf	(sprintf@fval+3)^(0+128),w
  4630  01E2  1283               	bcf	3,5	;RP0=0, select bank0
  4631  01E3  1303               	bcf	3,6	;RP1=0, select bank0
  4632  01E4  00D5               	movwf	___fladd@a+3
  4633  01E5  1683               	bsf	3,5	;RP0=1, select bank1
  4634  01E6  1303               	bcf	3,6	;RP1=0, select bank1
  4635  01E7  083B               	movf	(sprintf@fval+2)^(0+128),w
  4636  01E8  1283               	bcf	3,5	;RP0=0, select bank0
  4637  01E9  1303               	bcf	3,6	;RP1=0, select bank0
  4638  01EA  00D4               	movwf	___fladd@a+2
  4639  01EB  1683               	bsf	3,5	;RP0=1, select bank1
  4640  01EC  1303               	bcf	3,6	;RP1=0, select bank1
  4641  01ED  083A               	movf	(sprintf@fval+1)^(0+128),w
  4642  01EE  1283               	bcf	3,5	;RP0=0, select bank0
  4643  01EF  1303               	bcf	3,6	;RP1=0, select bank0
  4644  01F0  00D3               	movwf	___fladd@a+1
  4645  01F1  1683               	bsf	3,5	;RP0=1, select bank1
  4646  01F2  1303               	bcf	3,6	;RP1=0, select bank1
  4647  01F3  0839               	movf	sprintf@fval^(0+128),w
  4648  01F4  1283               	bcf	3,5	;RP0=0, select bank0
  4649  01F5  1303               	bcf	3,6	;RP1=0, select bank0
  4650  01F6  00D2               	movwf	___fladd@a
  4651  01F7  160A  118A  2578  120A  118A  	fcall	___fladd
  4652  01FC  1283               	bcf	3,5	;RP0=0, select bank0
  4653  01FD  1303               	bcf	3,6	;RP1=0, select bank0
  4654  01FE  0851               	movf	?___fladd+3,w
  4655  01FF  1683               	bsf	3,5	;RP0=1, select bank1
  4656  0200  1303               	bcf	3,6	;RP1=0, select bank1
  4657  0201  00BC               	movwf	(sprintf@fval+3)^(0+128)
  4658  0202  1283               	bcf	3,5	;RP0=0, select bank0
  4659  0203  1303               	bcf	3,6	;RP1=0, select bank0
  4660  0204  0850               	movf	?___fladd+2,w
  4661  0205  1683               	bsf	3,5	;RP0=1, select bank1
  4662  0206  1303               	bcf	3,6	;RP1=0, select bank1
  4663  0207  00BB               	movwf	(sprintf@fval+2)^(0+128)
  4664  0208  1283               	bcf	3,5	;RP0=0, select bank0
  4665  0209  1303               	bcf	3,6	;RP1=0, select bank0
  4666  020A  084F               	movf	?___fladd+1,w
  4667  020B  1683               	bsf	3,5	;RP0=1, select bank1
  4668  020C  1303               	bcf	3,6	;RP1=0, select bank1
  4669  020D  00BA               	movwf	(sprintf@fval+1)^(0+128)
  4670  020E  1283               	bcf	3,5	;RP0=0, select bank0
  4671  020F  1303               	bcf	3,6	;RP1=0, select bank0
  4672  0210  084E               	movf	?___fladd,w
  4673  0211  1683               	bsf	3,5	;RP0=1, select bank1
  4674  0212  1303               	bcf	3,6	;RP1=0, select bank1
  4675  0213  00B9               	movwf	sprintf@fval^(0+128)
  4676  0214                     i1l3497:
  4677                           
  4678                           ;doprnt.c: 1142: if((eexp > 9)||(fval != 0 && (unsigned long)fval == 0 && eexp > 1)) {
  4679  0214  0833               	movf	(sprintf@eexp+1)^(0+128),w
  4680  0215  3A80               	xorlw	128
  4681  0216  00FF               	movwf	btemp+1
  4682  0217  3080               	movlw	128
  4683  0218  027F               	subwf	btemp+1,w
  4684  0219  1D03               	skipz
  4685  021A  2A1D               	goto	u581_25
  4686  021B  300A               	movlw	10
  4687  021C  0232               	subwf	sprintf@eexp^(0+128),w
  4688  021D                     u581_25:
  4689  021D  1803               	skipnc
  4690  021E  2A20               	goto	u581_21
  4691  021F  2A21               	goto	u581_20
  4692  0220                     u581_21:
  4693  0220  2A72               	goto	i1l3505
  4694  0221                     u581_20:
  4695  0221                     i1l3499:
  4696  0221  1683               	bsf	3,5	;RP0=1, select bank1
  4697  0222  1303               	bcf	3,6	;RP1=0, select bank1
  4698  0223  083C               	movf	(sprintf@fval+3)^(0+128),w
  4699  0224  00F3               	movwf	___fleq@ff1+3
  4700  0225  083B               	movf	(sprintf@fval+2)^(0+128),w
  4701  0226  00F2               	movwf	___fleq@ff1+2
  4702  0227  083A               	movf	(sprintf@fval+1)^(0+128),w
  4703  0228  00F1               	movwf	___fleq@ff1+1
  4704  0229  0839               	movf	sprintf@fval^(0+128),w
  4705  022A  00F0               	movwf	___fleq@ff1
  4706  022B  3000               	movlw	0
  4707  022C  00F7               	movwf	___fleq@ff2+3
  4708  022D  3000               	movlw	0
  4709  022E  00F6               	movwf	___fleq@ff2+2
  4710  022F  3000               	movlw	0
  4711  0230  00F5               	movwf	___fleq@ff2+1
  4712  0231  3000               	movlw	0
  4713  0232  00F4               	movwf	___fleq@ff2
  4714  0233  160A  158A  239D  120A  118A  	fcall	___fleq
  4715  0238  1803               	btfsc	3,0
  4716  0239  2A3B               	goto	u582_21
  4717  023A  2A3C               	goto	u582_20
  4718  023B                     u582_21:
  4719  023B  2AE4               	goto	i1l3519
  4720  023C                     u582_20:
  4721  023C                     i1l3501:
  4722  023C  1683               	bsf	3,5	;RP0=1, select bank1
  4723  023D  1303               	bcf	3,6	;RP1=0, select bank1
  4724  023E  083C               	movf	(sprintf@fval+3)^(0+128),w
  4725  023F  1283               	bcf	3,5	;RP0=0, select bank0
  4726  0240  1303               	bcf	3,6	;RP1=0, select bank0
  4727  0241  00BD               	movwf	___fltol@f1+3
  4728  0242  1683               	bsf	3,5	;RP0=1, select bank1
  4729  0243  1303               	bcf	3,6	;RP1=0, select bank1
  4730  0244  083B               	movf	(sprintf@fval+2)^(0+128),w
  4731  0245  1283               	bcf	3,5	;RP0=0, select bank0
  4732  0246  1303               	bcf	3,6	;RP1=0, select bank0
  4733  0247  00BC               	movwf	___fltol@f1+2
  4734  0248  1683               	bsf	3,5	;RP0=1, select bank1
  4735  0249  1303               	bcf	3,6	;RP1=0, select bank1
  4736  024A  083A               	movf	(sprintf@fval+1)^(0+128),w
  4737  024B  1283               	bcf	3,5	;RP0=0, select bank0
  4738  024C  1303               	bcf	3,6	;RP1=0, select bank0
  4739  024D  00BB               	movwf	___fltol@f1+1
  4740  024E  1683               	bsf	3,5	;RP0=1, select bank1
  4741  024F  1303               	bcf	3,6	;RP1=0, select bank1
  4742  0250  0839               	movf	sprintf@fval^(0+128),w
  4743  0251  1283               	bcf	3,5	;RP0=0, select bank0
  4744  0252  1303               	bcf	3,6	;RP1=0, select bank0
  4745  0253  00BA               	movwf	___fltol@f1
  4746  0254  160A  158A  26E2  120A  118A  	fcall	___fltol
  4747  0259  1283               	bcf	3,5	;RP0=0, select bank0
  4748  025A  1303               	bcf	3,6	;RP1=0, select bank0
  4749  025B  083D               	movf	?___fltol+3,w
  4750  025C  043C               	iorwf	?___fltol+2,w
  4751  025D  043B               	iorwf	?___fltol+1,w
  4752  025E  043A               	iorwf	?___fltol,w
  4753  025F  1D03               	skipz
  4754  0260  2A62               	goto	u583_21
  4755  0261  2A63               	goto	u583_20
  4756  0262                     u583_21:
  4757  0262  2AE4               	goto	i1l3519
  4758  0263                     u583_20:
  4759  0263                     i1l3503:
  4760  0263  1683               	bsf	3,5	;RP0=1, select bank1
  4761  0264  1303               	bcf	3,6	;RP1=0, select bank1
  4762  0265  0833               	movf	(sprintf@eexp+1)^(0+128),w
  4763  0266  3A80               	xorlw	128
  4764  0267  00FF               	movwf	btemp+1
  4765  0268  3080               	movlw	128
  4766  0269  027F               	subwf	btemp+1,w
  4767  026A  1D03               	skipz
  4768  026B  2A6E               	goto	u584_25
  4769  026C  3002               	movlw	2
  4770  026D  0232               	subwf	sprintf@eexp^(0+128),w
  4771  026E                     u584_25:
  4772  026E  1C03               	skipc
  4773  026F  2A71               	goto	u584_21
  4774  0270  2A72               	goto	u584_20
  4775  0271                     u584_21:
  4776  0271  2AE4               	goto	i1l3519
  4777  0272                     u584_20:
  4778  0272                     i1l3505:
  4779                           
  4780                           ;doprnt.c: 1146: if(tmpval.integ < 4.294967296){
  4781  0272  1683               	bsf	3,5	;RP0=1, select bank1
  4782  0273  1303               	bcf	3,6	;RP1=0, select bank1
  4783  0274  0837               	movf	(sprintf@tmpval+3)^(0+128),w
  4784  0275  00F3               	movwf	___flge@ff1+3
  4785  0276  0836               	movf	(sprintf@tmpval+2)^(0+128),w
  4786  0277  00F2               	movwf	___flge@ff1+2
  4787  0278  0835               	movf	(sprintf@tmpval+1)^(0+128),w
  4788  0279  00F1               	movwf	___flge@ff1+1
  4789  027A  0834               	movf	sprintf@tmpval^(0+128),w
  4790  027B  00F0               	movwf	___flge@ff1
  4791  027C  3040               	movlw	64
  4792  027D  00F7               	movwf	___flge@ff2+3
  4793  027E  3089               	movlw	137
  4794  027F  00F6               	movwf	___flge@ff2+2
  4795  0280  3070               	movlw	112
  4796  0281  00F5               	movwf	___flge@ff2+1
  4797  0282  305F               	movlw	95
  4798  0283  00F4               	movwf	___flge@ff2
  4799  0284  160A  158A  275E  120A  118A  	fcall	___flge
  4800  0289  1803               	btfsc	3,0
  4801  028A  2A8C               	goto	u585_21
  4802  028B  2A8D               	goto	u585_20
  4803  028C                     u585_21:
  4804  028C  2A96               	goto	i1l3509
  4805  028D                     u585_20:
  4806  028D                     i1l3507:
  4807                           
  4808                           ;doprnt.c: 1147: eexp -= (sizeof dpowers/sizeof dpowers[0])-1;
  4809  028D  30F7               	movlw	247
  4810  028E  1683               	bsf	3,5	;RP0=1, select bank1
  4811  028F  1303               	bcf	3,6	;RP1=0, select bank1
  4812  0290  07B2               	addwf	sprintf@eexp^(0+128),f
  4813  0291  1803               	skipnc
  4814  0292  0AB3               	incf	(sprintf@eexp+1)^(0+128),f
  4815  0293  30FF               	movlw	255
  4816  0294  07B3               	addwf	(sprintf@eexp+1)^(0+128),f
  4817                           
  4818                           ;doprnt.c: 1148: }else{
  4819  0295  2A9E               	goto	i1l3511
  4820  0296                     i1l3509:
  4821                           
  4822                           ;doprnt.c: 1149: eexp -= (sizeof dpowers/sizeof dpowers[0])-2;
  4823  0296  30F8               	movlw	248
  4824  0297  1683               	bsf	3,5	;RP0=1, select bank1
  4825  0298  1303               	bcf	3,6	;RP1=0, select bank1
  4826  0299  07B2               	addwf	sprintf@eexp^(0+128),f
  4827  029A  1803               	skipnc
  4828  029B  0AB3               	incf	(sprintf@eexp+1)^(0+128),f
  4829  029C  30FF               	movlw	255
  4830  029D  07B3               	addwf	(sprintf@eexp+1)^(0+128),f
  4831  029E                     i1l3511:
  4832                           
  4833                           ;doprnt.c: 1152: val = ((sizeof(double)== 3) ? _tdiv_to_l_(fval,tmpval.integ) : _div_to_
      +                          l_(fval,tmpval.integ));
  4834  029E  0832               	movf	sprintf@eexp^(0+128),w
  4835  029F  120A  158A  2140  120A  118A  	fcall	_scale
  4836  02A4  1283               	bcf	3,5	;RP0=0, select bank0
  4837  02A5  1303               	bcf	3,6	;RP1=0, select bank0
  4838  02A6  083D               	movf	?_scale+3,w
  4839  02A7  1683               	bsf	3,5	;RP0=1, select bank1
  4840  02A8  1303               	bcf	3,6	;RP1=0, select bank1
  4841  02A9  00B7               	movwf	(sprintf@tmpval+3)^(0+128)
  4842  02AA  1283               	bcf	3,5	;RP0=0, select bank0
  4843  02AB  1303               	bcf	3,6	;RP1=0, select bank0
  4844  02AC  083C               	movf	?_scale+2,w
  4845  02AD  1683               	bsf	3,5	;RP0=1, select bank1
  4846  02AE  1303               	bcf	3,6	;RP1=0, select bank1
  4847  02AF  00B6               	movwf	(sprintf@tmpval+2)^(0+128)
  4848  02B0  1283               	bcf	3,5	;RP0=0, select bank0
  4849  02B1  1303               	bcf	3,6	;RP1=0, select bank0
  4850  02B2  083B               	movf	?_scale+1,w
  4851  02B3  1683               	bsf	3,5	;RP0=1, select bank1
  4852  02B4  1303               	bcf	3,6	;RP1=0, select bank1
  4853  02B5  00B5               	movwf	(sprintf@tmpval+1)^(0+128)
  4854  02B6  1283               	bcf	3,5	;RP0=0, select bank0
  4855  02B7  1303               	bcf	3,6	;RP1=0, select bank0
  4856  02B8  083A               	movf	?_scale,w
  4857  02B9  1683               	bsf	3,5	;RP0=1, select bank1
  4858  02BA  1303               	bcf	3,6	;RP1=0, select bank1
  4859  02BB  00B4               	movwf	sprintf@tmpval^(0+128)
  4860  02BC                     i1l3513:
  4861  02BC  083C               	movf	(sprintf@fval+3)^(0+128),w
  4862  02BD  00F3               	movwf	__div_to_l_@f1+3
  4863  02BE  083B               	movf	(sprintf@fval+2)^(0+128),w
  4864  02BF  00F2               	movwf	__div_to_l_@f1+2
  4865  02C0  083A               	movf	(sprintf@fval+1)^(0+128),w
  4866  02C1  00F1               	movwf	__div_to_l_@f1+1
  4867  02C2  0839               	movf	sprintf@fval^(0+128),w
  4868  02C3  00F0               	movwf	__div_to_l_@f1
  4869  02C4  0837               	movf	(sprintf@tmpval+3)^(0+128),w
  4870  02C5  00F7               	movwf	__div_to_l_@f2+3
  4871  02C6  0836               	movf	(sprintf@tmpval+2)^(0+128),w
  4872  02C7  00F6               	movwf	__div_to_l_@f2+2
  4873  02C8  0835               	movf	(sprintf@tmpval+1)^(0+128),w
  4874  02C9  00F5               	movwf	__div_to_l_@f2+1
  4875  02CA  0834               	movf	sprintf@tmpval^(0+128),w
  4876  02CB  00F4               	movwf	__div_to_l_@f2
  4877  02CC  120A  118A  2733  120A  118A  	fcall	__div_to_l_
  4878  02D1  0873               	movf	?__div_to_l_+3,w
  4879  02D2  1683               	bsf	3,5	;RP0=1, select bank1
  4880  02D3  1303               	bcf	3,6	;RP1=0, select bank1
  4881  02D4  00B1               	movwf	(sprintf@val+3)^(0+128)
  4882  02D5  0872               	movf	?__div_to_l_+2,w
  4883  02D6  00B0               	movwf	(sprintf@val+2)^(0+128)
  4884  02D7  0871               	movf	?__div_to_l_+1,w
  4885  02D8  00AF               	movwf	(sprintf@val+1)^(0+128)
  4886  02D9  0870               	movf	?__div_to_l_,w
  4887  02DA  00AE               	movwf	sprintf@val^(0+128)
  4888  02DB                     i1l3517:
  4889                           
  4890                           ;doprnt.c: 1155: fval = 0.0;
  4891  02DB  3000               	movlw	0
  4892  02DC  00BC               	movwf	(sprintf@fval+3)^(0+128)
  4893  02DD  3000               	movlw	0
  4894  02DE  00BB               	movwf	(sprintf@fval+2)^(0+128)
  4895  02DF  3000               	movlw	0
  4896  02E0  00BA               	movwf	(sprintf@fval+1)^(0+128)
  4897  02E1  3000               	movlw	0
  4898  02E2  00B9               	movwf	sprintf@fval^(0+128)
  4899                           
  4900                           ;doprnt.c: 1156: } else {
  4901  02E3  2B68               	goto	i1l3523
  4902  02E4                     i1l3519:
  4903                           
  4904                           ;doprnt.c: 1157: val = (unsigned long)fval;
  4905  02E4  1683               	bsf	3,5	;RP0=1, select bank1
  4906  02E5  1303               	bcf	3,6	;RP1=0, select bank1
  4907  02E6  083C               	movf	(sprintf@fval+3)^(0+128),w
  4908  02E7  1283               	bcf	3,5	;RP0=0, select bank0
  4909  02E8  1303               	bcf	3,6	;RP1=0, select bank0
  4910  02E9  00BD               	movwf	___fltol@f1+3
  4911  02EA  1683               	bsf	3,5	;RP0=1, select bank1
  4912  02EB  1303               	bcf	3,6	;RP1=0, select bank1
  4913  02EC  083B               	movf	(sprintf@fval+2)^(0+128),w
  4914  02ED  1283               	bcf	3,5	;RP0=0, select bank0
  4915  02EE  1303               	bcf	3,6	;RP1=0, select bank0
  4916  02EF  00BC               	movwf	___fltol@f1+2
  4917  02F0  1683               	bsf	3,5	;RP0=1, select bank1
  4918  02F1  1303               	bcf	3,6	;RP1=0, select bank1
  4919  02F2  083A               	movf	(sprintf@fval+1)^(0+128),w
  4920  02F3  1283               	bcf	3,5	;RP0=0, select bank0
  4921  02F4  1303               	bcf	3,6	;RP1=0, select bank0
  4922  02F5  00BB               	movwf	___fltol@f1+1
  4923  02F6  1683               	bsf	3,5	;RP0=1, select bank1
  4924  02F7  1303               	bcf	3,6	;RP1=0, select bank1
  4925  02F8  0839               	movf	sprintf@fval^(0+128),w
  4926  02F9  1283               	bcf	3,5	;RP0=0, select bank0
  4927  02FA  1303               	bcf	3,6	;RP1=0, select bank0
  4928  02FB  00BA               	movwf	___fltol@f1
  4929  02FC  160A  158A  26E2  120A  118A  	fcall	___fltol
  4930  0301  1283               	bcf	3,5	;RP0=0, select bank0
  4931  0302  1303               	bcf	3,6	;RP1=0, select bank0
  4932  0303  083D               	movf	?___fltol+3,w
  4933  0304  1683               	bsf	3,5	;RP0=1, select bank1
  4934  0305  1303               	bcf	3,6	;RP1=0, select bank1
  4935  0306  00B1               	movwf	(sprintf@val+3)^(0+128)
  4936  0307  1283               	bcf	3,5	;RP0=0, select bank0
  4937  0308  1303               	bcf	3,6	;RP1=0, select bank0
  4938  0309  083C               	movf	?___fltol+2,w
  4939  030A  1683               	bsf	3,5	;RP0=1, select bank1
  4940  030B  1303               	bcf	3,6	;RP1=0, select bank1
  4941  030C  00B0               	movwf	(sprintf@val+2)^(0+128)
  4942  030D  1283               	bcf	3,5	;RP0=0, select bank0
  4943  030E  1303               	bcf	3,6	;RP1=0, select bank0
  4944  030F  083B               	movf	?___fltol+1,w
  4945  0310  1683               	bsf	3,5	;RP0=1, select bank1
  4946  0311  1303               	bcf	3,6	;RP1=0, select bank1
  4947  0312  00AF               	movwf	(sprintf@val+1)^(0+128)
  4948  0313  1283               	bcf	3,5	;RP0=0, select bank0
  4949  0314  1303               	bcf	3,6	;RP1=0, select bank0
  4950  0315  083A               	movf	?___fltol,w
  4951  0316  1683               	bsf	3,5	;RP0=1, select bank1
  4952  0317  1303               	bcf	3,6	;RP1=0, select bank1
  4953  0318  00AE               	movwf	sprintf@val^(0+128)
  4954                           
  4955                           ;doprnt.c: 1158: fval -= (double)val;
  4956  0319  0831               	movf	(sprintf@val+3)^(0+128),w
  4957  031A  00F3               	movwf	___xxtofl@val+3
  4958  031B  0830               	movf	(sprintf@val+2)^(0+128),w
  4959  031C  00F2               	movwf	___xxtofl@val+2
  4960  031D  082F               	movf	(sprintf@val+1)^(0+128),w
  4961  031E  00F1               	movwf	___xxtofl@val+1
  4962  031F  082E               	movf	sprintf@val^(0+128),w
  4963  0320  00F0               	movwf	___xxtofl@val
  4964  0321  3000               	movlw	0
  4965  0322  160A  118A  2019  120A  118A  	fcall	___xxtofl
  4966  0327  0873               	movf	?___xxtofl+3,w
  4967  0328  1283               	bcf	3,5	;RP0=0, select bank0
  4968  0329  1303               	bcf	3,6	;RP1=0, select bank0
  4969  032A  00E5               	movwf	___flsub@a+3
  4970  032B  0872               	movf	?___xxtofl+2,w
  4971  032C  00E4               	movwf	___flsub@a+2
  4972  032D  0871               	movf	?___xxtofl+1,w
  4973  032E  00E3               	movwf	___flsub@a+1
  4974  032F  0870               	movf	?___xxtofl,w
  4975  0330  00E2               	movwf	___flsub@a
  4976  0331  1683               	bsf	3,5	;RP0=1, select bank1
  4977  0332  1303               	bcf	3,6	;RP1=0, select bank1
  4978  0333  083C               	movf	(sprintf@fval+3)^(0+128),w
  4979  0334  1283               	bcf	3,5	;RP0=0, select bank0
  4980  0335  1303               	bcf	3,6	;RP1=0, select bank0
  4981  0336  00E9               	movwf	___flsub@b+3
  4982  0337  1683               	bsf	3,5	;RP0=1, select bank1
  4983  0338  1303               	bcf	3,6	;RP1=0, select bank1
  4984  0339  083B               	movf	(sprintf@fval+2)^(0+128),w
  4985  033A  1283               	bcf	3,5	;RP0=0, select bank0
  4986  033B  1303               	bcf	3,6	;RP1=0, select bank0
  4987  033C  00E8               	movwf	___flsub@b+2
  4988  033D  1683               	bsf	3,5	;RP0=1, select bank1
  4989  033E  1303               	bcf	3,6	;RP1=0, select bank1
  4990  033F  083A               	movf	(sprintf@fval+1)^(0+128),w
  4991  0340  1283               	bcf	3,5	;RP0=0, select bank0
  4992  0341  1303               	bcf	3,6	;RP1=0, select bank0
  4993  0342  00E7               	movwf	___flsub@b+1
  4994  0343  1683               	bsf	3,5	;RP0=1, select bank1
  4995  0344  1303               	bcf	3,6	;RP1=0, select bank1
  4996  0345  0839               	movf	sprintf@fval^(0+128),w
  4997  0346  1283               	bcf	3,5	;RP0=0, select bank0
  4998  0347  1303               	bcf	3,6	;RP1=0, select bank0
  4999  0348  00E6               	movwf	___flsub@b
  5000  0349  160A  158A  21CF  120A  118A  	fcall	___flsub
  5001  034E  1283               	bcf	3,5	;RP0=0, select bank0
  5002  034F  1303               	bcf	3,6	;RP1=0, select bank0
  5003  0350  0865               	movf	?___flsub+3,w
  5004  0351  1683               	bsf	3,5	;RP0=1, select bank1
  5005  0352  1303               	bcf	3,6	;RP1=0, select bank1
  5006  0353  00BC               	movwf	(sprintf@fval+3)^(0+128)
  5007  0354  1283               	bcf	3,5	;RP0=0, select bank0
  5008  0355  1303               	bcf	3,6	;RP1=0, select bank0
  5009  0356  0864               	movf	?___flsub+2,w
  5010  0357  1683               	bsf	3,5	;RP0=1, select bank1
  5011  0358  1303               	bcf	3,6	;RP1=0, select bank1
  5012  0359  00BB               	movwf	(sprintf@fval+2)^(0+128)
  5013  035A  1283               	bcf	3,5	;RP0=0, select bank0
  5014  035B  1303               	bcf	3,6	;RP1=0, select bank0
  5015  035C  0863               	movf	?___flsub+1,w
  5016  035D  1683               	bsf	3,5	;RP0=1, select bank1
  5017  035E  1303               	bcf	3,6	;RP1=0, select bank1
  5018  035F  00BA               	movwf	(sprintf@fval+1)^(0+128)
  5019  0360  1283               	bcf	3,5	;RP0=0, select bank0
  5020  0361  1303               	bcf	3,6	;RP1=0, select bank0
  5021  0362  0862               	movf	?___flsub,w
  5022  0363  1683               	bsf	3,5	;RP0=1, select bank1
  5023  0364  1303               	bcf	3,6	;RP1=0, select bank1
  5024  0365  00B9               	movwf	sprintf@fval^(0+128)
  5025  0366                     i1l3521:
  5026                           
  5027                           ;doprnt.c: 1159: eexp = 0;
  5028  0366  01B2               	clrf	sprintf@eexp^(0+128)
  5029  0367  01B3               	clrf	(sprintf@eexp+1)^(0+128)
  5030  0368                     i1l3523:
  5031                           
  5032                           ;doprnt.c: 1160: };doprnt.c: 1162: for(c = 1 ; c != (sizeof dpowers/sizeof dpowers[0]) ;
      +                           c++)
  5033  0368  01BD               	clrf	sprintf@c^(0+128)
  5034  0369  0ABD               	incf	sprintf@c^(0+128),f
  5035  036A                     i1l3529:
  5036                           
  5037                           ;doprnt.c: 1163: if(val < dpowers[c])
  5038  036A  083D               	movf	sprintf@c^(0+128),w
  5039  036B  00A0               	movwf	??_sprintf^(0+128)
  5040  036C  3001               	movlw	1
  5041  036D                     u586_25:
  5042  036D  1003               	clrc
  5043  036E  0DA0               	rlf	??_sprintf^(0+128),f
  5044  036F  3EFF               	addlw	-1
  5045  0370  1D03               	skipz
  5046  0371  2B6D               	goto	u586_25
  5047  0372  1003               	clrc
  5048  0373  0D20               	rlf	??_sprintf^(0+128),w
  5049  0374  3E69               	addlw	low ((_dpowers-__stringbase)| (0+32768))
  5050  0375  0084               	movwf	4
  5051  0376  160A  158A  200A  120A  118A  	fcall	stringdir
  5052  037B  00A1               	movwf	(??_sprintf+1)^(0+128)
  5053  037C  160A  158A  200A  120A  118A  	fcall	stringdir
  5054  0381  00A2               	movwf	((??_sprintf+1)^(0+128)+1)
  5055  0382  160A  158A  200A  120A  118A  	fcall	stringdir
  5056  0387  00A3               	movwf	((??_sprintf+1)^(0+128)+2)
  5057  0388  160A  158A  200A  120A  118A  	fcall	stringdir
  5058  038D  00A4               	movwf	((??_sprintf+1)^(0+128)+3)
  5059  038E  0824               	movf	(??_sprintf+4)^(0+128),w
  5060  038F  0231               	subwf	(sprintf@val+3)^(0+128),w
  5061  0390  1D03               	skipz
  5062  0391  2B9C               	goto	u587_25
  5063  0392  0823               	movf	(??_sprintf+3)^(0+128),w
  5064  0393  0230               	subwf	(sprintf@val+2)^(0+128),w
  5065  0394  1D03               	skipz
  5066  0395  2B9C               	goto	u587_25
  5067  0396  0822               	movf	(??_sprintf+2)^(0+128),w
  5068  0397  022F               	subwf	(sprintf@val+1)^(0+128),w
  5069  0398  1D03               	skipz
  5070  0399  2B9C               	goto	u587_25
  5071  039A  0821               	movf	(??_sprintf+1)^(0+128),w
  5072  039B  022E               	subwf	sprintf@val^(0+128),w
  5073  039C                     u587_25:
  5074  039C  1803               	skipnc
  5075  039D  2B9F               	goto	u587_21
  5076  039E  2BA0               	goto	u587_20
  5077  039F                     u587_21:
  5078  039F  2BA1               	goto	i1l3533
  5079  03A0                     u587_20:
  5080  03A0  2BAB               	goto	i1l3537
  5081  03A1                     i1l3533:
  5082  03A1  3001               	movlw	1
  5083  03A2  00FF               	movwf	btemp+1
  5084  03A3  087F               	movf	btemp+1,w
  5085  03A4  07BD               	addwf	sprintf@c^(0+128),f
  5086  03A5                     i1l3535:
  5087  03A5  300A               	movlw	10
  5088  03A6  063D               	xorwf	sprintf@c^(0+128),w
  5089  03A7  1D03               	btfss	3,2
  5090  03A8  2BAA               	goto	u588_21
  5091  03A9  2BAB               	goto	u588_20
  5092  03AA                     u588_21:
  5093  03AA  2B6A               	goto	i1l3529
  5094  03AB                     u588_20:
  5095  03AB                     i1l3537:
  5096                           
  5097                           ;doprnt.c: 1201: {;doprnt.c: 1214: if(flag & 0x03)
  5098  03AB  3003               	movlw	3
  5099  03AC  052A               	andwf	sprintf@flag^(0+128),w
  5100  03AD  00A0               	movwf	??_sprintf^(0+128)
  5101  03AE  3000               	movlw	0
  5102  03AF  052B               	andwf	(sprintf@flag+1)^(0+128),w
  5103  03B0  00A1               	movwf	(??_sprintf+1)^(0+128)
  5104  03B1  0820               	movf	??_sprintf^(0+128),w
  5105  03B2  0421               	iorwf	(??_sprintf^(0+128)+1),w
  5106  03B3  1903               	btfsc	3,2
  5107  03B4  2BB6               	goto	u589_21
  5108  03B5  2BB7               	goto	u589_20
  5109  03B6                     u589_21:
  5110  03B6  2C49               	goto	i1l3549
  5111  03B7                     u589_20:
  5112  03B7                     i1l3539:
  5113                           
  5114                           ;doprnt.c: 1216: ((*sp++ = ('-')));
  5115  03B7  302D               	movlw	45
  5116  03B8  00FF               	movwf	btemp+1
  5117  03B9  0838               	movf	sprintf@sp^(0+128),w
  5118  03BA  0084               	movwf	4
  5119  03BB  087F               	movf	btemp+1,w
  5120  03BC  1383               	bcf	3,7	;select IRP bank0
  5121  03BD  0080               	movwf	0
  5122  03BE                     i1l3541:
  5123  03BE  3001               	movlw	1
  5124  03BF  00FF               	movwf	btemp+1
  5125  03C0  087F               	movf	btemp+1,w
  5126  03C1  07B8               	addwf	sprintf@sp^(0+128),f
  5127  03C2  2C49               	goto	i1l3549
  5128  03C3                     i1l3543:
  5129                           
  5130                           ;doprnt.c: 1226: {;doprnt.c: 1227: tmpval.vd = val/dpowers[c];
  5131  03C3  083D               	movf	sprintf@c^(0+128),w
  5132  03C4  00A0               	movwf	??_sprintf^(0+128)
  5133  03C5  3001               	movlw	1
  5134  03C6                     u590_25:
  5135  03C6  1003               	clrc
  5136  03C7  0DA0               	rlf	??_sprintf^(0+128),f
  5137  03C8  3EFF               	addlw	-1
  5138  03C9  1D03               	skipz
  5139  03CA  2BC6               	goto	u590_25
  5140  03CB  1003               	clrc
  5141  03CC  0D20               	rlf	??_sprintf^(0+128),w
  5142  03CD  3E69               	addlw	low ((_dpowers-__stringbase)| (0+32768))
  5143  03CE  0084               	movwf	4
  5144  03CF  160A  158A  200A  120A  118A  	fcall	stringdir
  5145  03D4  00F0               	movwf	___lldiv@divisor
  5146  03D5  160A  158A  200A  120A  118A  	fcall	stringdir
  5147  03DA  00F1               	movwf	___lldiv@divisor+1
  5148  03DB  160A  158A  200A  120A  118A  	fcall	stringdir
  5149  03E0  00F2               	movwf	___lldiv@divisor+2
  5150  03E1  160A  158A  200A  120A  118A  	fcall	stringdir
  5151  03E6  00F3               	movwf	___lldiv@divisor+3
  5152  03E7  0831               	movf	(sprintf@val+3)^(0+128),w
  5153  03E8  00F7               	movwf	___lldiv@dividend+3
  5154  03E9  0830               	movf	(sprintf@val+2)^(0+128),w
  5155  03EA  00F6               	movwf	___lldiv@dividend+2
  5156  03EB  082F               	movf	(sprintf@val+1)^(0+128),w
  5157  03EC  00F5               	movwf	___lldiv@dividend+1
  5158  03ED  082E               	movf	sprintf@val^(0+128),w
  5159  03EE  00F4               	movwf	___lldiv@dividend
  5160  03EF  160A  158A  259C  120A  118A  	fcall	___lldiv
  5161  03F4  0873               	movf	?___lldiv+3,w
  5162  03F5  1683               	bsf	3,5	;RP0=1, select bank1
  5163  03F6  1303               	bcf	3,6	;RP1=0, select bank1
  5164  03F7  00B7               	movwf	(sprintf@tmpval+3)^(0+128)
  5165  03F8  0872               	movf	?___lldiv+2,w
  5166  03F9  00B6               	movwf	(sprintf@tmpval+2)^(0+128)
  5167  03FA  0871               	movf	?___lldiv+1,w
  5168  03FB  00B5               	movwf	(sprintf@tmpval+1)^(0+128)
  5169  03FC  0870               	movf	?___lldiv,w
  5170  03FD  00B4               	movwf	sprintf@tmpval^(0+128)
  5171  03FE                     i1l3545:
  5172                           
  5173                           ;doprnt.c: 1228: tmpval.vd %= 10;
  5174  03FE  3000               	movlw	0
  5175  03FF  1283               	bcf	3,5	;RP0=0, select bank0
  5176  0400  1303               	bcf	3,6	;RP1=0, select bank0
  5177  0401  00A3               	movwf	___llmod@divisor+3
  5178  0402  3000               	movlw	0
  5179  0403  00A2               	movwf	___llmod@divisor+2
  5180  0404  3000               	movlw	0
  5181  0405  00A1               	movwf	___llmod@divisor+1
  5182  0406  300A               	movlw	10
  5183  0407  00A0               	movwf	___llmod@divisor
  5184  0408  1683               	bsf	3,5	;RP0=1, select bank1
  5185  0409  1303               	bcf	3,6	;RP1=0, select bank1
  5186  040A  0837               	movf	(sprintf@tmpval+3)^(0+128),w
  5187  040B  1283               	bcf	3,5	;RP0=0, select bank0
  5188  040C  1303               	bcf	3,6	;RP1=0, select bank0
  5189  040D  00A7               	movwf	___llmod@dividend+3
  5190  040E  1683               	bsf	3,5	;RP0=1, select bank1
  5191  040F  1303               	bcf	3,6	;RP1=0, select bank1
  5192  0410  0836               	movf	(sprintf@tmpval+2)^(0+128),w
  5193  0411  1283               	bcf	3,5	;RP0=0, select bank0
  5194  0412  1303               	bcf	3,6	;RP1=0, select bank0
  5195  0413  00A6               	movwf	___llmod@dividend+2
  5196  0414  1683               	bsf	3,5	;RP0=1, select bank1
  5197  0415  1303               	bcf	3,6	;RP1=0, select bank1
  5198  0416  0835               	movf	(sprintf@tmpval+1)^(0+128),w
  5199  0417  1283               	bcf	3,5	;RP0=0, select bank0
  5200  0418  1303               	bcf	3,6	;RP1=0, select bank0
  5201  0419  00A5               	movwf	___llmod@dividend+1
  5202  041A  1683               	bsf	3,5	;RP0=1, select bank1
  5203  041B  1303               	bcf	3,6	;RP1=0, select bank1
  5204  041C  0834               	movf	sprintf@tmpval^(0+128),w
  5205  041D  1283               	bcf	3,5	;RP0=0, select bank0
  5206  041E  1303               	bcf	3,6	;RP1=0, select bank0
  5207  041F  00A4               	movwf	___llmod@dividend
  5208  0420  160A  158A  2439  120A  118A  	fcall	___llmod
  5209  0425  1283               	bcf	3,5	;RP0=0, select bank0
  5210  0426  1303               	bcf	3,6	;RP1=0, select bank0
  5211  0427  0823               	movf	?___llmod+3,w
  5212  0428  1683               	bsf	3,5	;RP0=1, select bank1
  5213  0429  1303               	bcf	3,6	;RP1=0, select bank1
  5214  042A  00B7               	movwf	(sprintf@tmpval+3)^(0+128)
  5215  042B  1283               	bcf	3,5	;RP0=0, select bank0
  5216  042C  1303               	bcf	3,6	;RP1=0, select bank0
  5217  042D  0822               	movf	?___llmod+2,w
  5218  042E  1683               	bsf	3,5	;RP0=1, select bank1
  5219  042F  1303               	bcf	3,6	;RP1=0, select bank1
  5220  0430  00B6               	movwf	(sprintf@tmpval+2)^(0+128)
  5221  0431  1283               	bcf	3,5	;RP0=0, select bank0
  5222  0432  1303               	bcf	3,6	;RP1=0, select bank0
  5223  0433  0821               	movf	?___llmod+1,w
  5224  0434  1683               	bsf	3,5	;RP0=1, select bank1
  5225  0435  1303               	bcf	3,6	;RP1=0, select bank1
  5226  0436  00B5               	movwf	(sprintf@tmpval+1)^(0+128)
  5227  0437  1283               	bcf	3,5	;RP0=0, select bank0
  5228  0438  1303               	bcf	3,6	;RP1=0, select bank0
  5229  0439  0820               	movf	?___llmod,w
  5230  043A  1683               	bsf	3,5	;RP0=1, select bank1
  5231  043B  1303               	bcf	3,6	;RP1=0, select bank1
  5232  043C  00B4               	movwf	sprintf@tmpval^(0+128)
  5233  043D                     i1l3547:
  5234                           
  5235                           ;doprnt.c: 1229: ((*sp++ = ('0' + tmpval.vd)));
  5236  043D  0834               	movf	sprintf@tmpval^(0+128),w
  5237  043E  3E30               	addlw	48
  5238  043F  00FF               	movwf	btemp+1
  5239  0440  0838               	movf	sprintf@sp^(0+128),w
  5240  0441  0084               	movwf	4
  5241  0442  087F               	movf	btemp+1,w
  5242  0443  1383               	bcf	3,7	;select IRP bank0
  5243  0444  0080               	movwf	0
  5244  0445  3001               	movlw	1
  5245  0446  00FF               	movwf	btemp+1
  5246  0447  087F               	movf	btemp+1,w
  5247  0448  07B8               	addwf	sprintf@sp^(0+128),f
  5248  0449                     i1l3549:
  5249  0449  3001               	movlw	1
  5250  044A  02BD               	subwf	sprintf@c^(0+128),f
  5251  044B  0A3D               	incf	sprintf@c^(0+128),w
  5252  044C  1D03               	btfss	3,2
  5253  044D  2C4F               	goto	u591_21
  5254  044E  2C50               	goto	u591_20
  5255  044F                     u591_21:
  5256  044F  2BC3               	goto	i1l3543
  5257  0450                     u591_20:
  5258  0450  2C64               	goto	i1l3557
  5259  0451                     i1l3551:
  5260                           
  5261                           ;doprnt.c: 1234: ((*sp++ = ('0')));
  5262  0451  3030               	movlw	48
  5263  0452  00FF               	movwf	btemp+1
  5264  0453  1683               	bsf	3,5	;RP0=1, select bank1
  5265  0454  1303               	bcf	3,6	;RP1=0, select bank1
  5266  0455  0838               	movf	sprintf@sp^(0+128),w
  5267  0456  0084               	movwf	4
  5268  0457  087F               	movf	btemp+1,w
  5269  0458  1383               	bcf	3,7	;select IRP bank0
  5270  0459  0080               	movwf	0
  5271  045A                     i1l3553:
  5272  045A  3001               	movlw	1
  5273  045B  00FF               	movwf	btemp+1
  5274  045C  087F               	movf	btemp+1,w
  5275  045D  07B8               	addwf	sprintf@sp^(0+128),f
  5276  045E                     i1l3555:
  5277                           
  5278                           ;doprnt.c: 1235: eexp--;
  5279  045E  30FF               	movlw	255
  5280  045F  07B2               	addwf	sprintf@eexp^(0+128),f
  5281  0460  1803               	skipnc
  5282  0461  0AB3               	incf	(sprintf@eexp+1)^(0+128),f
  5283  0462  30FF               	movlw	255
  5284  0463  07B3               	addwf	(sprintf@eexp+1)^(0+128),f
  5285  0464                     i1l3557:
  5286  0464  0833               	movf	(sprintf@eexp+1)^(0+128),w
  5287  0465  3A80               	xorlw	128
  5288  0466  00FF               	movwf	btemp+1
  5289  0467  3080               	movlw	128
  5290  0468  027F               	subwf	btemp+1,w
  5291  0469  1D03               	skipz
  5292  046A  2C6D               	goto	u592_25
  5293  046B  3001               	movlw	1
  5294  046C  0232               	subwf	sprintf@eexp^(0+128),w
  5295  046D                     u592_25:
  5296  046D  1803               	skipnc
  5297  046E  2C70               	goto	u592_21
  5298  046F  2C71               	goto	u592_20
  5299  0470                     u592_21:
  5300  0470  2C51               	goto	i1l3551
  5301  0471                     u592_20:
  5302  0471                     i1l3559:
  5303                           
  5304                           ;doprnt.c: 1236: };doprnt.c: 1237: if(prec > (int)((sizeof dpowers/sizeof dpowers[0])-2)
      +                          )
  5305  0471  1683               	bsf	3,5	;RP0=1, select bank1
  5306  0472  1303               	bcf	3,6	;RP1=0, select bank1
  5307  0473  082D               	movf	(sprintf@prec+1)^(0+128),w
  5308  0474  3A80               	xorlw	128
  5309  0475  00FF               	movwf	btemp+1
  5310  0476  3080               	movlw	128
  5311  0477  027F               	subwf	btemp+1,w
  5312  0478  1D03               	skipz
  5313  0479  2C7C               	goto	u593_25
  5314  047A  3009               	movlw	9
  5315  047B  022C               	subwf	sprintf@prec^(0+128),w
  5316  047C                     u593_25:
  5317  047C  1C03               	skipc
  5318  047D  2C7F               	goto	u593_21
  5319  047E  2C80               	goto	u593_20
  5320  047F                     u593_21:
  5321  047F  2C87               	goto	i1l3563
  5322  0480                     u593_20:
  5323  0480                     i1l3561:
  5324                           
  5325                           ;doprnt.c: 1238: c = (sizeof dpowers/sizeof dpowers[0])-2;
  5326  0480  3008               	movlw	8
  5327  0481  00FF               	movwf	btemp+1
  5328  0482  087F               	movf	btemp+1,w
  5329  0483  1683               	bsf	3,5	;RP0=1, select bank1
  5330  0484  1303               	bcf	3,6	;RP1=0, select bank1
  5331  0485  00BD               	movwf	sprintf@c^(0+128)
  5332  0486  2C8D               	goto	i1l3565
  5333  0487                     i1l3563:
  5334                           
  5335                           ;doprnt.c: 1239: else;doprnt.c: 1240: c = (char)prec;
  5336  0487  1683               	bsf	3,5	;RP0=1, select bank1
  5337  0488  1303               	bcf	3,6	;RP1=0, select bank1
  5338  0489  082C               	movf	sprintf@prec^(0+128),w
  5339  048A  00FF               	movwf	btemp+1
  5340  048B  087F               	movf	btemp+1,w
  5341  048C  00BD               	movwf	sprintf@c^(0+128)
  5342  048D                     i1l3565:
  5343                           
  5344                           ;doprnt.c: 1241: prec -= (int)c;
  5345  048D  083D               	movf	sprintf@c^(0+128),w
  5346  048E  00A0               	movwf	??_sprintf^(0+128)
  5347  048F  01A1               	clrf	(??_sprintf^(0+128)+1)
  5348  0490  0820               	movf	??_sprintf^(0+128),w
  5349  0491  02AC               	subwf	sprintf@prec^(0+128),f
  5350  0492  0821               	movf	(??_sprintf+1)^(0+128),w
  5351  0493  1C03               	skipc
  5352  0494  03AD               	decf	(sprintf@prec+1)^(0+128),f
  5353  0495  02AD               	subwf	(sprintf@prec+1)^(0+128),f
  5354  0496                     i1l3567:
  5355                           
  5356                           ;doprnt.c: 1245: if(c)
  5357  0496  083D               	movf	sprintf@c^(0+128),w
  5358  0497  1903               	btfsc	3,2
  5359  0498  2C9A               	goto	u594_21
  5360  0499  2C9B               	goto	u594_20
  5361  049A                     u594_21:
  5362  049A  2CA6               	goto	i1l3573
  5363  049B                     u594_20:
  5364  049B                     i1l3569:
  5365                           
  5366                           ;doprnt.c: 1247: ((*sp++ = ('.')));
  5367  049B  302E               	movlw	46
  5368  049C  00FF               	movwf	btemp+1
  5369  049D  0838               	movf	sprintf@sp^(0+128),w
  5370  049E  0084               	movwf	4
  5371  049F  087F               	movf	btemp+1,w
  5372  04A0  1383               	bcf	3,7	;select IRP bank0
  5373  04A1  0080               	movwf	0
  5374  04A2                     i1l3571:
  5375  04A2  3001               	movlw	1
  5376  04A3  00FF               	movwf	btemp+1
  5377  04A4  087F               	movf	btemp+1,w
  5378  04A5  07B8               	addwf	sprintf@sp^(0+128),f
  5379  04A6                     i1l3573:
  5380                           
  5381                           ;doprnt.c: 1253: val = (unsigned long)(fval * scale((signed char)c));
  5382  04A6  083D               	movf	sprintf@c^(0+128),w
  5383  04A7  120A  158A  2140  120A  118A  	fcall	_scale
  5384  04AC  1283               	bcf	3,5	;RP0=0, select bank0
  5385  04AD  1303               	bcf	3,6	;RP1=0, select bank0
  5386  04AE  083D               	movf	?_scale+3,w
  5387  04AF  1683               	bsf	3,5	;RP0=1, select bank1
  5388  04B0  1303               	bcf	3,6	;RP1=0, select bank1
  5389  04B1  00A8               	movwf	(_sprintf$976+3)^(0+128)
  5390  04B2  1283               	bcf	3,5	;RP0=0, select bank0
  5391  04B3  1303               	bcf	3,6	;RP1=0, select bank0
  5392  04B4  083C               	movf	?_scale+2,w
  5393  04B5  1683               	bsf	3,5	;RP0=1, select bank1
  5394  04B6  1303               	bcf	3,6	;RP1=0, select bank1
  5395  04B7  00A7               	movwf	(_sprintf$976+2)^(0+128)
  5396  04B8  1283               	bcf	3,5	;RP0=0, select bank0
  5397  04B9  1303               	bcf	3,6	;RP1=0, select bank0
  5398  04BA  083B               	movf	?_scale+1,w
  5399  04BB  1683               	bsf	3,5	;RP0=1, select bank1
  5400  04BC  1303               	bcf	3,6	;RP1=0, select bank1
  5401  04BD  00A6               	movwf	(_sprintf$976+1)^(0+128)
  5402  04BE  1283               	bcf	3,5	;RP0=0, select bank0
  5403  04BF  1303               	bcf	3,6	;RP1=0, select bank0
  5404  04C0  083A               	movf	?_scale,w
  5405  04C1  1683               	bsf	3,5	;RP0=1, select bank1
  5406  04C2  1303               	bcf	3,6	;RP1=0, select bank1
  5407  04C3  00A5               	movwf	_sprintf$976^(0+128)
  5408  04C4                     i1l3575:
  5409                           
  5410                           ;doprnt.c: 1253: val = (unsigned long)(fval * scale((signed char)c));
  5411  04C4  0828               	movf	(_sprintf$976+3)^(0+128),w
  5412  04C5  1283               	bcf	3,5	;RP0=0, select bank0
  5413  04C6  1303               	bcf	3,6	;RP1=0, select bank0
  5414  04C7  00A7               	movwf	___flmul@a+3
  5415  04C8  1683               	bsf	3,5	;RP0=1, select bank1
  5416  04C9  1303               	bcf	3,6	;RP1=0, select bank1
  5417  04CA  0827               	movf	(_sprintf$976+2)^(0+128),w
  5418  04CB  1283               	bcf	3,5	;RP0=0, select bank0
  5419  04CC  1303               	bcf	3,6	;RP1=0, select bank0
  5420  04CD  00A6               	movwf	___flmul@a+2
  5421  04CE  1683               	bsf	3,5	;RP0=1, select bank1
  5422  04CF  1303               	bcf	3,6	;RP1=0, select bank1
  5423  04D0  0826               	movf	(_sprintf$976+1)^(0+128),w
  5424  04D1  1283               	bcf	3,5	;RP0=0, select bank0
  5425  04D2  1303               	bcf	3,6	;RP1=0, select bank0
  5426  04D3  00A5               	movwf	___flmul@a+1
  5427  04D4  1683               	bsf	3,5	;RP0=1, select bank1
  5428  04D5  1303               	bcf	3,6	;RP1=0, select bank1
  5429  04D6  0825               	movf	_sprintf$976^(0+128),w
  5430  04D7  1283               	bcf	3,5	;RP0=0, select bank0
  5431  04D8  1303               	bcf	3,6	;RP1=0, select bank0
  5432  04D9  00A4               	movwf	___flmul@a
  5433  04DA  1683               	bsf	3,5	;RP0=1, select bank1
  5434  04DB  1303               	bcf	3,6	;RP1=0, select bank1
  5435  04DC  083C               	movf	(sprintf@fval+3)^(0+128),w
  5436  04DD  1283               	bcf	3,5	;RP0=0, select bank0
  5437  04DE  1303               	bcf	3,6	;RP1=0, select bank0
  5438  04DF  00A3               	movwf	___flmul@b+3
  5439  04E0  1683               	bsf	3,5	;RP0=1, select bank1
  5440  04E1  1303               	bcf	3,6	;RP1=0, select bank1
  5441  04E2  083B               	movf	(sprintf@fval+2)^(0+128),w
  5442  04E3  1283               	bcf	3,5	;RP0=0, select bank0
  5443  04E4  1303               	bcf	3,6	;RP1=0, select bank0
  5444  04E5  00A2               	movwf	___flmul@b+2
  5445  04E6  1683               	bsf	3,5	;RP0=1, select bank1
  5446  04E7  1303               	bcf	3,6	;RP1=0, select bank1
  5447  04E8  083A               	movf	(sprintf@fval+1)^(0+128),w
  5448  04E9  1283               	bcf	3,5	;RP0=0, select bank0
  5449  04EA  1303               	bcf	3,6	;RP1=0, select bank0
  5450  04EB  00A1               	movwf	___flmul@b+1
  5451  04EC  1683               	bsf	3,5	;RP0=1, select bank1
  5452  04ED  1303               	bcf	3,6	;RP1=0, select bank1
  5453  04EE  0839               	movf	sprintf@fval^(0+128),w
  5454  04EF  1283               	bcf	3,5	;RP0=0, select bank0
  5455  04F0  1303               	bcf	3,6	;RP1=0, select bank0
  5456  04F1  00A0               	movwf	___flmul@b
  5457  04F2  120A  158A  249F  120A  118A  	fcall	___flmul
  5458  04F7  1283               	bcf	3,5	;RP0=0, select bank0
  5459  04F8  1303               	bcf	3,6	;RP1=0, select bank0
  5460  04F9  0823               	movf	?___flmul+3,w
  5461  04FA  00BD               	movwf	___fltol@f1+3
  5462  04FB  0822               	movf	?___flmul+2,w
  5463  04FC  00BC               	movwf	___fltol@f1+2
  5464  04FD  0821               	movf	?___flmul+1,w
  5465  04FE  00BB               	movwf	___fltol@f1+1
  5466  04FF  0820               	movf	?___flmul,w
  5467  0500  00BA               	movwf	___fltol@f1
  5468  0501  160A  158A  26E2  120A  118A  	fcall	___fltol
  5469  0506  1283               	bcf	3,5	;RP0=0, select bank0
  5470  0507  1303               	bcf	3,6	;RP1=0, select bank0
  5471  0508  083D               	movf	?___fltol+3,w
  5472  0509  1683               	bsf	3,5	;RP0=1, select bank1
  5473  050A  1303               	bcf	3,6	;RP1=0, select bank1
  5474  050B  00B1               	movwf	(sprintf@val+3)^(0+128)
  5475  050C  1283               	bcf	3,5	;RP0=0, select bank0
  5476  050D  1303               	bcf	3,6	;RP1=0, select bank0
  5477  050E  083C               	movf	?___fltol+2,w
  5478  050F  1683               	bsf	3,5	;RP0=1, select bank1
  5479  0510  1303               	bcf	3,6	;RP1=0, select bank1
  5480  0511  00B0               	movwf	(sprintf@val+2)^(0+128)
  5481  0512  1283               	bcf	3,5	;RP0=0, select bank0
  5482  0513  1303               	bcf	3,6	;RP1=0, select bank0
  5483  0514  083B               	movf	?___fltol+1,w
  5484  0515  1683               	bsf	3,5	;RP0=1, select bank1
  5485  0516  1303               	bcf	3,6	;RP1=0, select bank1
  5486  0517  00AF               	movwf	(sprintf@val+1)^(0+128)
  5487  0518  1283               	bcf	3,5	;RP0=0, select bank0
  5488  0519  1303               	bcf	3,6	;RP1=0, select bank0
  5489  051A  083A               	movf	?___fltol,w
  5490  051B  1683               	bsf	3,5	;RP0=1, select bank1
  5491  051C  1303               	bcf	3,6	;RP1=0, select bank1
  5492  051D  00AE               	movwf	sprintf@val^(0+128)
  5493                           
  5494                           ;doprnt.c: 1254: while(c--) {
  5495  051E  2E00               	goto	i1l3585
  5496  051F                     i1l3577:
  5497                           
  5498                           ;doprnt.c: 1255: tmpval.vd = val/dpowers[c];
  5499  051F  083D               	movf	sprintf@c^(0+128),w
  5500  0520  00A0               	movwf	??_sprintf^(0+128)
  5501  0521  3001               	movlw	1
  5502  0522                     u595_25:
  5503  0522  1003               	clrc
  5504  0523  0DA0               	rlf	??_sprintf^(0+128),f
  5505  0524  3EFF               	addlw	-1
  5506  0525  1D03               	skipz
  5507  0526  2D22               	goto	u595_25
  5508  0527  1003               	clrc
  5509  0528  0D20               	rlf	??_sprintf^(0+128),w
  5510  0529  3E69               	addlw	low ((_dpowers-__stringbase)| (0+32768))
  5511  052A  0084               	movwf	4
  5512  052B  160A  158A  200A  120A  118A  	fcall	stringdir
  5513  0530  00F0               	movwf	___lldiv@divisor
  5514  0531  160A  158A  200A  120A  118A  	fcall	stringdir
  5515  0536  00F1               	movwf	___lldiv@divisor+1
  5516  0537  160A  158A  200A  120A  118A  	fcall	stringdir
  5517  053C  00F2               	movwf	___lldiv@divisor+2
  5518  053D  160A  158A  200A  120A  118A  	fcall	stringdir
  5519  0542  00F3               	movwf	___lldiv@divisor+3
  5520  0543  0831               	movf	(sprintf@val+3)^(0+128),w
  5521  0544  00F7               	movwf	___lldiv@dividend+3
  5522  0545  0830               	movf	(sprintf@val+2)^(0+128),w
  5523  0546  00F6               	movwf	___lldiv@dividend+2
  5524  0547  082F               	movf	(sprintf@val+1)^(0+128),w
  5525  0548  00F5               	movwf	___lldiv@dividend+1
  5526  0549  082E               	movf	sprintf@val^(0+128),w
  5527  054A  00F4               	movwf	___lldiv@dividend
  5528  054B  160A  158A  259C  120A  118A  	fcall	___lldiv
  5529  0550  0873               	movf	?___lldiv+3,w
  5530  0551  1683               	bsf	3,5	;RP0=1, select bank1
  5531  0552  1303               	bcf	3,6	;RP1=0, select bank1
  5532  0553  00B7               	movwf	(sprintf@tmpval+3)^(0+128)
  5533  0554  0872               	movf	?___lldiv+2,w
  5534  0555  00B6               	movwf	(sprintf@tmpval+2)^(0+128)
  5535  0556  0871               	movf	?___lldiv+1,w
  5536  0557  00B5               	movwf	(sprintf@tmpval+1)^(0+128)
  5537  0558  0870               	movf	?___lldiv,w
  5538  0559  00B4               	movwf	sprintf@tmpval^(0+128)
  5539  055A                     i1l3579:
  5540                           
  5541                           ;doprnt.c: 1256: tmpval.vd %= 10;
  5542  055A  3000               	movlw	0
  5543  055B  1283               	bcf	3,5	;RP0=0, select bank0
  5544  055C  1303               	bcf	3,6	;RP1=0, select bank0
  5545  055D  00A3               	movwf	___llmod@divisor+3
  5546  055E  3000               	movlw	0
  5547  055F  00A2               	movwf	___llmod@divisor+2
  5548  0560  3000               	movlw	0
  5549  0561  00A1               	movwf	___llmod@divisor+1
  5550  0562  300A               	movlw	10
  5551  0563  00A0               	movwf	___llmod@divisor
  5552  0564  1683               	bsf	3,5	;RP0=1, select bank1
  5553  0565  1303               	bcf	3,6	;RP1=0, select bank1
  5554  0566  0837               	movf	(sprintf@tmpval+3)^(0+128),w
  5555  0567  1283               	bcf	3,5	;RP0=0, select bank0
  5556  0568  1303               	bcf	3,6	;RP1=0, select bank0
  5557  0569  00A7               	movwf	___llmod@dividend+3
  5558  056A  1683               	bsf	3,5	;RP0=1, select bank1
  5559  056B  1303               	bcf	3,6	;RP1=0, select bank1
  5560  056C  0836               	movf	(sprintf@tmpval+2)^(0+128),w
  5561  056D  1283               	bcf	3,5	;RP0=0, select bank0
  5562  056E  1303               	bcf	3,6	;RP1=0, select bank0
  5563  056F  00A6               	movwf	___llmod@dividend+2
  5564  0570  1683               	bsf	3,5	;RP0=1, select bank1
  5565  0571  1303               	bcf	3,6	;RP1=0, select bank1
  5566  0572  0835               	movf	(sprintf@tmpval+1)^(0+128),w
  5567  0573  1283               	bcf	3,5	;RP0=0, select bank0
  5568  0574  1303               	bcf	3,6	;RP1=0, select bank0
  5569  0575  00A5               	movwf	___llmod@dividend+1
  5570  0576  1683               	bsf	3,5	;RP0=1, select bank1
  5571  0577  1303               	bcf	3,6	;RP1=0, select bank1
  5572  0578  0834               	movf	sprintf@tmpval^(0+128),w
  5573  0579  1283               	bcf	3,5	;RP0=0, select bank0
  5574  057A  1303               	bcf	3,6	;RP1=0, select bank0
  5575  057B  00A4               	movwf	___llmod@dividend
  5576  057C  160A  158A  2439  120A  118A  	fcall	___llmod
  5577  0581  1283               	bcf	3,5	;RP0=0, select bank0
  5578  0582  1303               	bcf	3,6	;RP1=0, select bank0
  5579  0583  0823               	movf	?___llmod+3,w
  5580  0584  1683               	bsf	3,5	;RP0=1, select bank1
  5581  0585  1303               	bcf	3,6	;RP1=0, select bank1
  5582  0586  00B7               	movwf	(sprintf@tmpval+3)^(0+128)
  5583  0587  1283               	bcf	3,5	;RP0=0, select bank0
  5584  0588  1303               	bcf	3,6	;RP1=0, select bank0
  5585  0589  0822               	movf	?___llmod+2,w
  5586  058A  1683               	bsf	3,5	;RP0=1, select bank1
  5587  058B  1303               	bcf	3,6	;RP1=0, select bank1
  5588  058C  00B6               	movwf	(sprintf@tmpval+2)^(0+128)
  5589  058D  1283               	bcf	3,5	;RP0=0, select bank0
  5590  058E  1303               	bcf	3,6	;RP1=0, select bank0
  5591  058F  0821               	movf	?___llmod+1,w
  5592  0590  1683               	bsf	3,5	;RP0=1, select bank1
  5593  0591  1303               	bcf	3,6	;RP1=0, select bank1
  5594  0592  00B5               	movwf	(sprintf@tmpval+1)^(0+128)
  5595  0593  1283               	bcf	3,5	;RP0=0, select bank0
  5596  0594  1303               	bcf	3,6	;RP1=0, select bank0
  5597  0595  0820               	movf	?___llmod,w
  5598  0596  1683               	bsf	3,5	;RP0=1, select bank1
  5599  0597  1303               	bcf	3,6	;RP1=0, select bank1
  5600  0598  00B4               	movwf	sprintf@tmpval^(0+128)
  5601  0599                     i1l3581:
  5602                           
  5603                           ;doprnt.c: 1257: ((*sp++ = ('0' + tmpval.vd)));
  5604  0599  0834               	movf	sprintf@tmpval^(0+128),w
  5605  059A  3E30               	addlw	48
  5606  059B  00FF               	movwf	btemp+1
  5607  059C  0838               	movf	sprintf@sp^(0+128),w
  5608  059D  0084               	movwf	4
  5609  059E  087F               	movf	btemp+1,w
  5610  059F  1383               	bcf	3,7	;select IRP bank0
  5611  05A0  0080               	movwf	0
  5612  05A1  3001               	movlw	1
  5613  05A2  00FF               	movwf	btemp+1
  5614  05A3  087F               	movf	btemp+1,w
  5615  05A4  07B8               	addwf	sprintf@sp^(0+128),f
  5616  05A5                     i1l3583:
  5617                           
  5618                           ;doprnt.c: 1258: val %= dpowers[c];
  5619  05A5  083D               	movf	sprintf@c^(0+128),w
  5620  05A6  00A0               	movwf	??_sprintf^(0+128)
  5621  05A7  3001               	movlw	1
  5622  05A8                     u596_25:
  5623  05A8  1003               	clrc
  5624  05A9  0DA0               	rlf	??_sprintf^(0+128),f
  5625  05AA  3EFF               	addlw	-1
  5626  05AB  1D03               	skipz
  5627  05AC  2DA8               	goto	u596_25
  5628  05AD  1003               	clrc
  5629  05AE  0D20               	rlf	??_sprintf^(0+128),w
  5630  05AF  3E69               	addlw	low ((_dpowers-__stringbase)| (0+32768))
  5631  05B0  0084               	movwf	4
  5632  05B1  160A  158A  200A  120A  118A  	fcall	stringdir
  5633  05B6  1283               	bcf	3,5	;RP0=0, select bank0
  5634  05B7  1303               	bcf	3,6	;RP1=0, select bank0
  5635  05B8  00A0               	movwf	___llmod@divisor
  5636  05B9  160A  158A  200A  120A  118A  	fcall	stringdir
  5637  05BE  00A1               	movwf	___llmod@divisor+1
  5638  05BF  160A  158A  200A  120A  118A  	fcall	stringdir
  5639  05C4  00A2               	movwf	___llmod@divisor+2
  5640  05C5  160A  158A  200A  120A  118A  	fcall	stringdir
  5641  05CA  00A3               	movwf	___llmod@divisor+3
  5642  05CB  1683               	bsf	3,5	;RP0=1, select bank1
  5643  05CC  1303               	bcf	3,6	;RP1=0, select bank1
  5644  05CD  0831               	movf	(sprintf@val+3)^(0+128),w
  5645  05CE  1283               	bcf	3,5	;RP0=0, select bank0
  5646  05CF  1303               	bcf	3,6	;RP1=0, select bank0
  5647  05D0  00A7               	movwf	___llmod@dividend+3
  5648  05D1  1683               	bsf	3,5	;RP0=1, select bank1
  5649  05D2  1303               	bcf	3,6	;RP1=0, select bank1
  5650  05D3  0830               	movf	(sprintf@val+2)^(0+128),w
  5651  05D4  1283               	bcf	3,5	;RP0=0, select bank0
  5652  05D5  1303               	bcf	3,6	;RP1=0, select bank0
  5653  05D6  00A6               	movwf	___llmod@dividend+2
  5654  05D7  1683               	bsf	3,5	;RP0=1, select bank1
  5655  05D8  1303               	bcf	3,6	;RP1=0, select bank1
  5656  05D9  082F               	movf	(sprintf@val+1)^(0+128),w
  5657  05DA  1283               	bcf	3,5	;RP0=0, select bank0
  5658  05DB  1303               	bcf	3,6	;RP1=0, select bank0
  5659  05DC  00A5               	movwf	___llmod@dividend+1
  5660  05DD  1683               	bsf	3,5	;RP0=1, select bank1
  5661  05DE  1303               	bcf	3,6	;RP1=0, select bank1
  5662  05DF  082E               	movf	sprintf@val^(0+128),w
  5663  05E0  1283               	bcf	3,5	;RP0=0, select bank0
  5664  05E1  1303               	bcf	3,6	;RP1=0, select bank0
  5665  05E2  00A4               	movwf	___llmod@dividend
  5666  05E3  160A  158A  2439  120A  118A  	fcall	___llmod
  5667  05E8  1283               	bcf	3,5	;RP0=0, select bank0
  5668  05E9  1303               	bcf	3,6	;RP1=0, select bank0
  5669  05EA  0823               	movf	?___llmod+3,w
  5670  05EB  1683               	bsf	3,5	;RP0=1, select bank1
  5671  05EC  1303               	bcf	3,6	;RP1=0, select bank1
  5672  05ED  00B1               	movwf	(sprintf@val+3)^(0+128)
  5673  05EE  1283               	bcf	3,5	;RP0=0, select bank0
  5674  05EF  1303               	bcf	3,6	;RP1=0, select bank0
  5675  05F0  0822               	movf	?___llmod+2,w
  5676  05F1  1683               	bsf	3,5	;RP0=1, select bank1
  5677  05F2  1303               	bcf	3,6	;RP1=0, select bank1
  5678  05F3  00B0               	movwf	(sprintf@val+2)^(0+128)
  5679  05F4  1283               	bcf	3,5	;RP0=0, select bank0
  5680  05F5  1303               	bcf	3,6	;RP1=0, select bank0
  5681  05F6  0821               	movf	?___llmod+1,w
  5682  05F7  1683               	bsf	3,5	;RP0=1, select bank1
  5683  05F8  1303               	bcf	3,6	;RP1=0, select bank1
  5684  05F9  00AF               	movwf	(sprintf@val+1)^(0+128)
  5685  05FA  1283               	bcf	3,5	;RP0=0, select bank0
  5686  05FB  1303               	bcf	3,6	;RP1=0, select bank0
  5687  05FC  0820               	movf	?___llmod,w
  5688  05FD  1683               	bsf	3,5	;RP0=1, select bank1
  5689  05FE  1303               	bcf	3,6	;RP1=0, select bank1
  5690  05FF  00AE               	movwf	sprintf@val^(0+128)
  5691  0600                     i1l3585:
  5692  0600  3001               	movlw	1
  5693  0601  02BD               	subwf	sprintf@c^(0+128),f
  5694  0602  0A3D               	incf	sprintf@c^(0+128),w
  5695  0603  1D03               	btfss	3,2
  5696  0604  2E06               	goto	u597_21
  5697  0605  2E07               	goto	u597_20
  5698  0606                     u597_21:
  5699  0606  2D1F               	goto	i1l3577
  5700  0607                     u597_20:
  5701  0607  2E19               	goto	i1l3593
  5702  0608                     i1l3587:
  5703                           
  5704                           ;doprnt.c: 1262: ((*sp++ = ('0')));
  5705  0608  3030               	movlw	48
  5706  0609  00FF               	movwf	btemp+1
  5707  060A  0838               	movf	sprintf@sp^(0+128),w
  5708  060B  0084               	movwf	4
  5709  060C  087F               	movf	btemp+1,w
  5710  060D  1383               	bcf	3,7	;select IRP bank0
  5711  060E  0080               	movwf	0
  5712  060F                     i1l3589:
  5713  060F  3001               	movlw	1
  5714  0610  00FF               	movwf	btemp+1
  5715  0611  087F               	movf	btemp+1,w
  5716  0612  07B8               	addwf	sprintf@sp^(0+128),f
  5717  0613                     i1l3591:
  5718                           
  5719                           ;doprnt.c: 1263: prec--;
  5720  0613  30FF               	movlw	255
  5721  0614  07AC               	addwf	sprintf@prec^(0+128),f
  5722  0615  1803               	skipnc
  5723  0616  0AAD               	incf	(sprintf@prec+1)^(0+128),f
  5724  0617  30FF               	movlw	255
  5725  0618  07AD               	addwf	(sprintf@prec+1)^(0+128),f
  5726  0619                     i1l3593:
  5727  0619  082C               	movf	sprintf@prec^(0+128),w
  5728  061A  042D               	iorwf	(sprintf@prec+1)^(0+128),w
  5729  061B  1D03               	btfss	3,2
  5730  061C  2E1E               	goto	u598_21
  5731  061D  2E1F               	goto	u598_20
  5732  061E                     u598_21:
  5733  061E  2E08               	goto	i1l3587
  5734  061F                     u598_20:
  5735  061F  2F18               	goto	i1l3635
  5736  0620                     i1l3595:
  5737                           
  5738                           ;doprnt.c: 1272: };doprnt.c: 1279: {;doprnt.c: 1285: val = (unsigned long)(*(int *)__va_
      +                          arg((*(int **)ap), (int)0));
  5739  0620  0829               	movf	sprintf@ap^(0+128),w
  5740  0621  0084               	movwf	4
  5741  0622  1383               	bcf	3,7	;select IRP bank0
  5742  0623  0800               	movf	0,w
  5743  0624  00A0               	movwf	??_sprintf^(0+128)
  5744  0625  0A84               	incf	4,f
  5745  0626  0800               	movf	0,w
  5746  0627  00A1               	movwf	(??_sprintf^(0+128)+1)
  5747  0628  0820               	movf	??_sprintf^(0+128),w
  5748  0629  00AE               	movwf	sprintf@val^(0+128)
  5749  062A  0821               	movf	(??_sprintf+1)^(0+128),w
  5750  062B  00AF               	movwf	(sprintf@val+1)^(0+128)
  5751  062C  3000               	movlw	0
  5752  062D  1BAF               	btfsc	(sprintf@val+1)^(0+128),7
  5753  062E  30FF               	movlw	255
  5754  062F  00B0               	movwf	(sprintf@val+2)^(0+128)
  5755  0630  00B1               	movwf	(sprintf@val+3)^(0+128)
  5756  0631                     i1l3597:
  5757  0631  3002               	movlw	2
  5758  0632  00FF               	movwf	btemp+1
  5759  0633  087F               	movf	btemp+1,w
  5760  0634  07A9               	addwf	sprintf@ap^(0+128),f
  5761  0635                     i1l3599:
  5762                           
  5763                           ;doprnt.c: 1287: if((long)val < 0) {
  5764  0635  1FB1               	btfss	(sprintf@val+3)^(0+128),7
  5765  0636  2E38               	goto	u599_21
  5766  0637  2E39               	goto	u599_20
  5767  0638                     u599_21:
  5768  0638  2E48               	goto	i1l3605
  5769  0639                     u599_20:
  5770  0639                     i1l3601:
  5771                           
  5772                           ;doprnt.c: 1288: flag |= 0x03;
  5773  0639  3003               	movlw	3
  5774  063A  04AA               	iorwf	sprintf@flag^(0+128),f
  5775  063B  3000               	movlw	0
  5776  063C  04AB               	iorwf	(sprintf@flag+1)^(0+128),f
  5777  063D                     i1l3603:
  5778                           
  5779                           ;doprnt.c: 1289: val = -val;
  5780  063D  09AE               	comf	sprintf@val^(0+128),f
  5781  063E  09AF               	comf	(sprintf@val+1)^(0+128),f
  5782  063F  09B0               	comf	(sprintf@val+2)^(0+128),f
  5783  0640  09B1               	comf	(sprintf@val+3)^(0+128),f
  5784  0641  0AAE               	incf	sprintf@val^(0+128),f
  5785  0642  1903               	skipnz
  5786  0643  0AAF               	incf	(sprintf@val+1)^(0+128),f
  5787  0644  1903               	skipnz
  5788  0645  0AB0               	incf	(sprintf@val+2)^(0+128),f
  5789  0646  1903               	skipnz
  5790  0647  0AB1               	incf	(sprintf@val+3)^(0+128),f
  5791  0648                     i1l3605:
  5792                           
  5793                           ;doprnt.c: 1290: };doprnt.c: 1292: };doprnt.c: 1331: for(c = 1 ; c != sizeof dpowers/siz
      +                          eof dpowers[0] ; c++)
  5794  0648  01BD               	clrf	sprintf@c^(0+128)
  5795  0649  0ABD               	incf	sprintf@c^(0+128),f
  5796  064A                     i1l3611:
  5797                           
  5798                           ;doprnt.c: 1332: if(val < dpowers[c])
  5799  064A  083D               	movf	sprintf@c^(0+128),w
  5800  064B  00A0               	movwf	??_sprintf^(0+128)
  5801  064C  3001               	movlw	1
  5802  064D                     u600_25:
  5803  064D  1003               	clrc
  5804  064E  0DA0               	rlf	??_sprintf^(0+128),f
  5805  064F  3EFF               	addlw	-1
  5806  0650  1D03               	skipz
  5807  0651  2E4D               	goto	u600_25
  5808  0652  1003               	clrc
  5809  0653  0D20               	rlf	??_sprintf^(0+128),w
  5810  0654  3E69               	addlw	low ((_dpowers-__stringbase)| (0+32768))
  5811  0655  0084               	movwf	4
  5812  0656  160A  158A  200A  120A  118A  	fcall	stringdir
  5813  065B  00A1               	movwf	(??_sprintf+1)^(0+128)
  5814  065C  160A  158A  200A  120A  118A  	fcall	stringdir
  5815  0661  00A2               	movwf	((??_sprintf+1)^(0+128)+1)
  5816  0662  160A  158A  200A  120A  118A  	fcall	stringdir
  5817  0667  00A3               	movwf	((??_sprintf+1)^(0+128)+2)
  5818  0668  160A  158A  200A  120A  118A  	fcall	stringdir
  5819  066D  00A4               	movwf	((??_sprintf+1)^(0+128)+3)
  5820  066E  0824               	movf	(??_sprintf+4)^(0+128),w
  5821  066F  0231               	subwf	(sprintf@val+3)^(0+128),w
  5822  0670  1D03               	skipz
  5823  0671  2E7C               	goto	u601_25
  5824  0672  0823               	movf	(??_sprintf+3)^(0+128),w
  5825  0673  0230               	subwf	(sprintf@val+2)^(0+128),w
  5826  0674  1D03               	skipz
  5827  0675  2E7C               	goto	u601_25
  5828  0676  0822               	movf	(??_sprintf+2)^(0+128),w
  5829  0677  022F               	subwf	(sprintf@val+1)^(0+128),w
  5830  0678  1D03               	skipz
  5831  0679  2E7C               	goto	u601_25
  5832  067A  0821               	movf	(??_sprintf+1)^(0+128),w
  5833  067B  022E               	subwf	sprintf@val^(0+128),w
  5834  067C                     u601_25:
  5835  067C  1803               	skipnc
  5836  067D  2E7F               	goto	u601_21
  5837  067E  2E80               	goto	u601_20
  5838  067F                     u601_21:
  5839  067F  2E81               	goto	i1l3615
  5840  0680                     u601_20:
  5841  0680  2E8B               	goto	i1l3619
  5842  0681                     i1l3615:
  5843  0681  3001               	movlw	1
  5844  0682  00FF               	movwf	btemp+1
  5845  0683  087F               	movf	btemp+1,w
  5846  0684  07BD               	addwf	sprintf@c^(0+128),f
  5847  0685                     i1l3617:
  5848  0685  300A               	movlw	10
  5849  0686  063D               	xorwf	sprintf@c^(0+128),w
  5850  0687  1D03               	btfss	3,2
  5851  0688  2E8A               	goto	u602_21
  5852  0689  2E8B               	goto	u602_20
  5853  068A                     u602_21:
  5854  068A  2E4A               	goto	i1l3611
  5855  068B                     u602_20:
  5856  068B                     i1l3619:
  5857                           
  5858                           ;doprnt.c: 1448: {;doprnt.c: 1464: if(flag & 0x03)
  5859  068B  3003               	movlw	3
  5860  068C  052A               	andwf	sprintf@flag^(0+128),w
  5861  068D  00A0               	movwf	??_sprintf^(0+128)
  5862  068E  3000               	movlw	0
  5863  068F  052B               	andwf	(sprintf@flag+1)^(0+128),w
  5864  0690  00A1               	movwf	(??_sprintf+1)^(0+128)
  5865  0691  0820               	movf	??_sprintf^(0+128),w
  5866  0692  0421               	iorwf	(??_sprintf^(0+128)+1),w
  5867  0693  1903               	btfsc	3,2
  5868  0694  2E96               	goto	u603_21
  5869  0695  2E97               	goto	u603_20
  5870  0696                     u603_21:
  5871  0696  2EA2               	goto	i1l3625
  5872  0697                     u603_20:
  5873  0697                     i1l3621:
  5874                           
  5875                           ;doprnt.c: 1465: ((*sp++ = ('-')));
  5876  0697  302D               	movlw	45
  5877  0698  00FF               	movwf	btemp+1
  5878  0699  0838               	movf	sprintf@sp^(0+128),w
  5879  069A  0084               	movwf	4
  5880  069B  087F               	movf	btemp+1,w
  5881  069C  1383               	bcf	3,7	;select IRP bank0
  5882  069D  0080               	movwf	0
  5883  069E                     i1l3623:
  5884  069E  3001               	movlw	1
  5885  069F  00FF               	movwf	btemp+1
  5886  06A0  087F               	movf	btemp+1,w
  5887  06A1  07B8               	addwf	sprintf@sp^(0+128),f
  5888  06A2                     i1l3625:
  5889                           
  5890                           ;doprnt.c: 1495: };doprnt.c: 1498: prec = c;
  5891  06A2  083D               	movf	sprintf@c^(0+128),w
  5892  06A3  00A0               	movwf	??_sprintf^(0+128)
  5893  06A4  01A1               	clrf	(??_sprintf^(0+128)+1)
  5894  06A5  0820               	movf	??_sprintf^(0+128),w
  5895  06A6  00AC               	movwf	sprintf@prec^(0+128)
  5896  06A7  0821               	movf	(??_sprintf+1)^(0+128),w
  5897  06A8  00AD               	movwf	(sprintf@prec+1)^(0+128)
  5898                           
  5899                           ;doprnt.c: 1500: while(prec--) {
  5900  06A9  2F0A               	goto	i1l3633
  5901  06AA                     i1l3627:
  5902                           
  5903                           ;doprnt.c: 1504: {;doprnt.c: 1515: c = (val / dpowers[(unsigned int)prec]) % 10 + '0';
  5904  06AA  3000               	movlw	0
  5905  06AB  1283               	bcf	3,5	;RP0=0, select bank0
  5906  06AC  1303               	bcf	3,6	;RP1=0, select bank0
  5907  06AD  00A3               	movwf	___llmod@divisor+3
  5908  06AE  3000               	movlw	0
  5909  06AF  00A2               	movwf	___llmod@divisor+2
  5910  06B0  3000               	movlw	0
  5911  06B1  00A1               	movwf	___llmod@divisor+1
  5912  06B2  300A               	movlw	10
  5913  06B3  00A0               	movwf	___llmod@divisor
  5914  06B4  1683               	bsf	3,5	;RP0=1, select bank1
  5915  06B5  1303               	bcf	3,6	;RP1=0, select bank1
  5916  06B6  082C               	movf	sprintf@prec^(0+128),w
  5917  06B7  00A0               	movwf	??_sprintf^(0+128)
  5918  06B8  3001               	movlw	1
  5919  06B9                     u604_25:
  5920  06B9  1003               	clrc
  5921  06BA  0DA0               	rlf	??_sprintf^(0+128),f
  5922  06BB  3EFF               	addlw	-1
  5923  06BC  1D03               	skipz
  5924  06BD  2EB9               	goto	u604_25
  5925  06BE  1003               	clrc
  5926  06BF  0D20               	rlf	??_sprintf^(0+128),w
  5927  06C0  3E69               	addlw	low ((_dpowers-__stringbase)| (0+32768))
  5928  06C1  0084               	movwf	4
  5929  06C2  160A  158A  200A  120A  118A  	fcall	stringdir
  5930  06C7  00F0               	movwf	___lldiv@divisor
  5931  06C8  160A  158A  200A  120A  118A  	fcall	stringdir
  5932  06CD  00F1               	movwf	___lldiv@divisor+1
  5933  06CE  160A  158A  200A  120A  118A  	fcall	stringdir
  5934  06D3  00F2               	movwf	___lldiv@divisor+2
  5935  06D4  160A  158A  200A  120A  118A  	fcall	stringdir
  5936  06D9  00F3               	movwf	___lldiv@divisor+3
  5937  06DA  0831               	movf	(sprintf@val+3)^(0+128),w
  5938  06DB  00F7               	movwf	___lldiv@dividend+3
  5939  06DC  0830               	movf	(sprintf@val+2)^(0+128),w
  5940  06DD  00F6               	movwf	___lldiv@dividend+2
  5941  06DE  082F               	movf	(sprintf@val+1)^(0+128),w
  5942  06DF  00F5               	movwf	___lldiv@dividend+1
  5943  06E0  082E               	movf	sprintf@val^(0+128),w
  5944  06E1  00F4               	movwf	___lldiv@dividend
  5945  06E2  160A  158A  259C  120A  118A  	fcall	___lldiv
  5946  06E7  0873               	movf	?___lldiv+3,w
  5947  06E8  1283               	bcf	3,5	;RP0=0, select bank0
  5948  06E9  1303               	bcf	3,6	;RP1=0, select bank0
  5949  06EA  00A7               	movwf	___llmod@dividend+3
  5950  06EB  0872               	movf	?___lldiv+2,w
  5951  06EC  00A6               	movwf	___llmod@dividend+2
  5952  06ED  0871               	movf	?___lldiv+1,w
  5953  06EE  00A5               	movwf	___llmod@dividend+1
  5954  06EF  0870               	movf	?___lldiv,w
  5955  06F0  00A4               	movwf	___llmod@dividend
  5956  06F1  160A  158A  2439  120A  118A  	fcall	___llmod
  5957  06F6  1283               	bcf	3,5	;RP0=0, select bank0
  5958  06F7  1303               	bcf	3,6	;RP1=0, select bank0
  5959  06F8  0820               	movf	?___llmod,w
  5960  06F9  3E30               	addlw	48
  5961  06FA  00FF               	movwf	btemp+1
  5962  06FB  087F               	movf	btemp+1,w
  5963  06FC  1683               	bsf	3,5	;RP0=1, select bank1
  5964  06FD  1303               	bcf	3,6	;RP1=0, select bank1
  5965  06FE  00BD               	movwf	sprintf@c^(0+128)
  5966  06FF                     i1l3629:
  5967                           
  5968                           ;doprnt.c: 1549: };doprnt.c: 1550: ((*sp++ = (c)));
  5969  06FF  083D               	movf	sprintf@c^(0+128),w
  5970  0700  00FF               	movwf	btemp+1
  5971  0701  0838               	movf	sprintf@sp^(0+128),w
  5972  0702  0084               	movwf	4
  5973  0703  087F               	movf	btemp+1,w
  5974  0704  1383               	bcf	3,7	;select IRP bank0
  5975  0705  0080               	movwf	0
  5976  0706                     i1l3631:
  5977  0706  3001               	movlw	1
  5978  0707  00FF               	movwf	btemp+1
  5979  0708  087F               	movf	btemp+1,w
  5980  0709  07B8               	addwf	sprintf@sp^(0+128),f
  5981  070A                     i1l3633:
  5982  070A  30FF               	movlw	255
  5983  070B  07AC               	addwf	sprintf@prec^(0+128),f
  5984  070C  1803               	skipnc
  5985  070D  0AAD               	incf	(sprintf@prec+1)^(0+128),f
  5986  070E  30FF               	movlw	255
  5987  070F  07AD               	addwf	(sprintf@prec+1)^(0+128),f
  5988  0710  0A2C               	incf	sprintf@prec^(0+128),w
  5989  0711  1D03               	skipz
  5990  0712  2F17               	goto	u605_21
  5991  0713  0A2D               	incf	(sprintf@prec+1)^(0+128),w
  5992  0714  1D03               	btfss	3,2
  5993  0715  2F17               	goto	u605_21
  5994  0716  2F18               	goto	u605_20
  5995  0717                     u605_21:
  5996  0717  2EAA               	goto	i1l3627
  5997  0718                     u605_20:
  5998  0718                     i1l3635:
  5999  0718  3001               	movlw	1
  6000  0719  1283               	bcf	3,5	;RP0=0, select bank0
  6001  071A  1303               	bcf	3,6	;RP1=0, select bank0
  6002  071B  07EA               	addwf	sprintf@f,f
  6003  071C  30FF               	movlw	-1
  6004  071D  076A               	addwf	sprintf@f,w
  6005  071E  0084               	movwf	4
  6006  071F  160A  158A  200A  120A  118A  	fcall	stringdir
  6007  0724  00FF               	movwf	btemp+1
  6008  0725  087F               	movf	btemp+1,w
  6009  0726  1683               	bsf	3,5	;RP0=1, select bank1
  6010  0727  1303               	bcf	3,6	;RP1=0, select bank1
  6011  0728  00BD               	movwf	sprintf@c^(0+128)
  6012  0729  083D               	movf	sprintf@c^(0+128),w
  6013  072A  1D03               	btfss	3,2
  6014  072B  2F2D               	goto	u606_21
  6015  072C  2F2E               	goto	u606_20
  6016  072D                     u606_21:
  6017  072D  2837               	goto	i1l3439
  6018  072E                     u606_20:
  6019  072E                     i1l3637:
  6020                           
  6021                           ;doprnt.c: 1564: *sp = 0;
  6022  072E  0838               	movf	sprintf@sp^(0+128),w
  6023  072F  0084               	movwf	4
  6024  0730  1383               	bcf	3,7	;select IRP bank0
  6025  0731  0180               	clrf	0
  6026  0732                     i1l439:
  6027  0732  0008               	return
  6028  0733                     __end_of_sprintf:
  6029                           
  6030                           	psect	text27
  6031  0940                     __ptext27:	
  6032 ;; *************** function _scale *****************
  6033 ;; Defined at:
  6034 ;;		line 433 in file "/opt/microchip/xc8/v2.20/pic/sources/c90/common/doprnt.c"
  6035 ;; Parameters:    Size  Location     Type
  6036 ;;  scl             1    wreg     char 
  6037 ;; Auto vars:     Size  Location     Type
  6038 ;;  scl             1   44[BANK0 ] char 
  6039 ;; Return value:  Size  Location     Type
  6040 ;;                  4   26[BANK0 ] char 
  6041 ;; Registers used:
  6042 ;;		wreg, fsr0l, fsr0h, status,2, status,0, btemp+1, pclath, cstack
  6043 ;; Tracked objects:
  6044 ;;		On entry : 0/0
  6045 ;;		On exit  : 0/0
  6046 ;;		Unchanged: 0/0
  6047 ;; Data sizes:     COMMON   BANK0   BANK1   BANK3   BANK2
  6048 ;;      Params:         0       4       0       0       0
  6049 ;;      Locals:         0       5       0       0       0
  6050 ;;      Temps:          0      10       0       0       0
  6051 ;;      Totals:         0      19       0       0       0
  6052 ;;Total ram usage:       19 bytes
  6053 ;; Hardware stack levels used:    1
  6054 ;; Hardware stack levels required when called:    2
  6055 ;; This function calls:
  6056 ;;		___awdiv
  6057 ;;		___awmod
  6058 ;;		___flmul
  6059 ;; This function is called by:
  6060 ;;		_sprintf
  6061 ;; This function uses a non-reentrant model
  6062 ;;
  6063                           
  6064                           
  6065                           ;psect for function _scale
  6066  0940                     _scale:
  6067                           
  6068                           ;incstack = 0
  6069 ;; using string table level
  6070                           ; Regs used in _scale: [wreg-fsr0h+status,2+status,0+btemp+1+pclath+cstack]
  6071                           ;scale@scl stored from wreg
  6072  0940  1283               	bcf	3,5	;RP0=0, select bank0
  6073  0941  1303               	bcf	3,6	;RP1=0, select bank0
  6074  0942  00CC               	movwf	scale@scl
  6075  0943                     i1l3035:
  6076                           
  6077                           ;doprnt.c: 436: if(scl < 0) {
  6078  0943  1FCC               	btfss	scale@scl,7
  6079  0944  2946               	goto	u476_21
  6080  0945  2947               	goto	u476_20
  6081  0946                     u476_21:
  6082  0946  2AF4               	goto	i1l3057
  6083  0947                     u476_20:
  6084  0947                     i1l3037:
  6085                           
  6086                           ;doprnt.c: 437: scl = -scl;
  6087  0947  09CC               	comf	scale@scl,f
  6088  0948  0ACC               	incf	scale@scl,f
  6089  0949                     i1l3039:
  6090                           
  6091                           ;doprnt.c: 438: if(scl>=110)
  6092  0949  084C               	movf	scale@scl,w
  6093  094A  3A80               	xorlw	128
  6094  094B  3E12               	addlw	-238
  6095  094C  1C03               	skipc
  6096  094D  294F               	goto	u477_21
  6097  094E  2950               	goto	u477_20
  6098  094F                     u477_21:
  6099  094F  2A38               	goto	i1l3047
  6100  0950                     u477_20:
  6101  0950                     i1l3041:
  6102                           
  6103                           ;doprnt.c: 439: return _npowers_[(unsigned char)(scl/100+18)] * _npowers_[(unsigned char
      +                          )((scl%100)/10+9)] * _npowers_[(unsigned char)(scl%10)];
  6104  0950  300A               	movlw	10
  6105  0951  00F6               	movwf	___awdiv@divisor
  6106  0952  3000               	movlw	0
  6107  0953  00F7               	movwf	___awdiv@divisor+1
  6108  0954  084C               	movf	scale@scl,w
  6109  0955  00F2               	movwf	___awmod@dividend
  6110  0956  01F3               	clrf	___awmod@dividend+1
  6111  0957  1BF2               	btfsc	___awmod@dividend,7
  6112  0958  03F3               	decf	___awmod@dividend+1,f
  6113  0959  3064               	movlw	100
  6114  095A  00F0               	movwf	___awmod@divisor
  6115  095B  3000               	movlw	0
  6116  095C  00F1               	movwf	___awmod@divisor+1
  6117  095D  160A  158A  24E7  120A  158A  	fcall	___awmod
  6118  0962  0871               	movf	?___awmod+1,w
  6119  0963  00F9               	movwf	___awdiv@dividend+1
  6120  0964  0870               	movf	?___awmod,w
  6121  0965  00F8               	movwf	___awdiv@dividend
  6122  0966  160A  158A  2602  120A  158A  	fcall	___awdiv
  6123  096B  0876               	movf	?___awdiv,w
  6124  096C  1283               	bcf	3,5	;RP0=0, select bank0
  6125  096D  1303               	bcf	3,6	;RP1=0, select bank0
  6126  096E  00BE               	movwf	??_scale
  6127  096F  3001               	movlw	1
  6128  0970                     u478_25:
  6129  0970  1003               	clrc
  6130  0971  0DBE               	rlf	??_scale,f
  6131  0972  3EFF               	addlw	-1
  6132  0973  1D03               	skipz
  6133  0974  2970               	goto	u478_25
  6134  0975  1003               	clrc
  6135  0976  0D3E               	rlf	??_scale,w
  6136  0977  3E59               	addlw	low (((__npowers_-__stringbase)| (0+32768)+36))
  6137  0978  0084               	movwf	4
  6138  0979  160A  158A  200A  120A  158A  	fcall	stringdir
  6139  097E  00BF               	movwf	??_scale+1
  6140  097F  160A  158A  200A  120A  158A  	fcall	stringdir
  6141  0984  00C0               	movwf	??_scale+2
  6142  0985  160A  158A  200A  120A  158A  	fcall	stringdir
  6143  098A  00C1               	movwf	??_scale+3
  6144  098B  160A  158A  200A  120A  158A  	fcall	stringdir
  6145  0990  00C2               	movwf	??_scale+4
  6146  0991  0842               	movf	??_scale+4,w
  6147  0992  00A3               	movwf	___flmul@b+3
  6148  0993  0841               	movf	??_scale+3,w
  6149  0994  00A2               	movwf	___flmul@b+2
  6150  0995  0840               	movf	??_scale+2,w
  6151  0996  00A1               	movwf	___flmul@b+1
  6152  0997  083F               	movf	??_scale+1,w
  6153  0998  00A0               	movwf	___flmul@b
  6154  0999  3064               	movlw	100
  6155  099A  00F6               	movwf	___awdiv@divisor
  6156  099B  3000               	movlw	0
  6157  099C  00F7               	movwf	___awdiv@divisor+1
  6158  099D  084C               	movf	scale@scl,w
  6159  099E  00F8               	movwf	___awdiv@dividend
  6160  099F  01F9               	clrf	___awdiv@dividend+1
  6161  09A0  1BF8               	btfsc	___awdiv@dividend,7
  6162  09A1  03F9               	decf	___awdiv@dividend+1,f
  6163  09A2  160A  158A  2602  120A  158A  	fcall	___awdiv
  6164  09A7  0876               	movf	?___awdiv,w
  6165  09A8  1283               	bcf	3,5	;RP0=0, select bank0
  6166  09A9  1303               	bcf	3,6	;RP1=0, select bank0
  6167  09AA  00C3               	movwf	??_scale+5
  6168  09AB  3001               	movlw	1
  6169  09AC                     u479_25:
  6170  09AC  1003               	clrc
  6171  09AD  0DC3               	rlf	??_scale+5,f
  6172  09AE  3EFF               	addlw	-1
  6173  09AF  1D03               	skipz
  6174  09B0  29AC               	goto	u479_25
  6175  09B1  1003               	clrc
  6176  09B2  0D43               	rlf	??_scale+5,w
  6177  09B3  3E7D               	addlw	low (((__npowers_-__stringbase)| (0+32768)+72))
  6178  09B4  0084               	movwf	4
  6179  09B5  160A  158A  200A  120A  158A  	fcall	stringdir
  6180  09BA  00C4               	movwf	??_scale+6
  6181  09BB  160A  158A  200A  120A  158A  	fcall	stringdir
  6182  09C0  00C5               	movwf	??_scale+7
  6183  09C1  160A  158A  200A  120A  158A  	fcall	stringdir
  6184  09C6  00C6               	movwf	??_scale+8
  6185  09C7  160A  158A  200A  120A  158A  	fcall	stringdir
  6186  09CC  00C7               	movwf	??_scale+9
  6187  09CD  0847               	movf	??_scale+9,w
  6188  09CE  00A7               	movwf	___flmul@a+3
  6189  09CF  0846               	movf	??_scale+8,w
  6190  09D0  00A6               	movwf	___flmul@a+2
  6191  09D1  0845               	movf	??_scale+7,w
  6192  09D2  00A5               	movwf	___flmul@a+1
  6193  09D3  0844               	movf	??_scale+6,w
  6194  09D4  00A4               	movwf	___flmul@a
  6195  09D5  120A  158A  249F  120A  158A  	fcall	___flmul
  6196  09DA  1283               	bcf	3,5	;RP0=0, select bank0
  6197  09DB  1303               	bcf	3,6	;RP1=0, select bank0
  6198  09DC  0823               	movf	?___flmul+3,w
  6199  09DD  00CB               	movwf	_scale$975+3
  6200  09DE  0822               	movf	?___flmul+2,w
  6201  09DF  00CA               	movwf	_scale$975+2
  6202  09E0  0821               	movf	?___flmul+1,w
  6203  09E1  00C9               	movwf	_scale$975+1
  6204  09E2  0820               	movf	?___flmul,w
  6205  09E3  00C8               	movwf	_scale$975
  6206                           
  6207                           ;doprnt.c: 439: return _npowers_[(unsigned char)(scl/100+18)] * _npowers_[(unsigned char
      +                          )((scl%100)/10+9)] * _npowers_[(unsigned char)(scl%10)];
  6208  09E4  300A               	movlw	10
  6209  09E5  00F0               	movwf	___awmod@divisor
  6210  09E6  3000               	movlw	0
  6211  09E7  00F1               	movwf	___awmod@divisor+1
  6212  09E8  084C               	movf	scale@scl,w
  6213  09E9  00F2               	movwf	___awmod@dividend
  6214  09EA  01F3               	clrf	___awmod@dividend+1
  6215  09EB  1BF2               	btfsc	___awmod@dividend,7
  6216  09EC  03F3               	decf	___awmod@dividend+1,f
  6217  09ED  160A  158A  24E7  120A  158A  	fcall	___awmod
  6218  09F2  0870               	movf	?___awmod,w
  6219  09F3  1283               	bcf	3,5	;RP0=0, select bank0
  6220  09F4  1303               	bcf	3,6	;RP1=0, select bank0
  6221  09F5  00BE               	movwf	??_scale
  6222  09F6  3001               	movlw	1
  6223  09F7                     u480_25:
  6224  09F7  1003               	clrc
  6225  09F8  0DBE               	rlf	??_scale,f
  6226  09F9  3EFF               	addlw	-1
  6227  09FA  1D03               	skipz
  6228  09FB  29F7               	goto	u480_25
  6229  09FC  1003               	clrc
  6230  09FD  0D3E               	rlf	??_scale,w
  6231  09FE  3E35               	addlw	low ((__npowers_-__stringbase)| (0+32768))
  6232  09FF  0084               	movwf	4
  6233  0A00  160A  158A  200A  120A  158A  	fcall	stringdir
  6234  0A05  00BF               	movwf	??_scale+1
  6235  0A06  160A  158A  200A  120A  158A  	fcall	stringdir
  6236  0A0B  00C0               	movwf	??_scale+2
  6237  0A0C  160A  158A  200A  120A  158A  	fcall	stringdir
  6238  0A11  00C1               	movwf	??_scale+3
  6239  0A12  160A  158A  200A  120A  158A  	fcall	stringdir
  6240  0A17  00C2               	movwf	??_scale+4
  6241  0A18  0842               	movf	??_scale+4,w
  6242  0A19  00A3               	movwf	___flmul@b+3
  6243  0A1A  0841               	movf	??_scale+3,w
  6244  0A1B  00A2               	movwf	___flmul@b+2
  6245  0A1C  0840               	movf	??_scale+2,w
  6246  0A1D  00A1               	movwf	___flmul@b+1
  6247  0A1E  083F               	movf	??_scale+1,w
  6248  0A1F  00A0               	movwf	___flmul@b
  6249  0A20  084B               	movf	_scale$975+3,w
  6250  0A21  00A7               	movwf	___flmul@a+3
  6251  0A22  084A               	movf	_scale$975+2,w
  6252  0A23  00A6               	movwf	___flmul@a+2
  6253  0A24  0849               	movf	_scale$975+1,w
  6254  0A25  00A5               	movwf	___flmul@a+1
  6255  0A26  0848               	movf	_scale$975,w
  6256  0A27  00A4               	movwf	___flmul@a
  6257  0A28  120A  158A  249F  120A  158A  	fcall	___flmul
  6258  0A2D  1283               	bcf	3,5	;RP0=0, select bank0
  6259  0A2E  1303               	bcf	3,6	;RP1=0, select bank0
  6260  0A2F  0823               	movf	?___flmul+3,w
  6261  0A30  00BD               	movwf	?_scale+3
  6262  0A31  0822               	movf	?___flmul+2,w
  6263  0A32  00BC               	movwf	?_scale+2
  6264  0A33  0821               	movf	?___flmul+1,w
  6265  0A34  00BB               	movwf	?_scale+1
  6266  0A35  0820               	movf	?___flmul,w
  6267  0A36  00BA               	movwf	?_scale
  6268  0A37  2C9E               	goto	i1l374
  6269  0A38                     i1l3047:
  6270                           
  6271                           ;doprnt.c: 440: else if(scl > 10)
  6272  0A38  084C               	movf	scale@scl,w
  6273  0A39  3A80               	xorlw	128
  6274  0A3A  3E75               	addlw	-139
  6275  0A3B  1C03               	skipc
  6276  0A3C  2A3E               	goto	u481_21
  6277  0A3D  2A3F               	goto	u481_20
  6278  0A3E                     u481_21:
  6279  0A3E  2AC7               	goto	i1l3053
  6280  0A3F                     u481_20:
  6281  0A3F                     i1l3049:
  6282                           
  6283                           ;doprnt.c: 441: return _npowers_[(unsigned char)(scl/10+9)] * _npowers_[(unsigned char)(
      +                          scl%10)];
  6284  0A3F  300A               	movlw	10
  6285  0A40  00F0               	movwf	___awmod@divisor
  6286  0A41  3000               	movlw	0
  6287  0A42  00F1               	movwf	___awmod@divisor+1
  6288  0A43  084C               	movf	scale@scl,w
  6289  0A44  00F2               	movwf	___awmod@dividend
  6290  0A45  01F3               	clrf	___awmod@dividend+1
  6291  0A46  1BF2               	btfsc	___awmod@dividend,7
  6292  0A47  03F3               	decf	___awmod@dividend+1,f
  6293  0A48  160A  158A  24E7  120A  158A  	fcall	___awmod
  6294  0A4D  0870               	movf	?___awmod,w
  6295  0A4E  1283               	bcf	3,5	;RP0=0, select bank0
  6296  0A4F  1303               	bcf	3,6	;RP1=0, select bank0
  6297  0A50  00BE               	movwf	??_scale
  6298  0A51  3001               	movlw	1
  6299  0A52                     u482_25:
  6300  0A52  1003               	clrc
  6301  0A53  0DBE               	rlf	??_scale,f
  6302  0A54  3EFF               	addlw	-1
  6303  0A55  1D03               	skipz
  6304  0A56  2A52               	goto	u482_25
  6305  0A57  1003               	clrc
  6306  0A58  0D3E               	rlf	??_scale,w
  6307  0A59  3E35               	addlw	low ((__npowers_-__stringbase)| (0+32768))
  6308  0A5A  0084               	movwf	4
  6309  0A5B  160A  158A  200A  120A  158A  	fcall	stringdir
  6310  0A60  00BF               	movwf	??_scale+1
  6311  0A61  160A  158A  200A  120A  158A  	fcall	stringdir
  6312  0A66  00C0               	movwf	??_scale+2
  6313  0A67  160A  158A  200A  120A  158A  	fcall	stringdir
  6314  0A6C  00C1               	movwf	??_scale+3
  6315  0A6D  160A  158A  200A  120A  158A  	fcall	stringdir
  6316  0A72  00C2               	movwf	??_scale+4
  6317  0A73  0842               	movf	??_scale+4,w
  6318  0A74  00A3               	movwf	___flmul@b+3
  6319  0A75  0841               	movf	??_scale+3,w
  6320  0A76  00A2               	movwf	___flmul@b+2
  6321  0A77  0840               	movf	??_scale+2,w
  6322  0A78  00A1               	movwf	___flmul@b+1
  6323  0A79  083F               	movf	??_scale+1,w
  6324  0A7A  00A0               	movwf	___flmul@b
  6325  0A7B  300A               	movlw	10
  6326  0A7C  00F6               	movwf	___awdiv@divisor
  6327  0A7D  3000               	movlw	0
  6328  0A7E  00F7               	movwf	___awdiv@divisor+1
  6329  0A7F  084C               	movf	scale@scl,w
  6330  0A80  00F8               	movwf	___awdiv@dividend
  6331  0A81  01F9               	clrf	___awdiv@dividend+1
  6332  0A82  1BF8               	btfsc	___awdiv@dividend,7
  6333  0A83  03F9               	decf	___awdiv@dividend+1,f
  6334  0A84  160A  158A  2602  120A  158A  	fcall	___awdiv
  6335  0A89  0876               	movf	?___awdiv,w
  6336  0A8A  1283               	bcf	3,5	;RP0=0, select bank0
  6337  0A8B  1303               	bcf	3,6	;RP1=0, select bank0
  6338  0A8C  00C3               	movwf	??_scale+5
  6339  0A8D  3001               	movlw	1
  6340  0A8E                     u483_25:
  6341  0A8E  1003               	clrc
  6342  0A8F  0DC3               	rlf	??_scale+5,f
  6343  0A90  3EFF               	addlw	-1
  6344  0A91  1D03               	skipz
  6345  0A92  2A8E               	goto	u483_25
  6346  0A93  1003               	clrc
  6347  0A94  0D43               	rlf	??_scale+5,w
  6348  0A95  3E59               	addlw	low (((__npowers_-__stringbase)| (0+32768)+36))
  6349  0A96  0084               	movwf	4
  6350  0A97  160A  158A  200A  120A  158A  	fcall	stringdir
  6351  0A9C  00C4               	movwf	??_scale+6
  6352  0A9D  160A  158A  200A  120A  158A  	fcall	stringdir
  6353  0AA2  00C5               	movwf	??_scale+7
  6354  0AA3  160A  158A  200A  120A  158A  	fcall	stringdir
  6355  0AA8  00C6               	movwf	??_scale+8
  6356  0AA9  160A  158A  200A  120A  158A  	fcall	stringdir
  6357  0AAE  00C7               	movwf	??_scale+9
  6358  0AAF  0847               	movf	??_scale+9,w
  6359  0AB0  00A7               	movwf	___flmul@a+3
  6360  0AB1  0846               	movf	??_scale+8,w
  6361  0AB2  00A6               	movwf	___flmul@a+2
  6362  0AB3  0845               	movf	??_scale+7,w
  6363  0AB4  00A5               	movwf	___flmul@a+1
  6364  0AB5  0844               	movf	??_scale+6,w
  6365  0AB6  00A4               	movwf	___flmul@a
  6366  0AB7  120A  158A  249F  120A  158A  	fcall	___flmul
  6367  0ABC  1283               	bcf	3,5	;RP0=0, select bank0
  6368  0ABD  1303               	bcf	3,6	;RP1=0, select bank0
  6369  0ABE  0823               	movf	?___flmul+3,w
  6370  0ABF  00BD               	movwf	?_scale+3
  6371  0AC0  0822               	movf	?___flmul+2,w
  6372  0AC1  00BC               	movwf	?_scale+2
  6373  0AC2  0821               	movf	?___flmul+1,w
  6374  0AC3  00BB               	movwf	?_scale+1
  6375  0AC4  0820               	movf	?___flmul,w
  6376  0AC5  00BA               	movwf	?_scale
  6377  0AC6  2C9E               	goto	i1l374
  6378  0AC7                     i1l3053:
  6379                           
  6380                           ;doprnt.c: 442: return _npowers_[(unsigned char)scl];
  6381  0AC7  084C               	movf	scale@scl,w
  6382  0AC8  00BE               	movwf	??_scale
  6383  0AC9  3001               	movlw	1
  6384  0ACA                     u484_25:
  6385  0ACA  1003               	clrc
  6386  0ACB  0DBE               	rlf	??_scale,f
  6387  0ACC  3EFF               	addlw	-1
  6388  0ACD  1D03               	skipz
  6389  0ACE  2ACA               	goto	u484_25
  6390  0ACF  1003               	clrc
  6391  0AD0  0D3E               	rlf	??_scale,w
  6392  0AD1  3E35               	addlw	low ((__npowers_-__stringbase)| (0+32768))
  6393  0AD2  0084               	movwf	4
  6394  0AD3  160A  158A  200A  120A  158A  	fcall	stringdir
  6395  0AD8  00BF               	movwf	??_scale+1
  6396  0AD9  160A  158A  200A  120A  158A  	fcall	stringdir
  6397  0ADE  00C0               	movwf	??_scale+2
  6398  0ADF  160A  158A  200A  120A  158A  	fcall	stringdir
  6399  0AE4  00C1               	movwf	??_scale+3
  6400  0AE5  160A  158A  200A  120A  158A  	fcall	stringdir
  6401  0AEA  00C2               	movwf	??_scale+4
  6402  0AEB  0842               	movf	??_scale+4,w
  6403  0AEC  00BD               	movwf	?_scale+3
  6404  0AED  0841               	movf	??_scale+3,w
  6405  0AEE  00BC               	movwf	?_scale+2
  6406  0AEF  0840               	movf	??_scale+2,w
  6407  0AF0  00BB               	movwf	?_scale+1
  6408  0AF1  083F               	movf	??_scale+1,w
  6409  0AF2  00BA               	movwf	?_scale
  6410  0AF3  2C9E               	goto	i1l374
  6411  0AF4                     i1l3057:
  6412                           
  6413                           ;doprnt.c: 443: };doprnt.c: 444: if(scl>=110)
  6414  0AF4  084C               	movf	scale@scl,w
  6415  0AF5  3A80               	xorlw	128
  6416  0AF6  3E12               	addlw	-238
  6417  0AF7  1C03               	skipc
  6418  0AF8  2AFA               	goto	u485_21
  6419  0AF9  2AFB               	goto	u485_20
  6420  0AFA                     u485_21:
  6421  0AFA  2BE3               	goto	i1l3065
  6422  0AFB                     u485_20:
  6423  0AFB                     i1l3059:
  6424                           
  6425                           ;doprnt.c: 445: return _powers_[(unsigned char)(scl/100+18)] * _powers_[(unsigned char)(
      +                          (scl%100)/10+9)] * _powers_[(unsigned char)(scl%10)];
  6426  0AFB  300A               	movlw	10
  6427  0AFC  00F6               	movwf	___awdiv@divisor
  6428  0AFD  3000               	movlw	0
  6429  0AFE  00F7               	movwf	___awdiv@divisor+1
  6430  0AFF  084C               	movf	scale@scl,w
  6431  0B00  00F2               	movwf	___awmod@dividend
  6432  0B01  01F3               	clrf	___awmod@dividend+1
  6433  0B02  1BF2               	btfsc	___awmod@dividend,7
  6434  0B03  03F3               	decf	___awmod@dividend+1,f
  6435  0B04  3064               	movlw	100
  6436  0B05  00F0               	movwf	___awmod@divisor
  6437  0B06  3000               	movlw	0
  6438  0B07  00F1               	movwf	___awmod@divisor+1
  6439  0B08  160A  158A  24E7  120A  158A  	fcall	___awmod
  6440  0B0D  0871               	movf	?___awmod+1,w
  6441  0B0E  00F9               	movwf	___awdiv@dividend+1
  6442  0B0F  0870               	movf	?___awmod,w
  6443  0B10  00F8               	movwf	___awdiv@dividend
  6444  0B11  160A  158A  2602  120A  158A  	fcall	___awdiv
  6445  0B16  0876               	movf	?___awdiv,w
  6446  0B17  1283               	bcf	3,5	;RP0=0, select bank0
  6447  0B18  1303               	bcf	3,6	;RP1=0, select bank0
  6448  0B19  00BE               	movwf	??_scale
  6449  0B1A  3001               	movlw	1
  6450  0B1B                     u486_25:
  6451  0B1B  1003               	clrc
  6452  0B1C  0DBE               	rlf	??_scale,f
  6453  0B1D  3EFF               	addlw	-1
  6454  0B1E  1D03               	skipz
  6455  0B1F  2B1B               	goto	u486_25
  6456  0B20  1003               	clrc
  6457  0B21  0D3E               	rlf	??_scale,w
  6458  0B22  3E25               	addlw	low (((__powers_-__stringbase)| (0+32768)+36))
  6459  0B23  0084               	movwf	4
  6460  0B24  160A  158A  200A  120A  158A  	fcall	stringdir
  6461  0B29  00BF               	movwf	??_scale+1
  6462  0B2A  160A  158A  200A  120A  158A  	fcall	stringdir
  6463  0B2F  00C0               	movwf	??_scale+2
  6464  0B30  160A  158A  200A  120A  158A  	fcall	stringdir
  6465  0B35  00C1               	movwf	??_scale+3
  6466  0B36  160A  158A  200A  120A  158A  	fcall	stringdir
  6467  0B3B  00C2               	movwf	??_scale+4
  6468  0B3C  0842               	movf	??_scale+4,w
  6469  0B3D  00A3               	movwf	___flmul@b+3
  6470  0B3E  0841               	movf	??_scale+3,w
  6471  0B3F  00A2               	movwf	___flmul@b+2
  6472  0B40  0840               	movf	??_scale+2,w
  6473  0B41  00A1               	movwf	___flmul@b+1
  6474  0B42  083F               	movf	??_scale+1,w
  6475  0B43  00A0               	movwf	___flmul@b
  6476  0B44  3064               	movlw	100
  6477  0B45  00F6               	movwf	___awdiv@divisor
  6478  0B46  3000               	movlw	0
  6479  0B47  00F7               	movwf	___awdiv@divisor+1
  6480  0B48  084C               	movf	scale@scl,w
  6481  0B49  00F8               	movwf	___awdiv@dividend
  6482  0B4A  01F9               	clrf	___awdiv@dividend+1
  6483  0B4B  1BF8               	btfsc	___awdiv@dividend,7
  6484  0B4C  03F9               	decf	___awdiv@dividend+1,f
  6485  0B4D  160A  158A  2602  120A  158A  	fcall	___awdiv
  6486  0B52  0876               	movf	?___awdiv,w
  6487  0B53  1283               	bcf	3,5	;RP0=0, select bank0
  6488  0B54  1303               	bcf	3,6	;RP1=0, select bank0
  6489  0B55  00C3               	movwf	??_scale+5
  6490  0B56  3001               	movlw	1
  6491  0B57                     u487_25:
  6492  0B57  1003               	clrc
  6493  0B58  0DC3               	rlf	??_scale+5,f
  6494  0B59  3EFF               	addlw	-1
  6495  0B5A  1D03               	skipz
  6496  0B5B  2B57               	goto	u487_25
  6497  0B5C  1003               	clrc
  6498  0B5D  0D43               	rlf	??_scale+5,w
  6499  0B5E  3E49               	addlw	low (((__powers_-__stringbase)| (0+32768)+72))
  6500  0B5F  0084               	movwf	4
  6501  0B60  160A  158A  200A  120A  158A  	fcall	stringdir
  6502  0B65  00C4               	movwf	??_scale+6
  6503  0B66  160A  158A  200A  120A  158A  	fcall	stringdir
  6504  0B6B  00C5               	movwf	??_scale+7
  6505  0B6C  160A  158A  200A  120A  158A  	fcall	stringdir
  6506  0B71  00C6               	movwf	??_scale+8
  6507  0B72  160A  158A  200A  120A  158A  	fcall	stringdir
  6508  0B77  00C7               	movwf	??_scale+9
  6509  0B78  0847               	movf	??_scale+9,w
  6510  0B79  00A7               	movwf	___flmul@a+3
  6511  0B7A  0846               	movf	??_scale+8,w
  6512  0B7B  00A6               	movwf	___flmul@a+2
  6513  0B7C  0845               	movf	??_scale+7,w
  6514  0B7D  00A5               	movwf	___flmul@a+1
  6515  0B7E  0844               	movf	??_scale+6,w
  6516  0B7F  00A4               	movwf	___flmul@a
  6517  0B80  120A  158A  249F  120A  158A  	fcall	___flmul
  6518  0B85  1283               	bcf	3,5	;RP0=0, select bank0
  6519  0B86  1303               	bcf	3,6	;RP1=0, select bank0
  6520  0B87  0823               	movf	?___flmul+3,w
  6521  0B88  00CB               	movwf	_scale$975+3
  6522  0B89  0822               	movf	?___flmul+2,w
  6523  0B8A  00CA               	movwf	_scale$975+2
  6524  0B8B  0821               	movf	?___flmul+1,w
  6525  0B8C  00C9               	movwf	_scale$975+1
  6526  0B8D  0820               	movf	?___flmul,w
  6527  0B8E  00C8               	movwf	_scale$975
  6528                           
  6529                           ;doprnt.c: 445: return _powers_[(unsigned char)(scl/100+18)] * _powers_[(unsigned char)(
      +                          (scl%100)/10+9)] * _powers_[(unsigned char)(scl%10)];
  6530  0B8F  300A               	movlw	10
  6531  0B90  00F0               	movwf	___awmod@divisor
  6532  0B91  3000               	movlw	0
  6533  0B92  00F1               	movwf	___awmod@divisor+1
  6534  0B93  084C               	movf	scale@scl,w
  6535  0B94  00F2               	movwf	___awmod@dividend
  6536  0B95  01F3               	clrf	___awmod@dividend+1
  6537  0B96  1BF2               	btfsc	___awmod@dividend,7
  6538  0B97  03F3               	decf	___awmod@dividend+1,f
  6539  0B98  160A  158A  24E7  120A  158A  	fcall	___awmod
  6540  0B9D  0870               	movf	?___awmod,w
  6541  0B9E  1283               	bcf	3,5	;RP0=0, select bank0
  6542  0B9F  1303               	bcf	3,6	;RP1=0, select bank0
  6543  0BA0  00BE               	movwf	??_scale
  6544  0BA1  3001               	movlw	1
  6545  0BA2                     u488_25:
  6546  0BA2  1003               	clrc
  6547  0BA3  0DBE               	rlf	??_scale,f
  6548  0BA4  3EFF               	addlw	-1
  6549  0BA5  1D03               	skipz
  6550  0BA6  2BA2               	goto	u488_25
  6551  0BA7  1003               	clrc
  6552  0BA8  0D3E               	rlf	??_scale,w
  6553  0BA9  3E01               	addlw	low ((__powers_-__stringbase)| (0+32768))
  6554  0BAA  0084               	movwf	4
  6555  0BAB  160A  158A  200A  120A  158A  	fcall	stringdir
  6556  0BB0  00BF               	movwf	??_scale+1
  6557  0BB1  160A  158A  200A  120A  158A  	fcall	stringdir
  6558  0BB6  00C0               	movwf	??_scale+2
  6559  0BB7  160A  158A  200A  120A  158A  	fcall	stringdir
  6560  0BBC  00C1               	movwf	??_scale+3
  6561  0BBD  160A  158A  200A  120A  158A  	fcall	stringdir
  6562  0BC2  00C2               	movwf	??_scale+4
  6563  0BC3  0842               	movf	??_scale+4,w
  6564  0BC4  00A3               	movwf	___flmul@b+3
  6565  0BC5  0841               	movf	??_scale+3,w
  6566  0BC6  00A2               	movwf	___flmul@b+2
  6567  0BC7  0840               	movf	??_scale+2,w
  6568  0BC8  00A1               	movwf	___flmul@b+1
  6569  0BC9  083F               	movf	??_scale+1,w
  6570  0BCA  00A0               	movwf	___flmul@b
  6571  0BCB  084B               	movf	_scale$975+3,w
  6572  0BCC  00A7               	movwf	___flmul@a+3
  6573  0BCD  084A               	movf	_scale$975+2,w
  6574  0BCE  00A6               	movwf	___flmul@a+2
  6575  0BCF  0849               	movf	_scale$975+1,w
  6576  0BD0  00A5               	movwf	___flmul@a+1
  6577  0BD1  0848               	movf	_scale$975,w
  6578  0BD2  00A4               	movwf	___flmul@a
  6579  0BD3  120A  158A  249F  120A  158A  	fcall	___flmul
  6580  0BD8  1283               	bcf	3,5	;RP0=0, select bank0
  6581  0BD9  1303               	bcf	3,6	;RP1=0, select bank0
  6582  0BDA  0823               	movf	?___flmul+3,w
  6583  0BDB  00BD               	movwf	?_scale+3
  6584  0BDC  0822               	movf	?___flmul+2,w
  6585  0BDD  00BC               	movwf	?_scale+2
  6586  0BDE  0821               	movf	?___flmul+1,w
  6587  0BDF  00BB               	movwf	?_scale+1
  6588  0BE0  0820               	movf	?___flmul,w
  6589  0BE1  00BA               	movwf	?_scale
  6590  0BE2  2C9E               	goto	i1l374
  6591  0BE3                     i1l3065:
  6592                           
  6593                           ;doprnt.c: 446: else if(scl > 10)
  6594  0BE3  084C               	movf	scale@scl,w
  6595  0BE4  3A80               	xorlw	128
  6596  0BE5  3E75               	addlw	-139
  6597  0BE6  1C03               	skipc
  6598  0BE7  2BE9               	goto	u489_21
  6599  0BE8  2BEA               	goto	u489_20
  6600  0BE9                     u489_21:
  6601  0BE9  2C72               	goto	i1l3071
  6602  0BEA                     u489_20:
  6603  0BEA                     i1l3067:
  6604                           
  6605                           ;doprnt.c: 447: return _powers_[(unsigned char)(scl/10+9)] * _powers_[(unsigned char)(sc
      +                          l%10)];
  6606  0BEA  300A               	movlw	10
  6607  0BEB  00F0               	movwf	___awmod@divisor
  6608  0BEC  3000               	movlw	0
  6609  0BED  00F1               	movwf	___awmod@divisor+1
  6610  0BEE  084C               	movf	scale@scl,w
  6611  0BEF  00F2               	movwf	___awmod@dividend
  6612  0BF0  01F3               	clrf	___awmod@dividend+1
  6613  0BF1  1BF2               	btfsc	___awmod@dividend,7
  6614  0BF2  03F3               	decf	___awmod@dividend+1,f
  6615  0BF3  160A  158A  24E7  120A  158A  	fcall	___awmod
  6616  0BF8  0870               	movf	?___awmod,w
  6617  0BF9  1283               	bcf	3,5	;RP0=0, select bank0
  6618  0BFA  1303               	bcf	3,6	;RP1=0, select bank0
  6619  0BFB  00BE               	movwf	??_scale
  6620  0BFC  3001               	movlw	1
  6621  0BFD                     u490_25:
  6622  0BFD  1003               	clrc
  6623  0BFE  0DBE               	rlf	??_scale,f
  6624  0BFF  3EFF               	addlw	-1
  6625  0C00  1D03               	skipz
  6626  0C01  2BFD               	goto	u490_25
  6627  0C02  1003               	clrc
  6628  0C03  0D3E               	rlf	??_scale,w
  6629  0C04  3E01               	addlw	low ((__powers_-__stringbase)| (0+32768))
  6630  0C05  0084               	movwf	4
  6631  0C06  160A  158A  200A  120A  158A  	fcall	stringdir
  6632  0C0B  00BF               	movwf	??_scale+1
  6633  0C0C  160A  158A  200A  120A  158A  	fcall	stringdir
  6634  0C11  00C0               	movwf	??_scale+2
  6635  0C12  160A  158A  200A  120A  158A  	fcall	stringdir
  6636  0C17  00C1               	movwf	??_scale+3
  6637  0C18  160A  158A  200A  120A  158A  	fcall	stringdir
  6638  0C1D  00C2               	movwf	??_scale+4
  6639  0C1E  0842               	movf	??_scale+4,w
  6640  0C1F  00A3               	movwf	___flmul@b+3
  6641  0C20  0841               	movf	??_scale+3,w
  6642  0C21  00A2               	movwf	___flmul@b+2
  6643  0C22  0840               	movf	??_scale+2,w
  6644  0C23  00A1               	movwf	___flmul@b+1
  6645  0C24  083F               	movf	??_scale+1,w
  6646  0C25  00A0               	movwf	___flmul@b
  6647  0C26  300A               	movlw	10
  6648  0C27  00F6               	movwf	___awdiv@divisor
  6649  0C28  3000               	movlw	0
  6650  0C29  00F7               	movwf	___awdiv@divisor+1
  6651  0C2A  084C               	movf	scale@scl,w
  6652  0C2B  00F8               	movwf	___awdiv@dividend
  6653  0C2C  01F9               	clrf	___awdiv@dividend+1
  6654  0C2D  1BF8               	btfsc	___awdiv@dividend,7
  6655  0C2E  03F9               	decf	___awdiv@dividend+1,f
  6656  0C2F  160A  158A  2602  120A  158A  	fcall	___awdiv
  6657  0C34  0876               	movf	?___awdiv,w
  6658  0C35  1283               	bcf	3,5	;RP0=0, select bank0
  6659  0C36  1303               	bcf	3,6	;RP1=0, select bank0
  6660  0C37  00C3               	movwf	??_scale+5
  6661  0C38  3001               	movlw	1
  6662  0C39                     u491_25:
  6663  0C39  1003               	clrc
  6664  0C3A  0DC3               	rlf	??_scale+5,f
  6665  0C3B  3EFF               	addlw	-1
  6666  0C3C  1D03               	skipz
  6667  0C3D  2C39               	goto	u491_25
  6668  0C3E  1003               	clrc
  6669  0C3F  0D43               	rlf	??_scale+5,w
  6670  0C40  3E25               	addlw	low (((__powers_-__stringbase)| (0+32768)+36))
  6671  0C41  0084               	movwf	4
  6672  0C42  160A  158A  200A  120A  158A  	fcall	stringdir
  6673  0C47  00C4               	movwf	??_scale+6
  6674  0C48  160A  158A  200A  120A  158A  	fcall	stringdir
  6675  0C4D  00C5               	movwf	??_scale+7
  6676  0C4E  160A  158A  200A  120A  158A  	fcall	stringdir
  6677  0C53  00C6               	movwf	??_scale+8
  6678  0C54  160A  158A  200A  120A  158A  	fcall	stringdir
  6679  0C59  00C7               	movwf	??_scale+9
  6680  0C5A  0847               	movf	??_scale+9,w
  6681  0C5B  00A7               	movwf	___flmul@a+3
  6682  0C5C  0846               	movf	??_scale+8,w
  6683  0C5D  00A6               	movwf	___flmul@a+2
  6684  0C5E  0845               	movf	??_scale+7,w
  6685  0C5F  00A5               	movwf	___flmul@a+1
  6686  0C60  0844               	movf	??_scale+6,w
  6687  0C61  00A4               	movwf	___flmul@a
  6688  0C62  120A  158A  249F  120A  158A  	fcall	___flmul
  6689  0C67  1283               	bcf	3,5	;RP0=0, select bank0
  6690  0C68  1303               	bcf	3,6	;RP1=0, select bank0
  6691  0C69  0823               	movf	?___flmul+3,w
  6692  0C6A  00BD               	movwf	?_scale+3
  6693  0C6B  0822               	movf	?___flmul+2,w
  6694  0C6C  00BC               	movwf	?_scale+2
  6695  0C6D  0821               	movf	?___flmul+1,w
  6696  0C6E  00BB               	movwf	?_scale+1
  6697  0C6F  0820               	movf	?___flmul,w
  6698  0C70  00BA               	movwf	?_scale
  6699  0C71  2C9E               	goto	i1l374
  6700  0C72                     i1l3071:
  6701                           
  6702                           ;doprnt.c: 448: return _powers_[(unsigned char)scl];
  6703  0C72  084C               	movf	scale@scl,w
  6704  0C73  00BE               	movwf	??_scale
  6705  0C74  3001               	movlw	1
  6706  0C75                     u492_25:
  6707  0C75  1003               	clrc
  6708  0C76  0DBE               	rlf	??_scale,f
  6709  0C77  3EFF               	addlw	-1
  6710  0C78  1D03               	skipz
  6711  0C79  2C75               	goto	u492_25
  6712  0C7A  1003               	clrc
  6713  0C7B  0D3E               	rlf	??_scale,w
  6714  0C7C  3E01               	addlw	low ((__powers_-__stringbase)| (0+32768))
  6715  0C7D  0084               	movwf	4
  6716  0C7E  160A  158A  200A  120A  158A  	fcall	stringdir
  6717  0C83  00BF               	movwf	??_scale+1
  6718  0C84  160A  158A  200A  120A  158A  	fcall	stringdir
  6719  0C89  00C0               	movwf	??_scale+2
  6720  0C8A  160A  158A  200A  120A  158A  	fcall	stringdir
  6721  0C8F  00C1               	movwf	??_scale+3
  6722  0C90  160A  158A  200A  120A  158A  	fcall	stringdir
  6723  0C95  00C2               	movwf	??_scale+4
  6724  0C96  0842               	movf	??_scale+4,w
  6725  0C97  00BD               	movwf	?_scale+3
  6726  0C98  0841               	movf	??_scale+3,w
  6727  0C99  00BC               	movwf	?_scale+2
  6728  0C9A  0840               	movf	??_scale+2,w
  6729  0C9B  00BB               	movwf	?_scale+1
  6730  0C9C  083F               	movf	??_scale+1,w
  6731  0C9D  00BA               	movwf	?_scale
  6732  0C9E                     i1l374:
  6733  0C9E  0008               	return
  6734  0C9F                     __end_of_scale:
  6735                           
  6736                           	psect	text28
  6737  1CE7                     __ptext28:	
  6738 ;; *************** function ___awmod *****************
  6739 ;; Defined at:
  6740 ;;		line 5 in file "/opt/microchip/xc8/v2.20/pic/sources/c90/common/awmod.c"
  6741 ;; Parameters:    Size  Location     Type
  6742 ;;  divisor         2    0[COMMON] int 
  6743 ;;  dividend        2    2[COMMON] int 
  6744 ;; Auto vars:     Size  Location     Type
  6745 ;;  sign            1    5[COMMON] unsigned char 
  6746 ;;  counter         1    4[COMMON] unsigned char 
  6747 ;; Return value:  Size  Location     Type
  6748 ;;                  2    0[COMMON] int 
  6749 ;; Registers used:
  6750 ;;		wreg, status,2, status,0, btemp+1
  6751 ;; Tracked objects:
  6752 ;;		On entry : 0/0
  6753 ;;		On exit  : 0/0
  6754 ;;		Unchanged: 0/0
  6755 ;; Data sizes:     COMMON   BANK0   BANK1   BANK3   BANK2
  6756 ;;      Params:         4       0       0       0       0
  6757 ;;      Locals:         2       0       0       0       0
  6758 ;;      Temps:          0       0       0       0       0
  6759 ;;      Totals:         6       0       0       0       0
  6760 ;;Total ram usage:        6 bytes
  6761 ;; Hardware stack levels used:    1
  6762 ;; This function calls:
  6763 ;;		Nothing
  6764 ;; This function is called by:
  6765 ;;		_scale
  6766 ;; This function uses a non-reentrant model
  6767 ;;
  6768                           
  6769                           
  6770                           ;psect for function ___awmod
  6771  1CE7                     ___awmod:
  6772  1CE7                     i1l2565:	
  6773                           ;incstack = 0
  6774                           ; Regs used in ___awmod: [wreg+status,2+status,0+btemp+1]
  6775                           
  6776  1CE7  01F5               	clrf	___awmod@sign
  6777  1CE8                     i1l2567:
  6778  1CE8  1FF3               	btfss	___awmod@dividend+1,7
  6779  1CE9  2CEB               	goto	u351_21
  6780  1CEA  2CEC               	goto	u351_20
  6781  1CEB                     u351_21:
  6782  1CEB  2CF3               	goto	i1l2573
  6783  1CEC                     u351_20:
  6784  1CEC                     i1l2569:
  6785  1CEC  09F2               	comf	___awmod@dividend,f
  6786  1CED  09F3               	comf	___awmod@dividend+1,f
  6787  1CEE  0AF2               	incf	___awmod@dividend,f
  6788  1CEF  1903               	skipnz
  6789  1CF0  0AF3               	incf	___awmod@dividend+1,f
  6790  1CF1                     i1l2571:
  6791  1CF1  01F5               	clrf	___awmod@sign
  6792  1CF2  0AF5               	incf	___awmod@sign,f
  6793  1CF3                     i1l2573:
  6794  1CF3  1FF1               	btfss	___awmod@divisor+1,7
  6795  1CF4  2CF6               	goto	u352_21
  6796  1CF5  2CF7               	goto	u352_20
  6797  1CF6                     u352_21:
  6798  1CF6  2CFC               	goto	i1l2577
  6799  1CF7                     u352_20:
  6800  1CF7                     i1l2575:
  6801  1CF7  09F0               	comf	___awmod@divisor,f
  6802  1CF8  09F1               	comf	___awmod@divisor+1,f
  6803  1CF9  0AF0               	incf	___awmod@divisor,f
  6804  1CFA  1903               	skipnz
  6805  1CFB  0AF1               	incf	___awmod@divisor+1,f
  6806  1CFC                     i1l2577:
  6807  1CFC  0870               	movf	___awmod@divisor,w
  6808  1CFD  0471               	iorwf	___awmod@divisor+1,w
  6809  1CFE  1903               	btfsc	3,2
  6810  1CFF  2D01               	goto	u353_21
  6811  1D00  2D02               	goto	u353_20
  6812  1D01                     u353_21:
  6813  1D01  2D31               	goto	i1l2595
  6814  1D02                     u353_20:
  6815  1D02                     i1l2579:
  6816  1D02  01F4               	clrf	___awmod@counter
  6817  1D03  0AF4               	incf	___awmod@counter,f
  6818  1D04  2D10               	goto	i1l2585
  6819  1D05                     i1l2581:
  6820  1D05  3001               	movlw	1
  6821  1D06                     u354_25:
  6822  1D06  1003               	clrc
  6823  1D07  0DF0               	rlf	___awmod@divisor,f
  6824  1D08  0DF1               	rlf	___awmod@divisor+1,f
  6825  1D09  3EFF               	addlw	-1
  6826  1D0A  1D03               	skipz
  6827  1D0B  2D06               	goto	u354_25
  6828  1D0C                     i1l2583:
  6829  1D0C  3001               	movlw	1
  6830  1D0D  00FF               	movwf	btemp+1
  6831  1D0E  087F               	movf	btemp+1,w
  6832  1D0F  07F4               	addwf	___awmod@counter,f
  6833  1D10                     i1l2585:
  6834  1D10  1FF1               	btfss	___awmod@divisor+1,7
  6835  1D11  2D13               	goto	u355_21
  6836  1D12  2D14               	goto	u355_20
  6837  1D13                     u355_21:
  6838  1D13  2D05               	goto	i1l2581
  6839  1D14                     u355_20:
  6840  1D14                     i1l2587:
  6841  1D14  0871               	movf	___awmod@divisor+1,w
  6842  1D15  0273               	subwf	___awmod@dividend+1,w
  6843  1D16  1D03               	skipz
  6844  1D17  2D1A               	goto	u356_25
  6845  1D18  0870               	movf	___awmod@divisor,w
  6846  1D19  0272               	subwf	___awmod@dividend,w
  6847  1D1A                     u356_25:
  6848  1D1A  1C03               	skipc
  6849  1D1B  2D1D               	goto	u356_21
  6850  1D1C  2D1E               	goto	u356_20
  6851  1D1D                     u356_21:
  6852  1D1D  2D24               	goto	i1l2591
  6853  1D1E                     u356_20:
  6854  1D1E                     i1l2589:
  6855  1D1E  0870               	movf	___awmod@divisor,w
  6856  1D1F  02F2               	subwf	___awmod@dividend,f
  6857  1D20  0871               	movf	___awmod@divisor+1,w
  6858  1D21  1C03               	skipc
  6859  1D22  03F3               	decf	___awmod@dividend+1,f
  6860  1D23  02F3               	subwf	___awmod@dividend+1,f
  6861  1D24                     i1l2591:
  6862  1D24  3001               	movlw	1
  6863  1D25                     u357_25:
  6864  1D25  1003               	clrc
  6865  1D26  0CF1               	rrf	___awmod@divisor+1,f
  6866  1D27  0CF0               	rrf	___awmod@divisor,f
  6867  1D28  3EFF               	addlw	-1
  6868  1D29  1D03               	skipz
  6869  1D2A  2D25               	goto	u357_25
  6870  1D2B                     i1l2593:
  6871  1D2B  3001               	movlw	1
  6872  1D2C  02F4               	subwf	___awmod@counter,f
  6873  1D2D  1D03               	btfss	3,2
  6874  1D2E  2D30               	goto	u358_21
  6875  1D2F  2D31               	goto	u358_20
  6876  1D30                     u358_21:
  6877  1D30  2D14               	goto	i1l2587
  6878  1D31                     u358_20:
  6879  1D31                     i1l2595:
  6880  1D31  0875               	movf	___awmod@sign,w
  6881  1D32  1903               	btfsc	3,2
  6882  1D33  2D35               	goto	u359_21
  6883  1D34  2D36               	goto	u359_20
  6884  1D35                     u359_21:
  6885  1D35  2D3B               	goto	i1l2599
  6886  1D36                     u359_20:
  6887  1D36                     i1l2597:
  6888  1D36  09F2               	comf	___awmod@dividend,f
  6889  1D37  09F3               	comf	___awmod@dividend+1,f
  6890  1D38  0AF2               	incf	___awmod@dividend,f
  6891  1D39  1903               	skipnz
  6892  1D3A  0AF3               	incf	___awmod@dividend+1,f
  6893  1D3B                     i1l2599:
  6894  1D3B  0873               	movf	___awmod@dividend+1,w
  6895  1D3C  00F1               	movwf	?___awmod+1
  6896  1D3D  0872               	movf	___awmod@dividend,w
  6897  1D3E  00F0               	movwf	?___awmod
  6898  1D3F                     i1l609:
  6899  1D3F  0008               	return
  6900  1D40                     __end_of___awmod:
  6901                           
  6902                           	psect	text29
  6903  1E02                     __ptext29:	
  6904 ;; *************** function ___awdiv *****************
  6905 ;; Defined at:
  6906 ;;		line 5 in file "/opt/microchip/xc8/v2.20/pic/sources/c90/common/awdiv.c"
  6907 ;; Parameters:    Size  Location     Type
  6908 ;;  divisor         2    6[COMMON] int 
  6909 ;;  dividend        2    8[COMMON] int 
  6910 ;; Auto vars:     Size  Location     Type
  6911 ;;  quotient        2   12[COMMON] int 
  6912 ;;  sign            1   11[COMMON] unsigned char 
  6913 ;;  counter         1   10[COMMON] unsigned char 
  6914 ;; Return value:  Size  Location     Type
  6915 ;;                  2    6[COMMON] int 
  6916 ;; Registers used:
  6917 ;;		wreg, status,2, status,0, btemp+1
  6918 ;; Tracked objects:
  6919 ;;		On entry : 0/0
  6920 ;;		On exit  : 0/0
  6921 ;;		Unchanged: 0/0
  6922 ;; Data sizes:     COMMON   BANK0   BANK1   BANK3   BANK2
  6923 ;;      Params:         4       0       0       0       0
  6924 ;;      Locals:         4       0       0       0       0
  6925 ;;      Temps:          0       0       0       0       0
  6926 ;;      Totals:         8       0       0       0       0
  6927 ;;Total ram usage:        8 bytes
  6928 ;; Hardware stack levels used:    1
  6929 ;; This function calls:
  6930 ;;		Nothing
  6931 ;; This function is called by:
  6932 ;;		_scale
  6933 ;;		_sprintf
  6934 ;; This function uses a non-reentrant model
  6935 ;;
  6936                           
  6937                           
  6938                           ;psect for function ___awdiv
  6939  1E02                     ___awdiv:
  6940  1E02                     i1l2521:	
  6941                           ;incstack = 0
  6942                           ; Regs used in ___awdiv: [wreg+status,2+status,0+btemp+1]
  6943                           
  6944  1E02  01FB               	clrf	___awdiv@sign
  6945  1E03                     i1l2523:
  6946  1E03  1FF7               	btfss	___awdiv@divisor+1,7
  6947  1E04  2E06               	goto	u341_21
  6948  1E05  2E07               	goto	u341_20
  6949  1E06                     u341_21:
  6950  1E06  2E0E               	goto	i1l2529
  6951  1E07                     u341_20:
  6952  1E07                     i1l2525:
  6953  1E07  09F6               	comf	___awdiv@divisor,f
  6954  1E08  09F7               	comf	___awdiv@divisor+1,f
  6955  1E09  0AF6               	incf	___awdiv@divisor,f
  6956  1E0A  1903               	skipnz
  6957  1E0B  0AF7               	incf	___awdiv@divisor+1,f
  6958  1E0C                     i1l2527:
  6959  1E0C  01FB               	clrf	___awdiv@sign
  6960  1E0D  0AFB               	incf	___awdiv@sign,f
  6961  1E0E                     i1l2529:
  6962  1E0E  1FF9               	btfss	___awdiv@dividend+1,7
  6963  1E0F  2E11               	goto	u342_21
  6964  1E10  2E12               	goto	u342_20
  6965  1E11                     u342_21:
  6966  1E11  2E1B               	goto	i1l2535
  6967  1E12                     u342_20:
  6968  1E12                     i1l2531:
  6969  1E12  09F8               	comf	___awdiv@dividend,f
  6970  1E13  09F9               	comf	___awdiv@dividend+1,f
  6971  1E14  0AF8               	incf	___awdiv@dividend,f
  6972  1E15  1903               	skipnz
  6973  1E16  0AF9               	incf	___awdiv@dividend+1,f
  6974  1E17                     i1l2533:
  6975  1E17  3001               	movlw	1
  6976  1E18  00FF               	movwf	btemp+1
  6977  1E19  087F               	movf	btemp+1,w
  6978  1E1A  06FB               	xorwf	___awdiv@sign,f
  6979  1E1B                     i1l2535:
  6980  1E1B  01FC               	clrf	___awdiv@quotient
  6981  1E1C  01FD               	clrf	___awdiv@quotient+1
  6982  1E1D                     i1l2537:
  6983  1E1D  0876               	movf	___awdiv@divisor,w
  6984  1E1E  0477               	iorwf	___awdiv@divisor+1,w
  6985  1E1F  1903               	btfsc	3,2
  6986  1E20  2E22               	goto	u343_21
  6987  1E21  2E23               	goto	u343_20
  6988  1E22                     u343_21:
  6989  1E22  2E5A               	goto	i1l2557
  6990  1E23                     u343_20:
  6991  1E23                     i1l2539:
  6992  1E23  01FA               	clrf	___awdiv@counter
  6993  1E24  0AFA               	incf	___awdiv@counter,f
  6994  1E25  2E31               	goto	i1l2545
  6995  1E26                     i1l2541:
  6996  1E26  3001               	movlw	1
  6997  1E27                     u344_25:
  6998  1E27  1003               	clrc
  6999  1E28  0DF6               	rlf	___awdiv@divisor,f
  7000  1E29  0DF7               	rlf	___awdiv@divisor+1,f
  7001  1E2A  3EFF               	addlw	-1
  7002  1E2B  1D03               	skipz
  7003  1E2C  2E27               	goto	u344_25
  7004  1E2D                     i1l2543:
  7005  1E2D  3001               	movlw	1
  7006  1E2E  00FF               	movwf	btemp+1
  7007  1E2F  087F               	movf	btemp+1,w
  7008  1E30  07FA               	addwf	___awdiv@counter,f
  7009  1E31                     i1l2545:
  7010  1E31  1FF7               	btfss	___awdiv@divisor+1,7
  7011  1E32  2E34               	goto	u345_21
  7012  1E33  2E35               	goto	u345_20
  7013  1E34                     u345_21:
  7014  1E34  2E26               	goto	i1l2541
  7015  1E35                     u345_20:
  7016  1E35                     i1l2547:
  7017  1E35  3001               	movlw	1
  7018  1E36                     u346_25:
  7019  1E36  1003               	clrc
  7020  1E37  0DFC               	rlf	___awdiv@quotient,f
  7021  1E38  0DFD               	rlf	___awdiv@quotient+1,f
  7022  1E39  3EFF               	addlw	-1
  7023  1E3A  1D03               	skipz
  7024  1E3B  2E36               	goto	u346_25
  7025  1E3C  0877               	movf	___awdiv@divisor+1,w
  7026  1E3D  0279               	subwf	___awdiv@dividend+1,w
  7027  1E3E  1D03               	skipz
  7028  1E3F  2E42               	goto	u347_25
  7029  1E40  0876               	movf	___awdiv@divisor,w
  7030  1E41  0278               	subwf	___awdiv@dividend,w
  7031  1E42                     u347_25:
  7032  1E42  1C03               	skipc
  7033  1E43  2E45               	goto	u347_21
  7034  1E44  2E46               	goto	u347_20
  7035  1E45                     u347_21:
  7036  1E45  2E4D               	goto	i1l2553
  7037  1E46                     u347_20:
  7038  1E46                     i1l2549:
  7039  1E46  0876               	movf	___awdiv@divisor,w
  7040  1E47  02F8               	subwf	___awdiv@dividend,f
  7041  1E48  0877               	movf	___awdiv@divisor+1,w
  7042  1E49  1C03               	skipc
  7043  1E4A  03F9               	decf	___awdiv@dividend+1,f
  7044  1E4B  02F9               	subwf	___awdiv@dividend+1,f
  7045  1E4C                     i1l2551:
  7046  1E4C  147C               	bsf	___awdiv@quotient,0
  7047  1E4D                     i1l2553:
  7048  1E4D  3001               	movlw	1
  7049  1E4E                     u348_25:
  7050  1E4E  1003               	clrc
  7051  1E4F  0CF7               	rrf	___awdiv@divisor+1,f
  7052  1E50  0CF6               	rrf	___awdiv@divisor,f
  7053  1E51  3EFF               	addlw	-1
  7054  1E52  1D03               	skipz
  7055  1E53  2E4E               	goto	u348_25
  7056  1E54                     i1l2555:
  7057  1E54  3001               	movlw	1
  7058  1E55  02FA               	subwf	___awdiv@counter,f
  7059  1E56  1D03               	btfss	3,2
  7060  1E57  2E59               	goto	u349_21
  7061  1E58  2E5A               	goto	u349_20
  7062  1E59                     u349_21:
  7063  1E59  2E35               	goto	i1l2547
  7064  1E5A                     u349_20:
  7065  1E5A                     i1l2557:
  7066  1E5A  087B               	movf	___awdiv@sign,w
  7067  1E5B  1903               	btfsc	3,2
  7068  1E5C  2E5E               	goto	u350_21
  7069  1E5D  2E5F               	goto	u350_20
  7070  1E5E                     u350_21:
  7071  1E5E  2E64               	goto	i1l2561
  7072  1E5F                     u350_20:
  7073  1E5F                     i1l2559:
  7074  1E5F  09FC               	comf	___awdiv@quotient,f
  7075  1E60  09FD               	comf	___awdiv@quotient+1,f
  7076  1E61  0AFC               	incf	___awdiv@quotient,f
  7077  1E62  1903               	skipnz
  7078  1E63  0AFD               	incf	___awdiv@quotient+1,f
  7079  1E64                     i1l2561:
  7080  1E64  087D               	movf	___awdiv@quotient+1,w
  7081  1E65  00F7               	movwf	?___awdiv+1
  7082  1E66  087C               	movf	___awdiv@quotient,w
  7083  1E67  00F6               	movwf	?___awdiv
  7084  1E68                     i1l596:
  7085  1E68  0008               	return
  7086  1E69                     __end_of___awdiv:
  7087                           
  7088                           	psect	text30
  7089  136D                     __ptext30:	
  7090 ;; *************** function _fround *****************
  7091 ;; Defined at:
  7092 ;;		line 417 in file "/opt/microchip/xc8/v2.20/pic/sources/c90/common/doprnt.c"
  7093 ;; Parameters:    Size  Location     Type
  7094 ;;  prec            1    wreg     unsigned char 
  7095 ;; Auto vars:     Size  Location     Type
  7096 ;;  prec            1   45[BANK0 ] unsigned char 
  7097 ;; Return value:  Size  Location     Type
  7098 ;;                  4   26[BANK0 ] unsigned char 
  7099 ;; Registers used:
  7100 ;;		wreg, fsr0l, fsr0h, status,2, status,0, btemp+1, pclath, cstack
  7101 ;; Tracked objects:
  7102 ;;		On entry : 0/0
  7103 ;;		On exit  : 0/0
  7104 ;;		Unchanged: 0/0
  7105 ;; Data sizes:     COMMON   BANK0   BANK1   BANK3   BANK2
  7106 ;;      Params:         0       4       0       0       0
  7107 ;;      Locals:         0       9       0       0       0
  7108 ;;      Temps:          0       7       0       0       0
  7109 ;;      Totals:         0      20       0       0       0
  7110 ;;Total ram usage:       20 bytes
  7111 ;; Hardware stack levels used:    1
  7112 ;; Hardware stack levels required when called:    2
  7113 ;; This function calls:
  7114 ;;		___flmul
  7115 ;;		___lwdiv
  7116 ;;		___lwmod
  7117 ;; This function is called by:
  7118 ;;		_sprintf
  7119 ;; This function uses a non-reentrant model
  7120 ;;
  7121                           
  7122                           
  7123                           ;psect for function _fround
  7124  136D                     _fround:
  7125                           
  7126                           ;incstack = 0
  7127 ;; using string table level
  7128                           ; Regs used in _fround: [wreg-fsr0h+status,2+status,0+btemp+1+pclath+cstack]
  7129                           ;fround@prec stored from wreg
  7130  136D  1283               	bcf	3,5	;RP0=0, select bank0
  7131  136E  1303               	bcf	3,6	;RP1=0, select bank0
  7132  136F  00CD               	movwf	fround@prec
  7133  1370                     i1l3017:
  7134                           
  7135                           ;doprnt.c: 421: if(prec>=110)
  7136  1370  306E               	movlw	110
  7137  1371  024D               	subwf	fround@prec,w
  7138  1372  1C03               	skipc
  7139  1373  2B75               	goto	u468_21
  7140  1374  2B76               	goto	u468_20
  7141  1375                     u468_21:
  7142  1375  2C83               	goto	i1l3025
  7143  1376                     u468_20:
  7144  1376                     i1l3019:
  7145                           
  7146                           ;doprnt.c: 422: return 0.5 * _npowers_[prec/100U+18U] * _npowers_[(prec%100U)/10U+9U] * 
      +                          _npowers_[prec%10U];
  7147  1376  303F               	movlw	63
  7148  1377  00A3               	movwf	___flmul@b+3
  7149  1378  3000               	movlw	0
  7150  1379  00A2               	movwf	___flmul@b+2
  7151  137A  3000               	movlw	0
  7152  137B  00A1               	movwf	___flmul@b+1
  7153  137C  3000               	movlw	0
  7154  137D  00A0               	movwf	___flmul@b
  7155  137E  3064               	movlw	100
  7156  137F  00F5               	movwf	___lwdiv@divisor
  7157  1380  3000               	movlw	0
  7158  1381  00F6               	movwf	___lwdiv@divisor+1
  7159  1382  084D               	movf	fround@prec,w
  7160  1383  00BE               	movwf	??_fround
  7161  1384  01BF               	clrf	??_fround+1
  7162  1385  083E               	movf	??_fround,w
  7163  1386  00F7               	movwf	___lwdiv@dividend
  7164  1387  083F               	movf	??_fround+1,w
  7165  1388  00F8               	movwf	___lwdiv@dividend+1
  7166  1389  160A  158A  2313  160A  118A  	fcall	___lwdiv
  7167  138E  0875               	movf	?___lwdiv,w
  7168  138F  1283               	bcf	3,5	;RP0=0, select bank0
  7169  1390  1303               	bcf	3,6	;RP1=0, select bank0
  7170  1391  00C0               	movwf	??_fround+2
  7171  1392  3001               	movlw	1
  7172  1393                     u469_25:
  7173  1393  1003               	clrc
  7174  1394  0DC0               	rlf	??_fround+2,f
  7175  1395  3EFF               	addlw	-1
  7176  1396  1D03               	skipz
  7177  1397  2B93               	goto	u469_25
  7178  1398  1003               	clrc
  7179  1399  0D40               	rlf	??_fround+2,w
  7180  139A  3E7D               	addlw	low (((__npowers_-__stringbase)| (0+32768)+72))
  7181  139B  0084               	movwf	4
  7182  139C  160A  158A  200A  160A  118A  	fcall	stringdir
  7183  13A1  00C1               	movwf	??_fround+3
  7184  13A2  160A  158A  200A  160A  118A  	fcall	stringdir
  7185  13A7  00C2               	movwf	??_fround+4
  7186  13A8  160A  158A  200A  160A  118A  	fcall	stringdir
  7187  13AD  00C3               	movwf	??_fround+5
  7188  13AE  160A  158A  200A  160A  118A  	fcall	stringdir
  7189  13B3  00C4               	movwf	??_fround+6
  7190  13B4  0844               	movf	??_fround+6,w
  7191  13B5  00A7               	movwf	___flmul@a+3
  7192  13B6  0843               	movf	??_fround+5,w
  7193  13B7  00A6               	movwf	___flmul@a+2
  7194  13B8  0842               	movf	??_fround+4,w
  7195  13B9  00A5               	movwf	___flmul@a+1
  7196  13BA  0841               	movf	??_fround+3,w
  7197  13BB  00A4               	movwf	___flmul@a
  7198  13BC  120A  158A  249F  160A  118A  	fcall	___flmul
  7199  13C1  1283               	bcf	3,5	;RP0=0, select bank0
  7200  13C2  1303               	bcf	3,6	;RP1=0, select bank0
  7201  13C3  0823               	movf	?___flmul+3,w
  7202  13C4  00CC               	movwf	_fround$973+3
  7203  13C5  0822               	movf	?___flmul+2,w
  7204  13C6  00CB               	movwf	_fround$973+2
  7205  13C7  0821               	movf	?___flmul+1,w
  7206  13C8  00CA               	movwf	_fround$973+1
  7207  13C9  0820               	movf	?___flmul,w
  7208  13CA  00C9               	movwf	_fround$973
  7209                           
  7210                           ;doprnt.c: 422: return 0.5 * _npowers_[prec/100U+18U] * _npowers_[(prec%100U)/10U+9U] * 
      +                          _npowers_[prec%10U];
  7211  13CB  300A               	movlw	10
  7212  13CC  00F5               	movwf	___lwdiv@divisor
  7213  13CD  3000               	movlw	0
  7214  13CE  00F6               	movwf	___lwdiv@divisor+1
  7215  13CF  084D               	movf	fround@prec,w
  7216  13D0  00BE               	movwf	??_fround
  7217  13D1  01BF               	clrf	??_fround+1
  7218  13D2  083E               	movf	??_fround,w
  7219  13D3  00F2               	movwf	___lwmod@dividend
  7220  13D4  083F               	movf	??_fround+1,w
  7221  13D5  00F3               	movwf	___lwmod@dividend+1
  7222  13D6  3064               	movlw	100
  7223  13D7  00F0               	movwf	___lwmod@divisor
  7224  13D8  3000               	movlw	0
  7225  13D9  00F1               	movwf	___lwmod@divisor+1
  7226  13DA  160A  158A  229E  160A  118A  	fcall	___lwmod
  7227  13DF  0871               	movf	?___lwmod+1,w
  7228  13E0  00F8               	movwf	___lwdiv@dividend+1
  7229  13E1  0870               	movf	?___lwmod,w
  7230  13E2  00F7               	movwf	___lwdiv@dividend
  7231  13E3  160A  158A  2313  160A  118A  	fcall	___lwdiv
  7232  13E8  0875               	movf	?___lwdiv,w
  7233  13E9  1283               	bcf	3,5	;RP0=0, select bank0
  7234  13EA  1303               	bcf	3,6	;RP1=0, select bank0
  7235  13EB  00C0               	movwf	??_fround+2
  7236  13EC  3001               	movlw	1
  7237  13ED                     u470_25:
  7238  13ED  1003               	clrc
  7239  13EE  0DC0               	rlf	??_fround+2,f
  7240  13EF  3EFF               	addlw	-1
  7241  13F0  1D03               	skipz
  7242  13F1  2BED               	goto	u470_25
  7243  13F2  1003               	clrc
  7244  13F3  0D40               	rlf	??_fround+2,w
  7245  13F4  3E59               	addlw	low (((__npowers_-__stringbase)| (0+32768)+36))
  7246  13F5  0084               	movwf	4
  7247  13F6  160A  158A  200A  160A  118A  	fcall	stringdir
  7248  13FB  00C1               	movwf	??_fround+3
  7249  13FC  160A  158A  200A  160A  118A  	fcall	stringdir
  7250  1401  00C2               	movwf	??_fround+4
  7251  1402  160A  158A  200A  160A  118A  	fcall	stringdir
  7252  1407  00C3               	movwf	??_fround+5
  7253  1408  160A  158A  200A  160A  118A  	fcall	stringdir
  7254  140D  00C4               	movwf	??_fround+6
  7255  140E  0844               	movf	??_fround+6,w
  7256  140F  00A3               	movwf	___flmul@b+3
  7257  1410  0843               	movf	??_fround+5,w
  7258  1411  00A2               	movwf	___flmul@b+2
  7259  1412  0842               	movf	??_fround+4,w
  7260  1413  00A1               	movwf	___flmul@b+1
  7261  1414  0841               	movf	??_fround+3,w
  7262  1415  00A0               	movwf	___flmul@b
  7263  1416  084C               	movf	_fround$973+3,w
  7264  1417  00A7               	movwf	___flmul@a+3
  7265  1418  084B               	movf	_fround$973+2,w
  7266  1419  00A6               	movwf	___flmul@a+2
  7267  141A  084A               	movf	_fround$973+1,w
  7268  141B  00A5               	movwf	___flmul@a+1
  7269  141C  0849               	movf	_fround$973,w
  7270  141D  00A4               	movwf	___flmul@a
  7271  141E  120A  158A  249F  160A  118A  	fcall	___flmul
  7272  1423  1283               	bcf	3,5	;RP0=0, select bank0
  7273  1424  1303               	bcf	3,6	;RP1=0, select bank0
  7274  1425  0823               	movf	?___flmul+3,w
  7275  1426  00C8               	movwf	_fround$974+3
  7276  1427  0822               	movf	?___flmul+2,w
  7277  1428  00C7               	movwf	_fround$974+2
  7278  1429  0821               	movf	?___flmul+1,w
  7279  142A  00C6               	movwf	_fround$974+1
  7280  142B  0820               	movf	?___flmul,w
  7281  142C  00C5               	movwf	_fround$974
  7282                           
  7283                           ;doprnt.c: 422: return 0.5 * _npowers_[prec/100U+18U] * _npowers_[(prec%100U)/10U+9U] * 
      +                          _npowers_[prec%10U];
  7284  142D  300A               	movlw	10
  7285  142E  00F0               	movwf	___lwmod@divisor
  7286  142F  3000               	movlw	0
  7287  1430  00F1               	movwf	___lwmod@divisor+1
  7288  1431  084D               	movf	fround@prec,w
  7289  1432  00BE               	movwf	??_fround
  7290  1433  01BF               	clrf	??_fround+1
  7291  1434  083E               	movf	??_fround,w
  7292  1435  00F2               	movwf	___lwmod@dividend
  7293  1436  083F               	movf	??_fround+1,w
  7294  1437  00F3               	movwf	___lwmod@dividend+1
  7295  1438  160A  158A  229E  160A  118A  	fcall	___lwmod
  7296  143D  0870               	movf	?___lwmod,w
  7297  143E  1283               	bcf	3,5	;RP0=0, select bank0
  7298  143F  1303               	bcf	3,6	;RP1=0, select bank0
  7299  1440  00C0               	movwf	??_fround+2
  7300  1441  3001               	movlw	1
  7301  1442                     u471_25:
  7302  1442  1003               	clrc
  7303  1443  0DC0               	rlf	??_fround+2,f
  7304  1444  3EFF               	addlw	-1
  7305  1445  1D03               	skipz
  7306  1446  2C42               	goto	u471_25
  7307  1447  1003               	clrc
  7308  1448  0D40               	rlf	??_fround+2,w
  7309  1449  3E35               	addlw	low ((__npowers_-__stringbase)| (0+32768))
  7310  144A  0084               	movwf	4
  7311  144B  160A  158A  200A  160A  118A  	fcall	stringdir
  7312  1450  00C1               	movwf	??_fround+3
  7313  1451  160A  158A  200A  160A  118A  	fcall	stringdir
  7314  1456  00C2               	movwf	??_fround+4
  7315  1457  160A  158A  200A  160A  118A  	fcall	stringdir
  7316  145C  00C3               	movwf	??_fround+5
  7317  145D  160A  158A  200A  160A  118A  	fcall	stringdir
  7318  1462  00C4               	movwf	??_fround+6
  7319  1463  0844               	movf	??_fround+6,w
  7320  1464  00A3               	movwf	___flmul@b+3
  7321  1465  0843               	movf	??_fround+5,w
  7322  1466  00A2               	movwf	___flmul@b+2
  7323  1467  0842               	movf	??_fround+4,w
  7324  1468  00A1               	movwf	___flmul@b+1
  7325  1469  0841               	movf	??_fround+3,w
  7326  146A  00A0               	movwf	___flmul@b
  7327  146B  0848               	movf	_fround$974+3,w
  7328  146C  00A7               	movwf	___flmul@a+3
  7329  146D  0847               	movf	_fround$974+2,w
  7330  146E  00A6               	movwf	___flmul@a+2
  7331  146F  0846               	movf	_fround$974+1,w
  7332  1470  00A5               	movwf	___flmul@a+1
  7333  1471  0845               	movf	_fround$974,w
  7334  1472  00A4               	movwf	___flmul@a
  7335  1473  120A  158A  249F  160A  118A  	fcall	___flmul
  7336  1478  1283               	bcf	3,5	;RP0=0, select bank0
  7337  1479  1303               	bcf	3,6	;RP1=0, select bank0
  7338  147A  0823               	movf	?___flmul+3,w
  7339  147B  00BD               	movwf	?_fround+3
  7340  147C  0822               	movf	?___flmul+2,w
  7341  147D  00BC               	movwf	?_fround+2
  7342  147E  0821               	movf	?___flmul+1,w
  7343  147F  00BB               	movwf	?_fround+1
  7344  1480  0820               	movf	?___flmul,w
  7345  1481  00BA               	movwf	?_fround
  7346  1482  2D77               	goto	i1l367
  7347  1483                     i1l3025:
  7348                           
  7349                           ;doprnt.c: 423: else if(prec > 10)
  7350  1483  300B               	movlw	11
  7351  1484  024D               	subwf	fround@prec,w
  7352  1485  1C03               	skipc
  7353  1486  2C88               	goto	u472_21
  7354  1487  2C89               	goto	u472_20
  7355  1488                     u472_21:
  7356  1488  2D34               	goto	i1l3031
  7357  1489                     u472_20:
  7358  1489                     i1l3027:
  7359                           
  7360                           ;doprnt.c: 424: return 0.5 * _npowers_[prec/10U+9U] * _npowers_[prec%10U];
  7361  1489  303F               	movlw	63
  7362  148A  00A3               	movwf	___flmul@b+3
  7363  148B  3000               	movlw	0
  7364  148C  00A2               	movwf	___flmul@b+2
  7365  148D  3000               	movlw	0
  7366  148E  00A1               	movwf	___flmul@b+1
  7367  148F  3000               	movlw	0
  7368  1490  00A0               	movwf	___flmul@b
  7369  1491  300A               	movlw	10
  7370  1492  00F5               	movwf	___lwdiv@divisor
  7371  1493  3000               	movlw	0
  7372  1494  00F6               	movwf	___lwdiv@divisor+1
  7373  1495  084D               	movf	fround@prec,w
  7374  1496  00BE               	movwf	??_fround
  7375  1497  01BF               	clrf	??_fround+1
  7376  1498  083E               	movf	??_fround,w
  7377  1499  00F7               	movwf	___lwdiv@dividend
  7378  149A  083F               	movf	??_fround+1,w
  7379  149B  00F8               	movwf	___lwdiv@dividend+1
  7380  149C  160A  158A  2313  160A  118A  	fcall	___lwdiv
  7381  14A1  0875               	movf	?___lwdiv,w
  7382  14A2  1283               	bcf	3,5	;RP0=0, select bank0
  7383  14A3  1303               	bcf	3,6	;RP1=0, select bank0
  7384  14A4  00C0               	movwf	??_fround+2
  7385  14A5  3001               	movlw	1
  7386  14A6                     u473_25:
  7387  14A6  1003               	clrc
  7388  14A7  0DC0               	rlf	??_fround+2,f
  7389  14A8  3EFF               	addlw	-1
  7390  14A9  1D03               	skipz
  7391  14AA  2CA6               	goto	u473_25
  7392  14AB  1003               	clrc
  7393  14AC  0D40               	rlf	??_fround+2,w
  7394  14AD  3E59               	addlw	low (((__npowers_-__stringbase)| (0+32768)+36))
  7395  14AE  0084               	movwf	4
  7396  14AF  160A  158A  200A  160A  118A  	fcall	stringdir
  7397  14B4  00C1               	movwf	??_fround+3
  7398  14B5  160A  158A  200A  160A  118A  	fcall	stringdir
  7399  14BA  00C2               	movwf	??_fround+4
  7400  14BB  160A  158A  200A  160A  118A  	fcall	stringdir
  7401  14C0  00C3               	movwf	??_fround+5
  7402  14C1  160A  158A  200A  160A  118A  	fcall	stringdir
  7403  14C6  00C4               	movwf	??_fround+6
  7404  14C7  0844               	movf	??_fround+6,w
  7405  14C8  00A7               	movwf	___flmul@a+3
  7406  14C9  0843               	movf	??_fround+5,w
  7407  14CA  00A6               	movwf	___flmul@a+2
  7408  14CB  0842               	movf	??_fround+4,w
  7409  14CC  00A5               	movwf	___flmul@a+1
  7410  14CD  0841               	movf	??_fround+3,w
  7411  14CE  00A4               	movwf	___flmul@a
  7412  14CF  120A  158A  249F  160A  118A  	fcall	___flmul
  7413  14D4  1283               	bcf	3,5	;RP0=0, select bank0
  7414  14D5  1303               	bcf	3,6	;RP1=0, select bank0
  7415  14D6  0823               	movf	?___flmul+3,w
  7416  14D7  00CC               	movwf	_fround$973+3
  7417  14D8  0822               	movf	?___flmul+2,w
  7418  14D9  00CB               	movwf	_fround$973+2
  7419  14DA  0821               	movf	?___flmul+1,w
  7420  14DB  00CA               	movwf	_fround$973+1
  7421  14DC  0820               	movf	?___flmul,w
  7422  14DD  00C9               	movwf	_fround$973
  7423                           
  7424                           ;doprnt.c: 424: return 0.5 * _npowers_[prec/10U+9U] * _npowers_[prec%10U];
  7425  14DE  300A               	movlw	10
  7426  14DF  00F0               	movwf	___lwmod@divisor
  7427  14E0  3000               	movlw	0
  7428  14E1  00F1               	movwf	___lwmod@divisor+1
  7429  14E2  084D               	movf	fround@prec,w
  7430  14E3  00BE               	movwf	??_fround
  7431  14E4  01BF               	clrf	??_fround+1
  7432  14E5  083E               	movf	??_fround,w
  7433  14E6  00F2               	movwf	___lwmod@dividend
  7434  14E7  083F               	movf	??_fround+1,w
  7435  14E8  00F3               	movwf	___lwmod@dividend+1
  7436  14E9  160A  158A  229E  160A  118A  	fcall	___lwmod
  7437  14EE  0870               	movf	?___lwmod,w
  7438  14EF  1283               	bcf	3,5	;RP0=0, select bank0
  7439  14F0  1303               	bcf	3,6	;RP1=0, select bank0
  7440  14F1  00C0               	movwf	??_fround+2
  7441  14F2  3001               	movlw	1
  7442  14F3                     u474_25:
  7443  14F3  1003               	clrc
  7444  14F4  0DC0               	rlf	??_fround+2,f
  7445  14F5  3EFF               	addlw	-1
  7446  14F6  1D03               	skipz
  7447  14F7  2CF3               	goto	u474_25
  7448  14F8  1003               	clrc
  7449  14F9  0D40               	rlf	??_fround+2,w
  7450  14FA  3E35               	addlw	low ((__npowers_-__stringbase)| (0+32768))
  7451  14FB  0084               	movwf	4
  7452  14FC  160A  158A  200A  160A  118A  	fcall	stringdir
  7453  1501  00C1               	movwf	??_fround+3
  7454  1502  160A  158A  200A  160A  118A  	fcall	stringdir
  7455  1507  00C2               	movwf	??_fround+4
  7456  1508  160A  158A  200A  160A  118A  	fcall	stringdir
  7457  150D  00C3               	movwf	??_fround+5
  7458  150E  160A  158A  200A  160A  118A  	fcall	stringdir
  7459  1513  00C4               	movwf	??_fround+6
  7460  1514  0844               	movf	??_fround+6,w
  7461  1515  00A3               	movwf	___flmul@b+3
  7462  1516  0843               	movf	??_fround+5,w
  7463  1517  00A2               	movwf	___flmul@b+2
  7464  1518  0842               	movf	??_fround+4,w
  7465  1519  00A1               	movwf	___flmul@b+1
  7466  151A  0841               	movf	??_fround+3,w
  7467  151B  00A0               	movwf	___flmul@b
  7468  151C  084C               	movf	_fround$973+3,w
  7469  151D  00A7               	movwf	___flmul@a+3
  7470  151E  084B               	movf	_fround$973+2,w
  7471  151F  00A6               	movwf	___flmul@a+2
  7472  1520  084A               	movf	_fround$973+1,w
  7473  1521  00A5               	movwf	___flmul@a+1
  7474  1522  0849               	movf	_fround$973,w
  7475  1523  00A4               	movwf	___flmul@a
  7476  1524  120A  158A  249F  160A  118A  	fcall	___flmul
  7477  1529  1283               	bcf	3,5	;RP0=0, select bank0
  7478  152A  1303               	bcf	3,6	;RP1=0, select bank0
  7479  152B  0823               	movf	?___flmul+3,w
  7480  152C  00BD               	movwf	?_fround+3
  7481  152D  0822               	movf	?___flmul+2,w
  7482  152E  00BC               	movwf	?_fround+2
  7483  152F  0821               	movf	?___flmul+1,w
  7484  1530  00BB               	movwf	?_fround+1
  7485  1531  0820               	movf	?___flmul,w
  7486  1532  00BA               	movwf	?_fround
  7487  1533  2D77               	goto	i1l367
  7488  1534                     i1l3031:
  7489                           
  7490                           ;doprnt.c: 425: return 0.5 * _npowers_[prec];
  7491  1534  303F               	movlw	63
  7492  1535  00A3               	movwf	___flmul@b+3
  7493  1536  3000               	movlw	0
  7494  1537  00A2               	movwf	___flmul@b+2
  7495  1538  3000               	movlw	0
  7496  1539  00A1               	movwf	___flmul@b+1
  7497  153A  3000               	movlw	0
  7498  153B  00A0               	movwf	___flmul@b
  7499  153C  084D               	movf	fround@prec,w
  7500  153D  00BE               	movwf	??_fround
  7501  153E  3001               	movlw	1
  7502  153F                     u475_25:
  7503  153F  1003               	clrc
  7504  1540  0DBE               	rlf	??_fround,f
  7505  1541  3EFF               	addlw	-1
  7506  1542  1D03               	skipz
  7507  1543  2D3F               	goto	u475_25
  7508  1544  1003               	clrc
  7509  1545  0D3E               	rlf	??_fround,w
  7510  1546  3E35               	addlw	low ((__npowers_-__stringbase)| (0+32768))
  7511  1547  0084               	movwf	4
  7512  1548  160A  158A  200A  160A  118A  	fcall	stringdir
  7513  154D  00BF               	movwf	??_fround+1
  7514  154E  160A  158A  200A  160A  118A  	fcall	stringdir
  7515  1553  00C0               	movwf	??_fround+2
  7516  1554  160A  158A  200A  160A  118A  	fcall	stringdir
  7517  1559  00C1               	movwf	??_fround+3
  7518  155A  160A  158A  200A  160A  118A  	fcall	stringdir
  7519  155F  00C2               	movwf	??_fround+4
  7520  1560  0842               	movf	??_fround+4,w
  7521  1561  00A7               	movwf	___flmul@a+3
  7522  1562  0841               	movf	??_fround+3,w
  7523  1563  00A6               	movwf	___flmul@a+2
  7524  1564  0840               	movf	??_fround+2,w
  7525  1565  00A5               	movwf	___flmul@a+1
  7526  1566  083F               	movf	??_fround+1,w
  7527  1567  00A4               	movwf	___flmul@a
  7528  1568  120A  158A  249F  160A  118A  	fcall	___flmul
  7529  156D  1283               	bcf	3,5	;RP0=0, select bank0
  7530  156E  1303               	bcf	3,6	;RP1=0, select bank0
  7531  156F  0823               	movf	?___flmul+3,w
  7532  1570  00BD               	movwf	?_fround+3
  7533  1571  0822               	movf	?___flmul+2,w
  7534  1572  00BC               	movwf	?_fround+2
  7535  1573  0821               	movf	?___flmul+1,w
  7536  1574  00BB               	movwf	?_fround+1
  7537  1575  0820               	movf	?___flmul,w
  7538  1576  00BA               	movwf	?_fround
  7539  1577                     i1l367:
  7540  1577  0008               	return
  7541  1578                     __end_of_fround:
  7542                           
  7543                           	psect	text31
  7544  1A9E                     __ptext31:	
  7545 ;; *************** function ___lwmod *****************
  7546 ;; Defined at:
  7547 ;;		line 5 in file "/opt/microchip/xc8/v2.20/pic/sources/c90/common/lwmod.c"
  7548 ;; Parameters:    Size  Location     Type
  7549 ;;  divisor         2    0[COMMON] unsigned int 
  7550 ;;  dividend        2    2[COMMON] unsigned int 
  7551 ;; Auto vars:     Size  Location     Type
  7552 ;;  counter         1    4[COMMON] unsigned char 
  7553 ;; Return value:  Size  Location     Type
  7554 ;;                  2    0[COMMON] unsigned int 
  7555 ;; Registers used:
  7556 ;;		wreg, status,2, status,0, btemp+1
  7557 ;; Tracked objects:
  7558 ;;		On entry : 0/0
  7559 ;;		On exit  : 0/0
  7560 ;;		Unchanged: 0/0
  7561 ;; Data sizes:     COMMON   BANK0   BANK1   BANK3   BANK2
  7562 ;;      Params:         4       0       0       0       0
  7563 ;;      Locals:         1       0       0       0       0
  7564 ;;      Temps:          0       0       0       0       0
  7565 ;;      Totals:         5       0       0       0       0
  7566 ;;Total ram usage:        5 bytes
  7567 ;; Hardware stack levels used:    1
  7568 ;; This function calls:
  7569 ;;		Nothing
  7570 ;; This function is called by:
  7571 ;;		_fround
  7572 ;; This function uses a non-reentrant model
  7573 ;;
  7574                           
  7575                           
  7576                           ;psect for function ___lwmod
  7577  1A9E                     ___lwmod:
  7578  1A9E                     i1l2629:	
  7579                           ;incstack = 0
  7580                           ; Regs used in ___lwmod: [wreg+status,2+status,0+btemp+1]
  7581                           
  7582  1A9E  0870               	movf	___lwmod@divisor,w
  7583  1A9F  0471               	iorwf	___lwmod@divisor+1,w
  7584  1AA0  1903               	btfsc	3,2
  7585  1AA1  2AA3               	goto	u367_21
  7586  1AA2  2AA4               	goto	u367_20
  7587  1AA3                     u367_21:
  7588  1AA3  2AD3               	goto	i1l2647
  7589  1AA4                     u367_20:
  7590  1AA4                     i1l2631:
  7591  1AA4  01F4               	clrf	___lwmod@counter
  7592  1AA5  0AF4               	incf	___lwmod@counter,f
  7593  1AA6  2AB2               	goto	i1l2637
  7594  1AA7                     i1l2633:
  7595  1AA7  3001               	movlw	1
  7596  1AA8                     u368_25:
  7597  1AA8  1003               	clrc
  7598  1AA9  0DF0               	rlf	___lwmod@divisor,f
  7599  1AAA  0DF1               	rlf	___lwmod@divisor+1,f
  7600  1AAB  3EFF               	addlw	-1
  7601  1AAC  1D03               	skipz
  7602  1AAD  2AA8               	goto	u368_25
  7603  1AAE                     i1l2635:
  7604  1AAE  3001               	movlw	1
  7605  1AAF  00FF               	movwf	btemp+1
  7606  1AB0  087F               	movf	btemp+1,w
  7607  1AB1  07F4               	addwf	___lwmod@counter,f
  7608  1AB2                     i1l2637:
  7609  1AB2  1FF1               	btfss	___lwmod@divisor+1,7
  7610  1AB3  2AB5               	goto	u369_21
  7611  1AB4  2AB6               	goto	u369_20
  7612  1AB5                     u369_21:
  7613  1AB5  2AA7               	goto	i1l2633
  7614  1AB6                     u369_20:
  7615  1AB6                     i1l2639:
  7616  1AB6  0871               	movf	___lwmod@divisor+1,w
  7617  1AB7  0273               	subwf	___lwmod@dividend+1,w
  7618  1AB8  1D03               	skipz
  7619  1AB9  2ABC               	goto	u370_25
  7620  1ABA  0870               	movf	___lwmod@divisor,w
  7621  1ABB  0272               	subwf	___lwmod@dividend,w
  7622  1ABC                     u370_25:
  7623  1ABC  1C03               	skipc
  7624  1ABD  2ABF               	goto	u370_21
  7625  1ABE  2AC0               	goto	u370_20
  7626  1ABF                     u370_21:
  7627  1ABF  2AC6               	goto	i1l2643
  7628  1AC0                     u370_20:
  7629  1AC0                     i1l2641:
  7630  1AC0  0870               	movf	___lwmod@divisor,w
  7631  1AC1  02F2               	subwf	___lwmod@dividend,f
  7632  1AC2  0871               	movf	___lwmod@divisor+1,w
  7633  1AC3  1C03               	skipc
  7634  1AC4  03F3               	decf	___lwmod@dividend+1,f
  7635  1AC5  02F3               	subwf	___lwmod@dividend+1,f
  7636  1AC6                     i1l2643:
  7637  1AC6  3001               	movlw	1
  7638  1AC7                     u371_25:
  7639  1AC7  1003               	clrc
  7640  1AC8  0CF1               	rrf	___lwmod@divisor+1,f
  7641  1AC9  0CF0               	rrf	___lwmod@divisor,f
  7642  1ACA  3EFF               	addlw	-1
  7643  1ACB  1D03               	skipz
  7644  1ACC  2AC7               	goto	u371_25
  7645  1ACD                     i1l2645:
  7646  1ACD  3001               	movlw	1
  7647  1ACE  02F4               	subwf	___lwmod@counter,f
  7648  1ACF  1D03               	btfss	3,2
  7649  1AD0  2AD2               	goto	u372_21
  7650  1AD1  2AD3               	goto	u372_20
  7651  1AD2                     u372_21:
  7652  1AD2  2AB6               	goto	i1l2639
  7653  1AD3                     u372_20:
  7654  1AD3                     i1l2647:
  7655  1AD3  0873               	movf	___lwmod@dividend+1,w
  7656  1AD4  00F1               	movwf	?___lwmod+1
  7657  1AD5  0872               	movf	___lwmod@dividend,w
  7658  1AD6  00F0               	movwf	?___lwmod
  7659  1AD7                     i1l759:
  7660  1AD7  0008               	return
  7661  1AD8                     __end_of___lwmod:
  7662                           
  7663                           	psect	text32
  7664  1B13                     __ptext32:	
  7665 ;; *************** function ___lwdiv *****************
  7666 ;; Defined at:
  7667 ;;		line 5 in file "/opt/microchip/xc8/v2.20/pic/sources/c90/common/lwdiv.c"
  7668 ;; Parameters:    Size  Location     Type
  7669 ;;  divisor         2    5[COMMON] unsigned int 
  7670 ;;  dividend        2    7[COMMON] unsigned int 
  7671 ;; Auto vars:     Size  Location     Type
  7672 ;;  quotient        2    9[COMMON] unsigned int 
  7673 ;;  counter         1   11[COMMON] unsigned char 
  7674 ;; Return value:  Size  Location     Type
  7675 ;;                  2    5[COMMON] unsigned int 
  7676 ;; Registers used:
  7677 ;;		wreg, status,2, status,0, btemp+1
  7678 ;; Tracked objects:
  7679 ;;		On entry : 0/0
  7680 ;;		On exit  : 0/0
  7681 ;;		Unchanged: 0/0
  7682 ;; Data sizes:     COMMON   BANK0   BANK1   BANK3   BANK2
  7683 ;;      Params:         4       0       0       0       0
  7684 ;;      Locals:         3       0       0       0       0
  7685 ;;      Temps:          0       0       0       0       0
  7686 ;;      Totals:         7       0       0       0       0
  7687 ;;Total ram usage:        7 bytes
  7688 ;; Hardware stack levels used:    1
  7689 ;; This function calls:
  7690 ;;		Nothing
  7691 ;; This function is called by:
  7692 ;;		_fround
  7693 ;; This function uses a non-reentrant model
  7694 ;;
  7695                           
  7696                           
  7697                           ;psect for function ___lwdiv
  7698  1B13                     ___lwdiv:
  7699  1B13                     i1l2603:	
  7700                           ;incstack = 0
  7701                           ; Regs used in ___lwdiv: [wreg+status,2+status,0+btemp+1]
  7702                           
  7703  1B13  01F9               	clrf	___lwdiv@quotient
  7704  1B14  01FA               	clrf	___lwdiv@quotient+1
  7705  1B15                     i1l2605:
  7706  1B15  0875               	movf	___lwdiv@divisor,w
  7707  1B16  0476               	iorwf	___lwdiv@divisor+1,w
  7708  1B17  1903               	btfsc	3,2
  7709  1B18  2B1A               	goto	u360_21
  7710  1B19  2B1B               	goto	u360_20
  7711  1B1A                     u360_21:
  7712  1B1A  2B52               	goto	i1l2625
  7713  1B1B                     u360_20:
  7714  1B1B                     i1l2607:
  7715  1B1B  01FB               	clrf	___lwdiv@counter
  7716  1B1C  0AFB               	incf	___lwdiv@counter,f
  7717  1B1D  2B29               	goto	i1l2613
  7718  1B1E                     i1l2609:
  7719  1B1E  3001               	movlw	1
  7720  1B1F                     u361_25:
  7721  1B1F  1003               	clrc
  7722  1B20  0DF5               	rlf	___lwdiv@divisor,f
  7723  1B21  0DF6               	rlf	___lwdiv@divisor+1,f
  7724  1B22  3EFF               	addlw	-1
  7725  1B23  1D03               	skipz
  7726  1B24  2B1F               	goto	u361_25
  7727  1B25                     i1l2611:
  7728  1B25  3001               	movlw	1
  7729  1B26  00FF               	movwf	btemp+1
  7730  1B27  087F               	movf	btemp+1,w
  7731  1B28  07FB               	addwf	___lwdiv@counter,f
  7732  1B29                     i1l2613:
  7733  1B29  1FF6               	btfss	___lwdiv@divisor+1,7
  7734  1B2A  2B2C               	goto	u362_21
  7735  1B2B  2B2D               	goto	u362_20
  7736  1B2C                     u362_21:
  7737  1B2C  2B1E               	goto	i1l2609
  7738  1B2D                     u362_20:
  7739  1B2D                     i1l2615:
  7740  1B2D  3001               	movlw	1
  7741  1B2E                     u363_25:
  7742  1B2E  1003               	clrc
  7743  1B2F  0DF9               	rlf	___lwdiv@quotient,f
  7744  1B30  0DFA               	rlf	___lwdiv@quotient+1,f
  7745  1B31  3EFF               	addlw	-1
  7746  1B32  1D03               	skipz
  7747  1B33  2B2E               	goto	u363_25
  7748  1B34  0876               	movf	___lwdiv@divisor+1,w
  7749  1B35  0278               	subwf	___lwdiv@dividend+1,w
  7750  1B36  1D03               	skipz
  7751  1B37  2B3A               	goto	u364_25
  7752  1B38  0875               	movf	___lwdiv@divisor,w
  7753  1B39  0277               	subwf	___lwdiv@dividend,w
  7754  1B3A                     u364_25:
  7755  1B3A  1C03               	skipc
  7756  1B3B  2B3D               	goto	u364_21
  7757  1B3C  2B3E               	goto	u364_20
  7758  1B3D                     u364_21:
  7759  1B3D  2B45               	goto	i1l2621
  7760  1B3E                     u364_20:
  7761  1B3E                     i1l2617:
  7762  1B3E  0875               	movf	___lwdiv@divisor,w
  7763  1B3F  02F7               	subwf	___lwdiv@dividend,f
  7764  1B40  0876               	movf	___lwdiv@divisor+1,w
  7765  1B41  1C03               	skipc
  7766  1B42  03F8               	decf	___lwdiv@dividend+1,f
  7767  1B43  02F8               	subwf	___lwdiv@dividend+1,f
  7768  1B44                     i1l2619:
  7769  1B44  1479               	bsf	___lwdiv@quotient,0
  7770  1B45                     i1l2621:
  7771  1B45  3001               	movlw	1
  7772  1B46                     u365_25:
  7773  1B46  1003               	clrc
  7774  1B47  0CF6               	rrf	___lwdiv@divisor+1,f
  7775  1B48  0CF5               	rrf	___lwdiv@divisor,f
  7776  1B49  3EFF               	addlw	-1
  7777  1B4A  1D03               	skipz
  7778  1B4B  2B46               	goto	u365_25
  7779  1B4C                     i1l2623:
  7780  1B4C  3001               	movlw	1
  7781  1B4D  02FB               	subwf	___lwdiv@counter,f
  7782  1B4E  1D03               	btfss	3,2
  7783  1B4F  2B51               	goto	u366_21
  7784  1B50  2B52               	goto	u366_20
  7785  1B51                     u366_21:
  7786  1B51  2B2D               	goto	i1l2615
  7787  1B52                     u366_20:
  7788  1B52                     i1l2625:
  7789  1B52  087A               	movf	___lwdiv@quotient+1,w
  7790  1B53  00F6               	movwf	?___lwdiv+1
  7791  1B54  0879               	movf	___lwdiv@quotient,w
  7792  1B55  00F5               	movwf	?___lwdiv
  7793  1B56                     i1l749:
  7794  1B56  0008               	return
  7795  1B57                     __end_of___lwdiv:
  7796                           
  7797                           	psect	text33
  7798  0C9F                     __ptext33:	
  7799 ;; *************** function ___flmul *****************
  7800 ;; Defined at:
  7801 ;;		line 8 in file "/opt/microchip/xc8/v2.20/pic/sources/c90/common/sprcmul.c"
  7802 ;; Parameters:    Size  Location     Type
  7803 ;;  b               4    0[BANK0 ] unsigned int 
  7804 ;;  a               4    4[BANK0 ] unsigned int 
  7805 ;; Auto vars:     Size  Location     Type
  7806 ;;  prod            4   20[BANK0 ] struct .
  7807 ;;  grs             4   14[BANK0 ] unsigned long 
  7808 ;;  temp            2   24[BANK0 ] struct .
  7809 ;;  bexp            1   19[BANK0 ] unsigned char 
  7810 ;;  aexp            1   18[BANK0 ] unsigned char 
  7811 ;;  sign            1   13[BANK0 ] unsigned char 
  7812 ;; Return value:  Size  Location     Type
  7813 ;;                  4    0[BANK0 ] unsigned char 
  7814 ;; Registers used:
  7815 ;;		wreg, status,2, status,0, btemp+1, pclath, cstack
  7816 ;; Tracked objects:
  7817 ;;		On entry : 0/0
  7818 ;;		On exit  : 0/0
  7819 ;;		Unchanged: 0/0
  7820 ;; Data sizes:     COMMON   BANK0   BANK1   BANK3   BANK2
  7821 ;;      Params:         0       8       0       0       0
  7822 ;;      Locals:         0      13       0       0       0
  7823 ;;      Temps:          0       5       0       0       0
  7824 ;;      Totals:         0      26       0       0       0
  7825 ;;Total ram usage:       26 bytes
  7826 ;; Hardware stack levels used:    1
  7827 ;; Hardware stack levels required when called:    1
  7828 ;; This function calls:
  7829 ;;		__Umul8_16
  7830 ;; This function is called by:
  7831 ;;		_fround
  7832 ;;		_scale
  7833 ;;		_sprintf
  7834 ;; This function uses a non-reentrant model
  7835 ;;
  7836                           
  7837                           
  7838                           ;psect for function ___flmul
  7839  0C9F                     ___flmul:
  7840  0C9F                     i1l2853:	
  7841                           ;incstack = 0
  7842                           ; Regs used in ___flmul: [wreg+status,2+status,0+btemp+1+pclath+cstack]
  7843                           
  7844  0C9F  1283               	bcf	3,5	;RP0=0, select bank0
  7845  0CA0  1303               	bcf	3,6	;RP1=0, select bank0
  7846  0CA1  0823               	movf	___flmul@b+3,w
  7847  0CA2  3980               	andlw	128
  7848  0CA3  00FF               	movwf	btemp+1
  7849  0CA4  087F               	movf	btemp+1,w
  7850  0CA5  00AD               	movwf	___flmul@sign
  7851  0CA6                     i1l2855:
  7852  0CA6  0823               	movf	___flmul@b+3,w
  7853  0CA7  00A8               	movwf	??___flmul
  7854  0CA8  0728               	addwf	??___flmul,w
  7855  0CA9  00FF               	movwf	btemp+1
  7856  0CAA  087F               	movf	btemp+1,w
  7857  0CAB  00B3               	movwf	___flmul@bexp
  7858  0CAC                     i1l2857:
  7859  0CAC  1FA2               	btfss	___flmul@b+2,7
  7860  0CAD  2CAF               	goto	u419_21
  7861  0CAE  2CB0               	goto	u419_20
  7862  0CAF                     u419_21:
  7863  0CAF  2CB1               	goto	i1l2861
  7864  0CB0                     u419_20:
  7865  0CB0                     i1l2859:
  7866  0CB0  1433               	bsf	___flmul@bexp,0
  7867  0CB1                     i1l2861:
  7868  0CB1  0833               	movf	___flmul@bexp,w
  7869  0CB2  1903               	btfsc	3,2
  7870  0CB3  2CB5               	goto	u420_21
  7871  0CB4  2CB6               	goto	u420_20
  7872  0CB5                     u420_21:
  7873  0CB5  2CC5               	goto	i1l2869
  7874  0CB6                     u420_20:
  7875  0CB6                     i1l2863:
  7876  0CB6  0A33               	incf	___flmul@bexp,w
  7877  0CB7  1D03               	btfss	3,2
  7878  0CB8  2CBA               	goto	u421_21
  7879  0CB9  2CBB               	goto	u421_20
  7880  0CBA                     u421_21:
  7881  0CBA  2CC3               	goto	i1l2867
  7882  0CBB                     u421_20:
  7883  0CBB                     i1l2865:
  7884  0CBB  3000               	movlw	0
  7885  0CBC  00A3               	movwf	___flmul@b+3
  7886  0CBD  3000               	movlw	0
  7887  0CBE  00A2               	movwf	___flmul@b+2
  7888  0CBF  3000               	movlw	0
  7889  0CC0  00A1               	movwf	___flmul@b+1
  7890  0CC1  3000               	movlw	0
  7891  0CC2  00A0               	movwf	___flmul@b
  7892  0CC3                     i1l2867:
  7893  0CC3  17A2               	bsf	___flmul@b+2,7
  7894  0CC4  2CCD               	goto	i1l2871
  7895  0CC5                     i1l2869:
  7896  0CC5  3000               	movlw	0
  7897  0CC6  00A3               	movwf	___flmul@b+3
  7898  0CC7  3000               	movlw	0
  7899  0CC8  00A2               	movwf	___flmul@b+2
  7900  0CC9  3000               	movlw	0
  7901  0CCA  00A1               	movwf	___flmul@b+1
  7902  0CCB  3000               	movlw	0
  7903  0CCC  00A0               	movwf	___flmul@b
  7904  0CCD                     i1l2871:
  7905  0CCD  0827               	movf	___flmul@a+3,w
  7906  0CCE  3980               	andlw	128
  7907  0CCF  00FF               	movwf	btemp+1
  7908  0CD0  087F               	movf	btemp+1,w
  7909  0CD1  06AD               	xorwf	___flmul@sign,f
  7910  0CD2                     i1l2873:
  7911  0CD2  0827               	movf	___flmul@a+3,w
  7912  0CD3  00A8               	movwf	??___flmul
  7913  0CD4  0728               	addwf	??___flmul,w
  7914  0CD5  00FF               	movwf	btemp+1
  7915  0CD6  087F               	movf	btemp+1,w
  7916  0CD7  00B2               	movwf	___flmul@aexp
  7917  0CD8                     i1l2875:
  7918  0CD8  1FA6               	btfss	___flmul@a+2,7
  7919  0CD9  2CDB               	goto	u422_21
  7920  0CDA  2CDC               	goto	u422_20
  7921  0CDB                     u422_21:
  7922  0CDB  2CDD               	goto	i1l2879
  7923  0CDC                     u422_20:
  7924  0CDC                     i1l2877:
  7925  0CDC  1432               	bsf	___flmul@aexp,0
  7926  0CDD                     i1l2879:
  7927  0CDD  0832               	movf	___flmul@aexp,w
  7928  0CDE  1903               	btfsc	3,2
  7929  0CDF  2CE1               	goto	u423_21
  7930  0CE0  2CE2               	goto	u423_20
  7931  0CE1                     u423_21:
  7932  0CE1  2CF1               	goto	i1l2887
  7933  0CE2                     u423_20:
  7934  0CE2                     i1l2881:
  7935  0CE2  0A32               	incf	___flmul@aexp,w
  7936  0CE3  1D03               	btfss	3,2
  7937  0CE4  2CE6               	goto	u424_21
  7938  0CE5  2CE7               	goto	u424_20
  7939  0CE6                     u424_21:
  7940  0CE6  2CEF               	goto	i1l2885
  7941  0CE7                     u424_20:
  7942  0CE7                     i1l2883:
  7943  0CE7  3000               	movlw	0
  7944  0CE8  00A7               	movwf	___flmul@a+3
  7945  0CE9  3000               	movlw	0
  7946  0CEA  00A6               	movwf	___flmul@a+2
  7947  0CEB  3000               	movlw	0
  7948  0CEC  00A5               	movwf	___flmul@a+1
  7949  0CED  3000               	movlw	0
  7950  0CEE  00A4               	movwf	___flmul@a
  7951  0CEF                     i1l2885:
  7952  0CEF  17A6               	bsf	___flmul@a+2,7
  7953  0CF0  2CF9               	goto	i1l2889
  7954  0CF1                     i1l2887:
  7955  0CF1  3000               	movlw	0
  7956  0CF2  00A7               	movwf	___flmul@a+3
  7957  0CF3  3000               	movlw	0
  7958  0CF4  00A6               	movwf	___flmul@a+2
  7959  0CF5  3000               	movlw	0
  7960  0CF6  00A5               	movwf	___flmul@a+1
  7961  0CF7  3000               	movlw	0
  7962  0CF8  00A4               	movwf	___flmul@a
  7963  0CF9                     i1l2889:
  7964  0CF9  0832               	movf	___flmul@aexp,w
  7965  0CFA  1903               	btfsc	3,2
  7966  0CFB  2CFD               	goto	u425_21
  7967  0CFC  2CFE               	goto	u425_20
  7968  0CFD                     u425_21:
  7969  0CFD  2D03               	goto	i1l2893
  7970  0CFE                     u425_20:
  7971  0CFE                     i1l2891:
  7972  0CFE  0833               	movf	___flmul@bexp,w
  7973  0CFF  1D03               	btfss	3,2
  7974  0D00  2D02               	goto	u426_21
  7975  0D01  2D03               	goto	u426_20
  7976  0D02                     u426_21:
  7977  0D02  2D0C               	goto	i1l2897
  7978  0D03                     u426_20:
  7979  0D03                     i1l2893:
  7980  0D03  3000               	movlw	0
  7981  0D04  00A3               	movwf	?___flmul+3
  7982  0D05  3000               	movlw	0
  7983  0D06  00A2               	movwf	?___flmul+2
  7984  0D07  3000               	movlw	0
  7985  0D08  00A1               	movwf	?___flmul+1
  7986  0D09  3000               	movlw	0
  7987  0D0A  00A0               	movwf	?___flmul
  7988  0D0B  2FFF               	goto	i1l866
  7989  0D0C                     i1l2897:
  7990  0D0C  0820               	movf	___flmul@b,w
  7991  0D0D  00FF               	movwf	btemp+1
  7992  0D0E  087F               	movf	btemp+1,w
  7993  0D0F  00F0               	movwf	__Umul8_16@multiplicand
  7994  0D10  0826               	movf	___flmul@a+2,w
  7995  0D11  160A  158A  2218  120A  158A  	fcall	__Umul8_16
  7996  0D16  0871               	movf	?__Umul8_16+1,w
  7997  0D17  1283               	bcf	3,5	;RP0=0, select bank0
  7998  0D18  1303               	bcf	3,6	;RP1=0, select bank0
  7999  0D19  00B9               	movwf	___flmul@temp+1
  8000  0D1A  0870               	movf	?__Umul8_16,w
  8001  0D1B  00B8               	movwf	___flmul@temp
  8002  0D1C                     i1l2899:
  8003  0D1C  0838               	movf	___flmul@temp,w
  8004  0D1D  00A8               	movwf	??___flmul
  8005  0D1E  01A9               	clrf	??___flmul+1
  8006  0D1F  01AA               	clrf	??___flmul+2
  8007  0D20  01AB               	clrf	??___flmul+3
  8008  0D21  082B               	movf	??___flmul+3,w
  8009  0D22  00B1               	movwf	___flmul@grs+3
  8010  0D23  082A               	movf	??___flmul+2,w
  8011  0D24  00B0               	movwf	___flmul@grs+2
  8012  0D25  0829               	movf	??___flmul+1,w
  8013  0D26  00AF               	movwf	___flmul@grs+1
  8014  0D27  0828               	movf	??___flmul,w
  8015  0D28  00AE               	movwf	___flmul@grs
  8016  0D29                     i1l2901:
  8017  0D29  0839               	movf	___flmul@temp+1,w
  8018  0D2A  00A8               	movwf	??___flmul
  8019  0D2B  01A9               	clrf	??___flmul+1
  8020  0D2C  01AA               	clrf	??___flmul+2
  8021  0D2D  01AB               	clrf	??___flmul+3
  8022  0D2E  082B               	movf	??___flmul+3,w
  8023  0D2F  00B7               	movwf	___flmul@prod+3
  8024  0D30  082A               	movf	??___flmul+2,w
  8025  0D31  00B6               	movwf	___flmul@prod+2
  8026  0D32  0829               	movf	??___flmul+1,w
  8027  0D33  00B5               	movwf	___flmul@prod+1
  8028  0D34  0828               	movf	??___flmul,w
  8029  0D35  00B4               	movwf	___flmul@prod
  8030  0D36  0821               	movf	___flmul@b+1,w
  8031  0D37  00FF               	movwf	btemp+1
  8032  0D38  087F               	movf	btemp+1,w
  8033  0D39  00F0               	movwf	__Umul8_16@multiplicand
  8034  0D3A  0825               	movf	___flmul@a+1,w
  8035  0D3B  160A  158A  2218  120A  158A  	fcall	__Umul8_16
  8036  0D40  0871               	movf	?__Umul8_16+1,w
  8037  0D41  1283               	bcf	3,5	;RP0=0, select bank0
  8038  0D42  1303               	bcf	3,6	;RP1=0, select bank0
  8039  0D43  00B9               	movwf	___flmul@temp+1
  8040  0D44  0870               	movf	?__Umul8_16,w
  8041  0D45  00B8               	movwf	___flmul@temp
  8042  0D46                     i1l2903:
  8043  0D46  0838               	movf	___flmul@temp,w
  8044  0D47  00A8               	movwf	??___flmul
  8045  0D48  01A9               	clrf	??___flmul+1
  8046  0D49  01AA               	clrf	??___flmul+2
  8047  0D4A  01AB               	clrf	??___flmul+3
  8048  0D4B  0828               	movf	??___flmul,w
  8049  0D4C  07AE               	addwf	___flmul@grs,f
  8050  0D4D  0829               	movf	??___flmul+1,w
  8051  0D4E  1103               	clrz
  8052  0D4F  1803               	skipnc
  8053  0D50  3E01               	addlw	1
  8054  0D51  1903               	skipnz
  8055  0D52  2D54               	goto	u427_21
  8056  0D53  07AF               	addwf	___flmul@grs+1,f
  8057  0D54                     u427_21:
  8058  0D54  082A               	movf	??___flmul+2,w
  8059  0D55  1103               	clrz
  8060  0D56  1803               	skipnc
  8061  0D57  3E01               	addlw	1
  8062  0D58  1903               	skipnz
  8063  0D59  2D5B               	goto	u427_22
  8064  0D5A  07B0               	addwf	___flmul@grs+2,f
  8065  0D5B                     u427_22:
  8066  0D5B  082B               	movf	??___flmul+3,w
  8067  0D5C  1103               	clrz
  8068  0D5D  1803               	skipnc
  8069  0D5E  3E01               	addlw	1
  8070  0D5F  1903               	skipnz
  8071  0D60  2D62               	goto	u427_23
  8072  0D61  07B1               	addwf	___flmul@grs+3,f
  8073  0D62                     u427_23:
  8074  0D62                     i1l2905:
  8075  0D62  0839               	movf	___flmul@temp+1,w
  8076  0D63  00A8               	movwf	??___flmul
  8077  0D64  01A9               	clrf	??___flmul+1
  8078  0D65  01AA               	clrf	??___flmul+2
  8079  0D66  01AB               	clrf	??___flmul+3
  8080  0D67  0828               	movf	??___flmul,w
  8081  0D68  07B4               	addwf	___flmul@prod,f
  8082  0D69  0829               	movf	??___flmul+1,w
  8083  0D6A  1103               	clrz
  8084  0D6B  1803               	skipnc
  8085  0D6C  3E01               	addlw	1
  8086  0D6D  1903               	skipnz
  8087  0D6E  2D70               	goto	u428_21
  8088  0D6F  07B5               	addwf	___flmul@prod+1,f
  8089  0D70                     u428_21:
  8090  0D70  082A               	movf	??___flmul+2,w
  8091  0D71  1103               	clrz
  8092  0D72  1803               	skipnc
  8093  0D73  3E01               	addlw	1
  8094  0D74  1903               	skipnz
  8095  0D75  2D77               	goto	u428_22
  8096  0D76  07B6               	addwf	___flmul@prod+2,f
  8097  0D77                     u428_22:
  8098  0D77  082B               	movf	??___flmul+3,w
  8099  0D78  1103               	clrz
  8100  0D79  1803               	skipnc
  8101  0D7A  3E01               	addlw	1
  8102  0D7B  1903               	skipnz
  8103  0D7C  2D7E               	goto	u428_23
  8104  0D7D  07B7               	addwf	___flmul@prod+3,f
  8105  0D7E                     u428_23:
  8106  0D7E  0822               	movf	___flmul@b+2,w
  8107  0D7F  00FF               	movwf	btemp+1
  8108  0D80  087F               	movf	btemp+1,w
  8109  0D81  00F0               	movwf	__Umul8_16@multiplicand
  8110  0D82  0824               	movf	___flmul@a,w
  8111  0D83  160A  158A  2218  120A  158A  	fcall	__Umul8_16
  8112  0D88  0871               	movf	?__Umul8_16+1,w
  8113  0D89  1283               	bcf	3,5	;RP0=0, select bank0
  8114  0D8A  1303               	bcf	3,6	;RP1=0, select bank0
  8115  0D8B  00B9               	movwf	___flmul@temp+1
  8116  0D8C  0870               	movf	?__Umul8_16,w
  8117  0D8D  00B8               	movwf	___flmul@temp
  8118  0D8E                     i1l2907:
  8119  0D8E  0838               	movf	___flmul@temp,w
  8120  0D8F  00A8               	movwf	??___flmul
  8121  0D90  01A9               	clrf	??___flmul+1
  8122  0D91  01AA               	clrf	??___flmul+2
  8123  0D92  01AB               	clrf	??___flmul+3
  8124  0D93  0828               	movf	??___flmul,w
  8125  0D94  07AE               	addwf	___flmul@grs,f
  8126  0D95  0829               	movf	??___flmul+1,w
  8127  0D96  1103               	clrz
  8128  0D97  1803               	skipnc
  8129  0D98  3E01               	addlw	1
  8130  0D99  1903               	skipnz
  8131  0D9A  2D9C               	goto	u429_21
  8132  0D9B  07AF               	addwf	___flmul@grs+1,f
  8133  0D9C                     u429_21:
  8134  0D9C  082A               	movf	??___flmul+2,w
  8135  0D9D  1103               	clrz
  8136  0D9E  1803               	skipnc
  8137  0D9F  3E01               	addlw	1
  8138  0DA0  1903               	skipnz
  8139  0DA1  2DA3               	goto	u429_22
  8140  0DA2  07B0               	addwf	___flmul@grs+2,f
  8141  0DA3                     u429_22:
  8142  0DA3  082B               	movf	??___flmul+3,w
  8143  0DA4  1103               	clrz
  8144  0DA5  1803               	skipnc
  8145  0DA6  3E01               	addlw	1
  8146  0DA7  1903               	skipnz
  8147  0DA8  2DAA               	goto	u429_23
  8148  0DA9  07B1               	addwf	___flmul@grs+3,f
  8149  0DAA                     u429_23:
  8150  0DAA                     i1l2909:
  8151  0DAA  0839               	movf	___flmul@temp+1,w
  8152  0DAB  00A8               	movwf	??___flmul
  8153  0DAC  01A9               	clrf	??___flmul+1
  8154  0DAD  01AA               	clrf	??___flmul+2
  8155  0DAE  01AB               	clrf	??___flmul+3
  8156  0DAF  0828               	movf	??___flmul,w
  8157  0DB0  07B4               	addwf	___flmul@prod,f
  8158  0DB1  0829               	movf	??___flmul+1,w
  8159  0DB2  1103               	clrz
  8160  0DB3  1803               	skipnc
  8161  0DB4  3E01               	addlw	1
  8162  0DB5  1903               	skipnz
  8163  0DB6  2DB8               	goto	u430_21
  8164  0DB7  07B5               	addwf	___flmul@prod+1,f
  8165  0DB8                     u430_21:
  8166  0DB8  082A               	movf	??___flmul+2,w
  8167  0DB9  1103               	clrz
  8168  0DBA  1803               	skipnc
  8169  0DBB  3E01               	addlw	1
  8170  0DBC  1903               	skipnz
  8171  0DBD  2DBF               	goto	u430_22
  8172  0DBE  07B6               	addwf	___flmul@prod+2,f
  8173  0DBF                     u430_22:
  8174  0DBF  082B               	movf	??___flmul+3,w
  8175  0DC0  1103               	clrz
  8176  0DC1  1803               	skipnc
  8177  0DC2  3E01               	addlw	1
  8178  0DC3  1903               	skipnz
  8179  0DC4  2DC6               	goto	u430_23
  8180  0DC5  07B7               	addwf	___flmul@prod+3,f
  8181  0DC6                     u430_23:
  8182  0DC6                     i1l2911:
  8183  0DC6  3008               	movlw	8
  8184  0DC7  00A8               	movwf	??___flmul
  8185  0DC8                     u431_25:
  8186  0DC8  1003               	clrc
  8187  0DC9  0DAE               	rlf	___flmul@grs,f
  8188  0DCA  0DAF               	rlf	___flmul@grs+1,f
  8189  0DCB  0DB0               	rlf	___flmul@grs+2,f
  8190  0DCC  0DB1               	rlf	___flmul@grs+3,f
  8191  0DCD  0BA8               	decfsz	??___flmul,f
  8192  0DCE  2DC8               	goto	u431_25
  8193  0DCF                     i1l2913:
  8194  0DCF  0821               	movf	___flmul@b+1,w
  8195  0DD0  00FF               	movwf	btemp+1
  8196  0DD1  087F               	movf	btemp+1,w
  8197  0DD2  00F0               	movwf	__Umul8_16@multiplicand
  8198  0DD3  0824               	movf	___flmul@a,w
  8199  0DD4  160A  158A  2218  120A  158A  	fcall	__Umul8_16
  8200  0DD9  0871               	movf	?__Umul8_16+1,w
  8201  0DDA  1283               	bcf	3,5	;RP0=0, select bank0
  8202  0DDB  1303               	bcf	3,6	;RP1=0, select bank0
  8203  0DDC  00B9               	movwf	___flmul@temp+1
  8204  0DDD  0870               	movf	?__Umul8_16,w
  8205  0DDE  00B8               	movwf	___flmul@temp
  8206  0DDF                     i1l2915:
  8207  0DDF  0838               	movf	___flmul@temp,w
  8208  0DE0  00A8               	movwf	??___flmul
  8209  0DE1  0839               	movf	___flmul@temp+1,w
  8210  0DE2  00A9               	movwf	??___flmul+1
  8211  0DE3  01AA               	clrf	??___flmul+2
  8212  0DE4  01AB               	clrf	??___flmul+3
  8213  0DE5  0828               	movf	??___flmul,w
  8214  0DE6  07AE               	addwf	___flmul@grs,f
  8215  0DE7  0829               	movf	??___flmul+1,w
  8216  0DE8  1103               	clrz
  8217  0DE9  1803               	skipnc
  8218  0DEA  3E01               	addlw	1
  8219  0DEB  1903               	skipnz
  8220  0DEC  2DEE               	goto	u432_21
  8221  0DED  07AF               	addwf	___flmul@grs+1,f
  8222  0DEE                     u432_21:
  8223  0DEE  082A               	movf	??___flmul+2,w
  8224  0DEF  1103               	clrz
  8225  0DF0  1803               	skipnc
  8226  0DF1  3E01               	addlw	1
  8227  0DF2  1903               	skipnz
  8228  0DF3  2DF5               	goto	u432_22
  8229  0DF4  07B0               	addwf	___flmul@grs+2,f
  8230  0DF5                     u432_22:
  8231  0DF5  082B               	movf	??___flmul+3,w
  8232  0DF6  1103               	clrz
  8233  0DF7  1803               	skipnc
  8234  0DF8  3E01               	addlw	1
  8235  0DF9  1903               	skipnz
  8236  0DFA  2DFC               	goto	u432_23
  8237  0DFB  07B1               	addwf	___flmul@grs+3,f
  8238  0DFC                     u432_23:
  8239  0DFC                     i1l2917:
  8240  0DFC  0820               	movf	___flmul@b,w
  8241  0DFD  00FF               	movwf	btemp+1
  8242  0DFE  087F               	movf	btemp+1,w
  8243  0DFF  00F0               	movwf	__Umul8_16@multiplicand
  8244  0E00  0825               	movf	___flmul@a+1,w
  8245  0E01  160A  158A  2218  120A  158A  	fcall	__Umul8_16
  8246  0E06  0871               	movf	?__Umul8_16+1,w
  8247  0E07  1283               	bcf	3,5	;RP0=0, select bank0
  8248  0E08  1303               	bcf	3,6	;RP1=0, select bank0
  8249  0E09  00B9               	movwf	___flmul@temp+1
  8250  0E0A  0870               	movf	?__Umul8_16,w
  8251  0E0B  00B8               	movwf	___flmul@temp
  8252  0E0C                     i1l2919:
  8253  0E0C  0838               	movf	___flmul@temp,w
  8254  0E0D  00A8               	movwf	??___flmul
  8255  0E0E  0839               	movf	___flmul@temp+1,w
  8256  0E0F  00A9               	movwf	??___flmul+1
  8257  0E10  01AA               	clrf	??___flmul+2
  8258  0E11  01AB               	clrf	??___flmul+3
  8259  0E12  0828               	movf	??___flmul,w
  8260  0E13  07AE               	addwf	___flmul@grs,f
  8261  0E14  0829               	movf	??___flmul+1,w
  8262  0E15  1103               	clrz
  8263  0E16  1803               	skipnc
  8264  0E17  3E01               	addlw	1
  8265  0E18  1903               	skipnz
  8266  0E19  2E1B               	goto	u433_21
  8267  0E1A  07AF               	addwf	___flmul@grs+1,f
  8268  0E1B                     u433_21:
  8269  0E1B  082A               	movf	??___flmul+2,w
  8270  0E1C  1103               	clrz
  8271  0E1D  1803               	skipnc
  8272  0E1E  3E01               	addlw	1
  8273  0E1F  1903               	skipnz
  8274  0E20  2E22               	goto	u433_22
  8275  0E21  07B0               	addwf	___flmul@grs+2,f
  8276  0E22                     u433_22:
  8277  0E22  082B               	movf	??___flmul+3,w
  8278  0E23  1103               	clrz
  8279  0E24  1803               	skipnc
  8280  0E25  3E01               	addlw	1
  8281  0E26  1903               	skipnz
  8282  0E27  2E29               	goto	u433_23
  8283  0E28  07B1               	addwf	___flmul@grs+3,f
  8284  0E29                     u433_23:
  8285  0E29                     i1l2921:
  8286  0E29  3008               	movlw	8
  8287  0E2A  00A8               	movwf	??___flmul
  8288  0E2B                     u434_25:
  8289  0E2B  1003               	clrc
  8290  0E2C  0DAE               	rlf	___flmul@grs,f
  8291  0E2D  0DAF               	rlf	___flmul@grs+1,f
  8292  0E2E  0DB0               	rlf	___flmul@grs+2,f
  8293  0E2F  0DB1               	rlf	___flmul@grs+3,f
  8294  0E30  0BA8               	decfsz	??___flmul,f
  8295  0E31  2E2B               	goto	u434_25
  8296  0E32  0820               	movf	___flmul@b,w
  8297  0E33  00FF               	movwf	btemp+1
  8298  0E34  087F               	movf	btemp+1,w
  8299  0E35  00F0               	movwf	__Umul8_16@multiplicand
  8300  0E36  0824               	movf	___flmul@a,w
  8301  0E37  160A  158A  2218  120A  158A  	fcall	__Umul8_16
  8302  0E3C  0871               	movf	?__Umul8_16+1,w
  8303  0E3D  1283               	bcf	3,5	;RP0=0, select bank0
  8304  0E3E  1303               	bcf	3,6	;RP1=0, select bank0
  8305  0E3F  00B9               	movwf	___flmul@temp+1
  8306  0E40  0870               	movf	?__Umul8_16,w
  8307  0E41  00B8               	movwf	___flmul@temp
  8308  0E42                     i1l2923:
  8309  0E42  0838               	movf	___flmul@temp,w
  8310  0E43  00A8               	movwf	??___flmul
  8311  0E44  0839               	movf	___flmul@temp+1,w
  8312  0E45  00A9               	movwf	??___flmul+1
  8313  0E46  01AA               	clrf	??___flmul+2
  8314  0E47  01AB               	clrf	??___flmul+3
  8315  0E48  0828               	movf	??___flmul,w
  8316  0E49  07AE               	addwf	___flmul@grs,f
  8317  0E4A  0829               	movf	??___flmul+1,w
  8318  0E4B  1103               	clrz
  8319  0E4C  1803               	skipnc
  8320  0E4D  3E01               	addlw	1
  8321  0E4E  1903               	skipnz
  8322  0E4F  2E51               	goto	u435_21
  8323  0E50  07AF               	addwf	___flmul@grs+1,f
  8324  0E51                     u435_21:
  8325  0E51  082A               	movf	??___flmul+2,w
  8326  0E52  1103               	clrz
  8327  0E53  1803               	skipnc
  8328  0E54  3E01               	addlw	1
  8329  0E55  1903               	skipnz
  8330  0E56  2E58               	goto	u435_22
  8331  0E57  07B0               	addwf	___flmul@grs+2,f
  8332  0E58                     u435_22:
  8333  0E58  082B               	movf	??___flmul+3,w
  8334  0E59  1103               	clrz
  8335  0E5A  1803               	skipnc
  8336  0E5B  3E01               	addlw	1
  8337  0E5C  1903               	skipnz
  8338  0E5D  2E5F               	goto	u435_23
  8339  0E5E  07B1               	addwf	___flmul@grs+3,f
  8340  0E5F                     u435_23:
  8341  0E5F                     i1l2925:
  8342  0E5F  0821               	movf	___flmul@b+1,w
  8343  0E60  00FF               	movwf	btemp+1
  8344  0E61  087F               	movf	btemp+1,w
  8345  0E62  00F0               	movwf	__Umul8_16@multiplicand
  8346  0E63  0826               	movf	___flmul@a+2,w
  8347  0E64  160A  158A  2218  120A  158A  	fcall	__Umul8_16
  8348  0E69  0871               	movf	?__Umul8_16+1,w
  8349  0E6A  1283               	bcf	3,5	;RP0=0, select bank0
  8350  0E6B  1303               	bcf	3,6	;RP1=0, select bank0
  8351  0E6C  00B9               	movwf	___flmul@temp+1
  8352  0E6D  0870               	movf	?__Umul8_16,w
  8353  0E6E  00B8               	movwf	___flmul@temp
  8354  0E6F  0838               	movf	___flmul@temp,w
  8355  0E70  00A8               	movwf	??___flmul
  8356  0E71  0839               	movf	___flmul@temp+1,w
  8357  0E72  00A9               	movwf	??___flmul+1
  8358  0E73  01AA               	clrf	??___flmul+2
  8359  0E74  01AB               	clrf	??___flmul+3
  8360  0E75  0828               	movf	??___flmul,w
  8361  0E76  07B4               	addwf	___flmul@prod,f
  8362  0E77  0829               	movf	??___flmul+1,w
  8363  0E78  1103               	clrz
  8364  0E79  1803               	skipnc
  8365  0E7A  3E01               	addlw	1
  8366  0E7B  1903               	skipnz
  8367  0E7C  2E7E               	goto	u436_21
  8368  0E7D  07B5               	addwf	___flmul@prod+1,f
  8369  0E7E                     u436_21:
  8370  0E7E  082A               	movf	??___flmul+2,w
  8371  0E7F  1103               	clrz
  8372  0E80  1803               	skipnc
  8373  0E81  3E01               	addlw	1
  8374  0E82  1903               	skipnz
  8375  0E83  2E85               	goto	u436_22
  8376  0E84  07B6               	addwf	___flmul@prod+2,f
  8377  0E85                     u436_22:
  8378  0E85  082B               	movf	??___flmul+3,w
  8379  0E86  1103               	clrz
  8380  0E87  1803               	skipnc
  8381  0E88  3E01               	addlw	1
  8382  0E89  1903               	skipnz
  8383  0E8A  2E8C               	goto	u436_23
  8384  0E8B  07B7               	addwf	___flmul@prod+3,f
  8385  0E8C                     u436_23:
  8386  0E8C                     i1l2927:
  8387  0E8C  0822               	movf	___flmul@b+2,w
  8388  0E8D  00FF               	movwf	btemp+1
  8389  0E8E  087F               	movf	btemp+1,w
  8390  0E8F  00F0               	movwf	__Umul8_16@multiplicand
  8391  0E90  0825               	movf	___flmul@a+1,w
  8392  0E91  160A  158A  2218  120A  158A  	fcall	__Umul8_16
  8393  0E96  0871               	movf	?__Umul8_16+1,w
  8394  0E97  1283               	bcf	3,5	;RP0=0, select bank0
  8395  0E98  1303               	bcf	3,6	;RP1=0, select bank0
  8396  0E99  00B9               	movwf	___flmul@temp+1
  8397  0E9A  0870               	movf	?__Umul8_16,w
  8398  0E9B  00B8               	movwf	___flmul@temp
  8399  0E9C                     i1l2929:
  8400  0E9C  0838               	movf	___flmul@temp,w
  8401  0E9D  00A8               	movwf	??___flmul
  8402  0E9E  0839               	movf	___flmul@temp+1,w
  8403  0E9F  00A9               	movwf	??___flmul+1
  8404  0EA0  01AA               	clrf	??___flmul+2
  8405  0EA1  01AB               	clrf	??___flmul+3
  8406  0EA2  0828               	movf	??___flmul,w
  8407  0EA3  07B4               	addwf	___flmul@prod,f
  8408  0EA4  0829               	movf	??___flmul+1,w
  8409  0EA5  1103               	clrz
  8410  0EA6  1803               	skipnc
  8411  0EA7  3E01               	addlw	1
  8412  0EA8  1903               	skipnz
  8413  0EA9  2EAB               	goto	u437_21
  8414  0EAA  07B5               	addwf	___flmul@prod+1,f
  8415  0EAB                     u437_21:
  8416  0EAB  082A               	movf	??___flmul+2,w
  8417  0EAC  1103               	clrz
  8418  0EAD  1803               	skipnc
  8419  0EAE  3E01               	addlw	1
  8420  0EAF  1903               	skipnz
  8421  0EB0  2EB2               	goto	u437_22
  8422  0EB1  07B6               	addwf	___flmul@prod+2,f
  8423  0EB2                     u437_22:
  8424  0EB2  082B               	movf	??___flmul+3,w
  8425  0EB3  1103               	clrz
  8426  0EB4  1803               	skipnc
  8427  0EB5  3E01               	addlw	1
  8428  0EB6  1903               	skipnz
  8429  0EB7  2EB9               	goto	u437_23
  8430  0EB8  07B7               	addwf	___flmul@prod+3,f
  8431  0EB9                     u437_23:
  8432  0EB9  0822               	movf	___flmul@b+2,w
  8433  0EBA  00FF               	movwf	btemp+1
  8434  0EBB  087F               	movf	btemp+1,w
  8435  0EBC  00F0               	movwf	__Umul8_16@multiplicand
  8436  0EBD  0826               	movf	___flmul@a+2,w
  8437  0EBE  160A  158A  2218  120A  158A  	fcall	__Umul8_16
  8438  0EC3  0871               	movf	?__Umul8_16+1,w
  8439  0EC4  1283               	bcf	3,5	;RP0=0, select bank0
  8440  0EC5  1303               	bcf	3,6	;RP1=0, select bank0
  8441  0EC6  00B9               	movwf	___flmul@temp+1
  8442  0EC7  0870               	movf	?__Umul8_16,w
  8443  0EC8  00B8               	movwf	___flmul@temp
  8444  0EC9                     i1l2931:
  8445  0EC9  0838               	movf	___flmul@temp,w
  8446  0ECA  00A8               	movwf	??___flmul
  8447  0ECB  0839               	movf	___flmul@temp+1,w
  8448  0ECC  00A9               	movwf	??___flmul+1
  8449  0ECD  01AA               	clrf	??___flmul+2
  8450  0ECE  01AB               	clrf	??___flmul+3
  8451  0ECF  3008               	movlw	8
  8452  0ED0                     u438_25:
  8453  0ED0  1003               	clrc
  8454  0ED1  0DA8               	rlf	??___flmul,f
  8455  0ED2  0DA9               	rlf	??___flmul+1,f
  8456  0ED3  0DAA               	rlf	??___flmul+2,f
  8457  0ED4  0DAB               	rlf	??___flmul+3,f
  8458  0ED5                     u438_20:
  8459  0ED5  3EFF               	addlw	-1
  8460  0ED6  1D03               	skipz
  8461  0ED7  2ED0               	goto	u438_25
  8462  0ED8  0828               	movf	??___flmul,w
  8463  0ED9  07B4               	addwf	___flmul@prod,f
  8464  0EDA  0829               	movf	??___flmul+1,w
  8465  0EDB  1103               	clrz
  8466  0EDC  1803               	skipnc
  8467  0EDD  3E01               	addlw	1
  8468  0EDE  1903               	skipnz
  8469  0EDF  2EE1               	goto	u439_21
  8470  0EE0  07B5               	addwf	___flmul@prod+1,f
  8471  0EE1                     u439_21:
  8472  0EE1  082A               	movf	??___flmul+2,w
  8473  0EE2  1103               	clrz
  8474  0EE3  1803               	skipnc
  8475  0EE4  3E01               	addlw	1
  8476  0EE5  1903               	skipnz
  8477  0EE6  2EE8               	goto	u439_22
  8478  0EE7  07B6               	addwf	___flmul@prod+2,f
  8479  0EE8                     u439_22:
  8480  0EE8  082B               	movf	??___flmul+3,w
  8481  0EE9  1103               	clrz
  8482  0EEA  1803               	skipnc
  8483  0EEB  3E01               	addlw	1
  8484  0EEC  1903               	skipnz
  8485  0EED  2EEF               	goto	u439_23
  8486  0EEE  07B7               	addwf	___flmul@prod+3,f
  8487  0EEF                     u439_23:
  8488  0EEF                     i1l2933:
  8489  0EEF  082E               	movf	___flmul@grs,w
  8490  0EF0  00A8               	movwf	??___flmul
  8491  0EF1  082F               	movf	___flmul@grs+1,w
  8492  0EF2  00A9               	movwf	??___flmul+1
  8493  0EF3  0830               	movf	___flmul@grs+2,w
  8494  0EF4  00AA               	movwf	??___flmul+2
  8495  0EF5  0831               	movf	___flmul@grs+3,w
  8496  0EF6  00AB               	movwf	??___flmul+3
  8497  0EF7  3018               	movlw	24
  8498  0EF8                     u440_25:
  8499  0EF8  1003               	clrc
  8500  0EF9  0CAB               	rrf	??___flmul+3,f
  8501  0EFA  0CAA               	rrf	??___flmul+2,f
  8502  0EFB  0CA9               	rrf	??___flmul+1,f
  8503  0EFC  0CA8               	rrf	??___flmul,f
  8504  0EFD                     u440_20:
  8505  0EFD  3EFF               	addlw	-1
  8506  0EFE  1D03               	skipz
  8507  0EFF  2EF8               	goto	u440_25
  8508  0F00  0828               	movf	??___flmul,w
  8509  0F01  07B4               	addwf	___flmul@prod,f
  8510  0F02  0829               	movf	??___flmul+1,w
  8511  0F03  1103               	clrz
  8512  0F04  1803               	skipnc
  8513  0F05  3E01               	addlw	1
  8514  0F06  1903               	skipnz
  8515  0F07  2F09               	goto	u441_21
  8516  0F08  07B5               	addwf	___flmul@prod+1,f
  8517  0F09                     u441_21:
  8518  0F09  082A               	movf	??___flmul+2,w
  8519  0F0A  1103               	clrz
  8520  0F0B  1803               	skipnc
  8521  0F0C  3E01               	addlw	1
  8522  0F0D  1903               	skipnz
  8523  0F0E  2F10               	goto	u441_22
  8524  0F0F  07B6               	addwf	___flmul@prod+2,f
  8525  0F10                     u441_22:
  8526  0F10  082B               	movf	??___flmul+3,w
  8527  0F11  1103               	clrz
  8528  0F12  1803               	skipnc
  8529  0F13  3E01               	addlw	1
  8530  0F14  1903               	skipnz
  8531  0F15  2F17               	goto	u441_23
  8532  0F16  07B7               	addwf	___flmul@prod+3,f
  8533  0F17                     u441_23:
  8534  0F17                     i1l2935:
  8535  0F17  3008               	movlw	8
  8536  0F18  00A8               	movwf	??___flmul
  8537  0F19                     u442_25:
  8538  0F19  1003               	clrc
  8539  0F1A  0DAE               	rlf	___flmul@grs,f
  8540  0F1B  0DAF               	rlf	___flmul@grs+1,f
  8541  0F1C  0DB0               	rlf	___flmul@grs+2,f
  8542  0F1D  0DB1               	rlf	___flmul@grs+3,f
  8543  0F1E  0BA8               	decfsz	??___flmul,f
  8544  0F1F  2F19               	goto	u442_25
  8545  0F20                     i1l2937:
  8546  0F20  0833               	movf	___flmul@bexp,w
  8547  0F21  0732               	addwf	___flmul@aexp,w
  8548  0F22  00A8               	movwf	??___flmul
  8549  0F23  01A9               	clrf	??___flmul+1
  8550  0F24  0DA9               	rlf	??___flmul+1,f
  8551  0F25  0828               	movf	??___flmul,w
  8552  0F26  3E82               	addlw	130
  8553  0F27  00B8               	movwf	___flmul@temp
  8554  0F28  0829               	movf	??___flmul+1,w
  8555  0F29  1803               	skipnc
  8556  0F2A  3E01               	addlw	1
  8557  0F2B  3EFF               	addlw	255
  8558  0F2C  00B9               	movwf	___flmul@temp+1
  8559  0F2D  2F4B               	goto	i1l2949
  8560  0F2E                     i1l2939:
  8561  0F2E  3001               	movlw	1
  8562  0F2F  00A8               	movwf	??___flmul
  8563  0F30                     u443_25:
  8564  0F30  1003               	clrc
  8565  0F31  0DB4               	rlf	___flmul@prod,f
  8566  0F32  0DB5               	rlf	___flmul@prod+1,f
  8567  0F33  0DB6               	rlf	___flmul@prod+2,f
  8568  0F34  0DB7               	rlf	___flmul@prod+3,f
  8569  0F35  0BA8               	decfsz	??___flmul,f
  8570  0F36  2F30               	goto	u443_25
  8571  0F37                     i1l2941:
  8572  0F37  1FB1               	btfss	___flmul@grs+3,7
  8573  0F38  2F3A               	goto	u444_21
  8574  0F39  2F3B               	goto	u444_20
  8575  0F3A                     u444_21:
  8576  0F3A  2F3C               	goto	i1l2945
  8577  0F3B                     u444_20:
  8578  0F3B                     i1l2943:
  8579  0F3B  1434               	bsf	___flmul@prod,0
  8580  0F3C                     i1l2945:
  8581  0F3C  3001               	movlw	1
  8582  0F3D  00A8               	movwf	??___flmul
  8583  0F3E                     u445_25:
  8584  0F3E  1003               	clrc
  8585  0F3F  0DAE               	rlf	___flmul@grs,f
  8586  0F40  0DAF               	rlf	___flmul@grs+1,f
  8587  0F41  0DB0               	rlf	___flmul@grs+2,f
  8588  0F42  0DB1               	rlf	___flmul@grs+3,f
  8589  0F43  0BA8               	decfsz	??___flmul,f
  8590  0F44  2F3E               	goto	u445_25
  8591  0F45                     i1l2947:
  8592  0F45  30FF               	movlw	255
  8593  0F46  07B8               	addwf	___flmul@temp,f
  8594  0F47  1803               	skipnc
  8595  0F48  0AB9               	incf	___flmul@temp+1,f
  8596  0F49  30FF               	movlw	255
  8597  0F4A  07B9               	addwf	___flmul@temp+1,f
  8598  0F4B                     i1l2949:
  8599  0F4B  1FB6               	btfss	___flmul@prod+2,7
  8600  0F4C  2F4E               	goto	u446_21
  8601  0F4D  2F4F               	goto	u446_20
  8602  0F4E                     u446_21:
  8603  0F4E  2F2E               	goto	i1l2939
  8604  0F4F                     u446_20:
  8605  0F4F                     i1l2951:
  8606  0F4F  01B2               	clrf	___flmul@aexp
  8607  0F50                     i1l2953:
  8608  0F50  1FB1               	btfss	___flmul@grs+3,7
  8609  0F51  2F53               	goto	u447_21
  8610  0F52  2F54               	goto	u447_20
  8611  0F53                     u447_21:
  8612  0F53  2F70               	goto	i1l2961
  8613  0F54                     u447_20:
  8614  0F54                     i1l2955:
  8615  0F54  30FF               	movlw	255
  8616  0F55  052E               	andwf	___flmul@grs,w
  8617  0F56  00A8               	movwf	??___flmul
  8618  0F57  30FF               	movlw	255
  8619  0F58  052F               	andwf	___flmul@grs+1,w
  8620  0F59  00A9               	movwf	??___flmul+1
  8621  0F5A  30FF               	movlw	255
  8622  0F5B  0530               	andwf	___flmul@grs+2,w
  8623  0F5C  00AA               	movwf	??___flmul+2
  8624  0F5D  307F               	movlw	127
  8625  0F5E  0531               	andwf	___flmul@grs+3,w
  8626  0F5F  00AB               	movwf	??___flmul+3
  8627  0F60  082B               	movf	??___flmul+3,w
  8628  0F61  042A               	iorwf	??___flmul+2,w
  8629  0F62  0429               	iorwf	??___flmul+1,w
  8630  0F63  0428               	iorwf	??___flmul,w
  8631  0F64  1903               	skipnz
  8632  0F65  2F67               	goto	u448_21
  8633  0F66  2F68               	goto	u448_20
  8634  0F67                     u448_21:
  8635  0F67  2F6B               	goto	i1l872
  8636  0F68                     u448_20:
  8637  0F68                     i1l2957:
  8638  0F68  01B2               	clrf	___flmul@aexp
  8639  0F69  0AB2               	incf	___flmul@aexp,f
  8640  0F6A  2F70               	goto	i1l2961
  8641  0F6B                     i1l872:
  8642  0F6B  1C34               	btfss	___flmul@prod,0
  8643  0F6C  2F6E               	goto	u449_21
  8644  0F6D  2F6F               	goto	u449_20
  8645  0F6E                     u449_21:
  8646  0F6E  2F70               	goto	i1l2961
  8647  0F6F                     u449_20:
  8648  0F6F  2F68               	goto	i1l2957
  8649  0F70                     i1l2961:
  8650  0F70  0832               	movf	___flmul@aexp,w
  8651  0F71  1903               	btfsc	3,2
  8652  0F72  2F74               	goto	u450_21
  8653  0F73  2F75               	goto	u450_20
  8654  0F74                     u450_21:
  8655  0F74  2FA6               	goto	i1l2971
  8656  0F75                     u450_20:
  8657  0F75                     i1l2963:
  8658  0F75  3001               	movlw	1
  8659  0F76  07B4               	addwf	___flmul@prod,f
  8660  0F77  3000               	movlw	0
  8661  0F78  1803               	skipnc
  8662  0F79  3001               	movlw	1
  8663  0F7A  07B5               	addwf	___flmul@prod+1,f
  8664  0F7B  3000               	movlw	0
  8665  0F7C  1803               	skipnc
  8666  0F7D  3001               	movlw	1
  8667  0F7E  07B6               	addwf	___flmul@prod+2,f
  8668  0F7F  3000               	movlw	0
  8669  0F80  1803               	skipnc
  8670  0F81  3001               	movlw	1
  8671  0F82  07B7               	addwf	___flmul@prod+3,f
  8672  0F83                     i1l2965:
  8673  0F83  1C37               	btfss	___flmul@prod+3,0
  8674  0F84  2F86               	goto	u451_21
  8675  0F85  2F87               	goto	u451_20
  8676  0F86                     u451_21:
  8677  0F86  2FA6               	goto	i1l2971
  8678  0F87                     u451_20:
  8679  0F87                     i1l2967:
  8680  0F87  0834               	movf	___flmul@prod,w
  8681  0F88  00A8               	movwf	??___flmul
  8682  0F89  0835               	movf	___flmul@prod+1,w
  8683  0F8A  00A9               	movwf	??___flmul+1
  8684  0F8B  0836               	movf	___flmul@prod+2,w
  8685  0F8C  00AA               	movwf	??___flmul+2
  8686  0F8D  0837               	movf	___flmul@prod+3,w
  8687  0F8E  00AB               	movwf	??___flmul+3
  8688  0F8F  3001               	movlw	1
  8689  0F90  00AC               	movwf	??___flmul+4
  8690  0F91                     u452_25:
  8691  0F91  0D2B               	rlf	??___flmul+3,w
  8692  0F92  0CAB               	rrf	??___flmul+3,f
  8693  0F93  0CAA               	rrf	??___flmul+2,f
  8694  0F94  0CA9               	rrf	??___flmul+1,f
  8695  0F95  0CA8               	rrf	??___flmul,f
  8696  0F96                     u452_20:
  8697  0F96  0BAC               	decfsz	??___flmul+4,f
  8698  0F97  2F91               	goto	u452_25
  8699  0F98  082B               	movf	??___flmul+3,w
  8700  0F99  00B7               	movwf	___flmul@prod+3
  8701  0F9A  082A               	movf	??___flmul+2,w
  8702  0F9B  00B6               	movwf	___flmul@prod+2
  8703  0F9C  0829               	movf	??___flmul+1,w
  8704  0F9D  00B5               	movwf	___flmul@prod+1
  8705  0F9E  0828               	movf	??___flmul,w
  8706  0F9F  00B4               	movwf	___flmul@prod
  8707  0FA0                     i1l2969:
  8708  0FA0  3001               	movlw	1
  8709  0FA1  07B8               	addwf	___flmul@temp,f
  8710  0FA2  1803               	skipnc
  8711  0FA3  0AB9               	incf	___flmul@temp+1,f
  8712  0FA4  3000               	movlw	0
  8713  0FA5  07B9               	addwf	___flmul@temp+1,f
  8714  0FA6                     i1l2971:
  8715  0FA6  0839               	movf	___flmul@temp+1,w
  8716  0FA7  3A80               	xorlw	128
  8717  0FA8  00FF               	movwf	btemp+1
  8718  0FA9  3080               	movlw	128
  8719  0FAA  027F               	subwf	btemp+1,w
  8720  0FAB  1D03               	skipz
  8721  0FAC  2FAF               	goto	u453_25
  8722  0FAD  30FF               	movlw	255
  8723  0FAE  0238               	subwf	___flmul@temp,w
  8724  0FAF                     u453_25:
  8725  0FAF  1C03               	skipc
  8726  0FB0  2FB2               	goto	u453_21
  8727  0FB1  2FB3               	goto	u453_20
  8728  0FB2                     u453_21:
  8729  0FB2  2FBE               	goto	i1l2975
  8730  0FB3                     u453_20:
  8731  0FB3                     i1l2973:
  8732  0FB3  307F               	movlw	127
  8733  0FB4  1283               	bcf	3,5	;RP0=0, select bank0
  8734  0FB5  1303               	bcf	3,6	;RP1=0, select bank0
  8735  0FB6  00B7               	movwf	___flmul@prod+3
  8736  0FB7  3080               	movlw	128
  8737  0FB8  00B6               	movwf	___flmul@prod+2
  8738  0FB9  3000               	movlw	0
  8739  0FBA  00B5               	movwf	___flmul@prod+1
  8740  0FBB  3000               	movlw	0
  8741  0FBC  00B4               	movwf	___flmul@prod
  8742  0FBD  2FF3               	goto	i1l878
  8743  0FBE                     i1l2975:
  8744  0FBE  1283               	bcf	3,5	;RP0=0, select bank0
  8745  0FBF  1303               	bcf	3,6	;RP1=0, select bank0
  8746  0FC0  0839               	movf	___flmul@temp+1,w
  8747  0FC1  3A80               	xorlw	128
  8748  0FC2  00FF               	movwf	btemp+1
  8749  0FC3  3080               	movlw	128
  8750  0FC4  027F               	subwf	btemp+1,w
  8751  0FC5  1D03               	skipz
  8752  0FC6  2FC9               	goto	u454_25
  8753  0FC7  3001               	movlw	1
  8754  0FC8  0238               	subwf	___flmul@temp,w
  8755  0FC9                     u454_25:
  8756  0FC9  1803               	skipnc
  8757  0FCA  2FCC               	goto	u454_21
  8758  0FCB  2FCD               	goto	u454_20
  8759  0FCC                     u454_21:
  8760  0FCC  2FD9               	goto	i1l2981
  8761  0FCD                     u454_20:
  8762  0FCD                     i1l2977:
  8763  0FCD  3000               	movlw	0
  8764  0FCE  1283               	bcf	3,5	;RP0=0, select bank0
  8765  0FCF  1303               	bcf	3,6	;RP1=0, select bank0
  8766  0FD0  00B7               	movwf	___flmul@prod+3
  8767  0FD1  3000               	movlw	0
  8768  0FD2  00B6               	movwf	___flmul@prod+2
  8769  0FD3  3000               	movlw	0
  8770  0FD4  00B5               	movwf	___flmul@prod+1
  8771  0FD5  3000               	movlw	0
  8772  0FD6  00B4               	movwf	___flmul@prod
  8773  0FD7                     i1l2979:
  8774  0FD7  01AD               	clrf	___flmul@sign
  8775  0FD8  2FF3               	goto	i1l878
  8776  0FD9                     i1l2981:
  8777  0FD9  1283               	bcf	3,5	;RP0=0, select bank0
  8778  0FDA  1303               	bcf	3,6	;RP1=0, select bank0
  8779  0FDB  0838               	movf	___flmul@temp,w
  8780  0FDC  00FF               	movwf	btemp+1
  8781  0FDD  087F               	movf	btemp+1,w
  8782  0FDE  00B3               	movwf	___flmul@bexp
  8783  0FDF                     i1l2983:
  8784  0FDF  30FF               	movlw	255
  8785  0FE0  05B4               	andwf	___flmul@prod,f
  8786  0FE1  30FF               	movlw	255
  8787  0FE2  05B5               	andwf	___flmul@prod+1,f
  8788  0FE3  307F               	movlw	127
  8789  0FE4  05B6               	andwf	___flmul@prod+2,f
  8790  0FE5  3000               	movlw	0
  8791  0FE6  05B7               	andwf	___flmul@prod+3,f
  8792  0FE7                     i1l2985:
  8793  0FE7  1C33               	btfss	___flmul@bexp,0
  8794  0FE8  2FEA               	goto	u455_21
  8795  0FE9  2FEB               	goto	u455_20
  8796  0FEA                     u455_21:
  8797  0FEA  2FEC               	goto	i1l2989
  8798  0FEB                     u455_20:
  8799  0FEB                     i1l2987:
  8800  0FEB  17B6               	bsf	___flmul@prod+2,7
  8801  0FEC                     i1l2989:
  8802  0FEC  0833               	movf	___flmul@bexp,w
  8803  0FED  00A8               	movwf	??___flmul
  8804  0FEE  1003               	clrc
  8805  0FEF  0C28               	rrf	??___flmul,w
  8806  0FF0  00FF               	movwf	btemp+1
  8807  0FF1  087F               	movf	btemp+1,w
  8808  0FF2  00B7               	movwf	___flmul@prod+3
  8809  0FF3                     i1l878:
  8810  0FF3  082D               	movf	___flmul@sign,w
  8811  0FF4  00FF               	movwf	btemp+1
  8812  0FF5  087F               	movf	btemp+1,w
  8813  0FF6  04B7               	iorwf	___flmul@prod+3,f
  8814  0FF7                     i1l2991:
  8815  0FF7  0837               	movf	___flmul@prod+3,w
  8816  0FF8  00A3               	movwf	?___flmul+3
  8817  0FF9  0836               	movf	___flmul@prod+2,w
  8818  0FFA  00A2               	movwf	?___flmul+2
  8819  0FFB  0835               	movf	___flmul@prod+1,w
  8820  0FFC  00A1               	movwf	?___flmul+1
  8821  0FFD  0834               	movf	___flmul@prod,w
  8822  0FFE  00A0               	movwf	?___flmul
  8823  0FFF                     i1l866:
  8824  0FFF  0008               	return
  8825  1000                     __end_of___flmul:
  8826                           
  8827                           	psect	text34
  8828  1A18                     __ptext34:	
  8829 ;; *************** function __Umul8_16 *****************
  8830 ;; Defined at:
  8831 ;;		line 4 in file "/opt/microchip/xc8/v2.20/pic/sources/c90/common/Umul8_16.c"
  8832 ;; Parameters:    Size  Location     Type
  8833 ;;  multiplier      1    wreg     unsigned char 
  8834 ;;  multiplicand    1    0[COMMON] unsigned char 
  8835 ;; Auto vars:     Size  Location     Type
  8836 ;;  multiplier      1    8[COMMON] unsigned char 
  8837 ;;  word_mpld       2    6[COMMON] unsigned int 
  8838 ;;  product         2    4[COMMON] unsigned int 
  8839 ;; Return value:  Size  Location     Type
  8840 ;;                  2    0[COMMON] unsigned int 
  8841 ;; Registers used:
  8842 ;;		wreg, status,2, status,0
  8843 ;; Tracked objects:
  8844 ;;		On entry : 0/0
  8845 ;;		On exit  : 0/0
  8846 ;;		Unchanged: 0/0
  8847 ;; Data sizes:     COMMON   BANK0   BANK1   BANK3   BANK2
  8848 ;;      Params:         2       0       0       0       0
  8849 ;;      Locals:         5       0       0       0       0
  8850 ;;      Temps:          2       0       0       0       0
  8851 ;;      Totals:         9       0       0       0       0
  8852 ;;Total ram usage:        9 bytes
  8853 ;; Hardware stack levels used:    1
  8854 ;; This function calls:
  8855 ;;		Nothing
  8856 ;; This function is called by:
  8857 ;;		___flmul
  8858 ;; This function uses a non-reentrant model
  8859 ;;
  8860                           
  8861                           
  8862                           ;psect for function __Umul8_16
  8863  1A18                     __Umul8_16:
  8864                           
  8865                           ;incstack = 0
  8866                           ; Regs used in __Umul8_16: [wreg+status,2+status,0]
  8867                           ;__Umul8_16@multiplier stored from wreg
  8868  1A18  00F8               	movwf	__Umul8_16@multiplier
  8869  1A19                     i1l2495:
  8870  1A19  01F4               	clrf	__Umul8_16@product
  8871  1A1A  01F5               	clrf	__Umul8_16@product+1
  8872  1A1B                     i1l2497:
  8873  1A1B  0870               	movf	__Umul8_16@multiplicand,w
  8874  1A1C  00F2               	movwf	??__Umul8_16
  8875  1A1D  01F3               	clrf	??__Umul8_16+1
  8876  1A1E  0872               	movf	??__Umul8_16,w
  8877  1A1F  00F6               	movwf	__Umul8_16@word_mpld
  8878  1A20  0873               	movf	??__Umul8_16+1,w
  8879  1A21  00F7               	movwf	__Umul8_16@word_mpld+1
  8880  1A22                     i1l2499:
  8881  1A22  1C78               	btfss	__Umul8_16@multiplier,0
  8882  1A23  2A25               	goto	u327_21
  8883  1A24  2A26               	goto	u327_20
  8884  1A25                     u327_21:
  8885  1A25  2A2C               	goto	i1l885
  8886  1A26                     u327_20:
  8887  1A26                     i1l2501:
  8888  1A26  0876               	movf	__Umul8_16@word_mpld,w
  8889  1A27  07F4               	addwf	__Umul8_16@product,f
  8890  1A28  1803               	skipnc
  8891  1A29  0AF5               	incf	__Umul8_16@product+1,f
  8892  1A2A  0877               	movf	__Umul8_16@word_mpld+1,w
  8893  1A2B  07F5               	addwf	__Umul8_16@product+1,f
  8894  1A2C                     i1l885:
  8895  1A2C  3001               	movlw	1
  8896  1A2D                     u328_25:
  8897  1A2D  1003               	clrc
  8898  1A2E  0DF6               	rlf	__Umul8_16@word_mpld,f
  8899  1A2F  0DF7               	rlf	__Umul8_16@word_mpld+1,f
  8900  1A30  3EFF               	addlw	-1
  8901  1A31  1D03               	skipz
  8902  1A32  2A2D               	goto	u328_25
  8903  1A33  1003               	clrc
  8904  1A34  0CF8               	rrf	__Umul8_16@multiplier,f
  8905  1A35                     i1l2503:
  8906  1A35  0878               	movf	__Umul8_16@multiplier,w
  8907  1A36  1D03               	btfss	3,2
  8908  1A37  2A39               	goto	u329_21
  8909  1A38  2A3A               	goto	u329_20
  8910  1A39                     u329_21:
  8911  1A39  2A22               	goto	i1l2499
  8912  1A3A                     u329_20:
  8913  1A3A                     i1l2505:
  8914  1A3A  0875               	movf	__Umul8_16@product+1,w
  8915  1A3B  00F1               	movwf	?__Umul8_16+1
  8916  1A3C  0874               	movf	__Umul8_16@product,w
  8917  1A3D  00F0               	movwf	?__Umul8_16
  8918  1A3E                     i1l887:
  8919  1A3E  0008               	return
  8920  1A3F                     __end_of__Umul8_16:
  8921                           
  8922                           	psect	text35
  8923  10D3                     __ptext35:	
  8924 ;; *************** function __tdiv_to_l_ *****************
  8925 ;; Defined at:
  8926 ;;		line 60 in file "/opt/microchip/xc8/v2.20/pic/sources/c90/common/ftdivl.c"
  8927 ;; Parameters:    Size  Location     Type
  8928 ;;  f1              4    0[COMMON] float 
  8929 ;;  f2              4    4[COMMON] float 
  8930 ;; Auto vars:     Size  Location     Type
  8931 ;;  quot            4    0[BANK0 ] unsigned long 
  8932 ;;  exp1            1    5[BANK0 ] unsigned char 
  8933 ;;  cntr            1    4[BANK0 ] unsigned char 
  8934 ;; Return value:  Size  Location     Type
  8935 ;;                  4    0[COMMON] unsigned long 
  8936 ;; Registers used:
  8937 ;;		wreg, status,2, status,0, btemp+1
  8938 ;; Tracked objects:
  8939 ;;		On entry : 0/0
  8940 ;;		On exit  : 0/0
  8941 ;;		Unchanged: 0/0
  8942 ;; Data sizes:     COMMON   BANK0   BANK1   BANK3   BANK2
  8943 ;;      Params:         8       0       0       0       0
  8944 ;;      Locals:         0       6       0       0       0
  8945 ;;      Temps:          3       0       0       0       0
  8946 ;;      Totals:        11       6       0       0       0
  8947 ;;Total ram usage:       17 bytes
  8948 ;; Hardware stack levels used:    1
  8949 ;; This function calls:
  8950 ;;		Nothing
  8951 ;; This function is called by:
  8952 ;;		_sprintf
  8953 ;; This function uses a non-reentrant model
  8954 ;;
  8955                           
  8956                           
  8957                           ;psect for function __tdiv_to_l_
  8958  10D3                     __tdiv_to_l_:
  8959  10D3                     i1l3075:	
  8960                           ;incstack = 0
  8961                           ; Regs used in __tdiv_to_l_: [wreg+status,2+status,0+btemp+1]
  8962                           
  8963  10D3  0870               	movf	__tdiv_to_l_@f1,w
  8964  10D4  00F8               	movwf	??__tdiv_to_l_
  8965  10D5  0871               	movf	__tdiv_to_l_@f1+1,w
  8966  10D6  00F9               	movwf	??__tdiv_to_l_+1
  8967  10D7  0872               	movf	__tdiv_to_l_@f1+2,w
  8968  10D8  00FA               	movwf	??__tdiv_to_l_+2
  8969  10D9  1003               	clrc
  8970  10DA  0D79               	rlf	??__tdiv_to_l_+1,w
  8971  10DB  0D7A               	rlf	??__tdiv_to_l_+2,w
  8972  10DC  00FF               	movwf	btemp+1
  8973  10DD  087F               	movf	btemp+1,w
  8974  10DE  1283               	bcf	3,5	;RP0=0, select bank0
  8975  10DF  1303               	bcf	3,6	;RP1=0, select bank0
  8976  10E0  00A5               	movwf	__tdiv_to_l_@exp1
  8977  10E1  0825               	movf	__tdiv_to_l_@exp1,w
  8978  10E2  1D03               	btfss	3,2
  8979  10E3  28E5               	goto	u493_21
  8980  10E4  28E6               	goto	u493_20
  8981  10E5                     u493_21:
  8982  10E5  28EF               	goto	i1l3081
  8983  10E6                     u493_20:
  8984  10E6                     i1l3077:
  8985  10E6  3000               	movlw	0
  8986  10E7  00F3               	movwf	?__tdiv_to_l_+3
  8987  10E8  3000               	movlw	0
  8988  10E9  00F2               	movwf	?__tdiv_to_l_+2
  8989  10EA  3000               	movlw	0
  8990  10EB  00F1               	movwf	?__tdiv_to_l_+1
  8991  10EC  3000               	movlw	0
  8992  10ED  00F0               	movwf	?__tdiv_to_l_
  8993  10EE  298F               	goto	i1l660
  8994  10EF                     i1l3081:
  8995  10EF  0874               	movf	__tdiv_to_l_@f2,w
  8996  10F0  00F8               	movwf	??__tdiv_to_l_
  8997  10F1  0875               	movf	__tdiv_to_l_@f2+1,w
  8998  10F2  00F9               	movwf	??__tdiv_to_l_+1
  8999  10F3  0876               	movf	__tdiv_to_l_@f2+2,w
  9000  10F4  00FA               	movwf	??__tdiv_to_l_+2
  9001  10F5  1003               	clrc
  9002  10F6  0D79               	rlf	??__tdiv_to_l_+1,w
  9003  10F7  0D7A               	rlf	??__tdiv_to_l_+2,w
  9004  10F8  00FF               	movwf	btemp+1
  9005  10F9  087F               	movf	btemp+1,w
  9006  10FA  00A4               	movwf	__tdiv_to_l_@cntr
  9007  10FB  0824               	movf	__tdiv_to_l_@cntr,w
  9008  10FC  1D03               	btfss	3,2
  9009  10FD  28FF               	goto	u494_21
  9010  10FE  2900               	goto	u494_20
  9011  10FF                     u494_21:
  9012  10FF  2901               	goto	i1l661
  9013  1100                     u494_20:
  9014  1100  28E6               	goto	i1l3077
  9015  1101                     i1l661:
  9016  1101  17F1               	bsf	__tdiv_to_l_@f1+1,7
  9017  1102                     i1l3087:
  9018  1102  30FF               	movlw	255
  9019  1103  05F0               	andwf	__tdiv_to_l_@f1,f
  9020  1104  30FF               	movlw	255
  9021  1105  05F1               	andwf	__tdiv_to_l_@f1+1,f
  9022  1106  3000               	movlw	0
  9023  1107  05F2               	andwf	__tdiv_to_l_@f1+2,f
  9024  1108                     i1l3089:
  9025  1108  17F5               	bsf	__tdiv_to_l_@f2+1,7
  9026  1109  30FF               	movlw	255
  9027  110A  05F4               	andwf	__tdiv_to_l_@f2,f
  9028  110B  30FF               	movlw	255
  9029  110C  05F5               	andwf	__tdiv_to_l_@f2+1,f
  9030  110D  3000               	movlw	0
  9031  110E  05F6               	andwf	__tdiv_to_l_@f2+2,f
  9032  110F  3000               	movlw	0
  9033  1110  00A3               	movwf	__tdiv_to_l_@quot+3
  9034  1111  3000               	movlw	0
  9035  1112  00A2               	movwf	__tdiv_to_l_@quot+2
  9036  1113  3000               	movlw	0
  9037  1114  00A1               	movwf	__tdiv_to_l_@quot+1
  9038  1115  3000               	movlw	0
  9039  1116  00A0               	movwf	__tdiv_to_l_@quot
  9040  1117                     i1l3091:
  9041  1117  307F               	movlw	127
  9042  1118  02A5               	subwf	__tdiv_to_l_@exp1,f
  9043  1119                     i1l3093:
  9044  1119  3098               	movlw	152
  9045  111A  0724               	addwf	__tdiv_to_l_@cntr,w
  9046  111B  00F8               	movwf	??__tdiv_to_l_
  9047  111C  0878               	movf	??__tdiv_to_l_,w
  9048  111D  02A5               	subwf	__tdiv_to_l_@exp1,f
  9049  111E                     i1l3095:
  9050  111E  3018               	movlw	24
  9051  111F  00FF               	movwf	btemp+1
  9052  1120  087F               	movf	btemp+1,w
  9053  1121  00A4               	movwf	__tdiv_to_l_@cntr
  9054  1122                     i1l3097:
  9055  1122  3001               	movlw	1
  9056  1123  00F8               	movwf	??__tdiv_to_l_
  9057  1124                     u495_25:
  9058  1124  1003               	clrc
  9059  1125  0DA0               	rlf	__tdiv_to_l_@quot,f
  9060  1126  0DA1               	rlf	__tdiv_to_l_@quot+1,f
  9061  1127  0DA2               	rlf	__tdiv_to_l_@quot+2,f
  9062  1128  0DA3               	rlf	__tdiv_to_l_@quot+3,f
  9063  1129  0BF8               	decfsz	??__tdiv_to_l_,f
  9064  112A  2924               	goto	u495_25
  9065  112B                     i1l3099:
  9066  112B  0876               	movf	__tdiv_to_l_@f2+2,w
  9067  112C  0272               	subwf	__tdiv_to_l_@f1+2,w
  9068  112D  1D03               	skipz
  9069  112E  2935               	goto	u496_25
  9070  112F  0875               	movf	__tdiv_to_l_@f2+1,w
  9071  1130  0271               	subwf	__tdiv_to_l_@f1+1,w
  9072  1131  1D03               	skipz
  9073  1132  2935               	goto	u496_25
  9074  1133  0874               	movf	__tdiv_to_l_@f2,w
  9075  1134  0270               	subwf	__tdiv_to_l_@f1,w
  9076  1135                     u496_25:
  9077  1135  1C03               	skipc
  9078  1136  2938               	goto	u496_21
  9079  1137  2939               	goto	u496_20
  9080  1138                     u496_21:
  9081  1138  2944               	goto	i1l3105
  9082  1139                     u496_20:
  9083  1139                     i1l3101:
  9084  1139  0874               	movf	__tdiv_to_l_@f2,w
  9085  113A  02F0               	subwf	__tdiv_to_l_@f1,f
  9086  113B  0875               	movf	__tdiv_to_l_@f2+1,w
  9087  113C  1C03               	skipc
  9088  113D  0F75               	incfsz	__tdiv_to_l_@f2+1,w
  9089  113E  02F1               	subwf	__tdiv_to_l_@f1+1,f
  9090  113F  0876               	movf	__tdiv_to_l_@f2+2,w
  9091  1140  1C03               	skipc
  9092  1141  0A76               	incf	__tdiv_to_l_@f2+2,w
  9093  1142  02F2               	subwf	__tdiv_to_l_@f1+2,f
  9094  1143                     i1l3103:
  9095  1143  1420               	bsf	__tdiv_to_l_@quot,0
  9096  1144                     i1l3105:
  9097  1144  3001               	movlw	1
  9098  1145                     u497_25:
  9099  1145  1003               	clrc
  9100  1146  0DF0               	rlf	__tdiv_to_l_@f1,f
  9101  1147  0DF1               	rlf	__tdiv_to_l_@f1+1,f
  9102  1148  0DF2               	rlf	__tdiv_to_l_@f1+2,f
  9103  1149  3EFF               	addlw	-1
  9104  114A  1D03               	skipz
  9105  114B  2945               	goto	u497_25
  9106  114C                     i1l3107:
  9107  114C  3001               	movlw	1
  9108  114D  02A4               	subwf	__tdiv_to_l_@cntr,f
  9109  114E  1D03               	btfss	3,2
  9110  114F  2951               	goto	u498_21
  9111  1150  2952               	goto	u498_20
  9112  1151                     u498_21:
  9113  1151  2922               	goto	i1l3097
  9114  1152                     u498_20:
  9115  1152                     i1l664:
  9116  1152  1FA5               	btfss	__tdiv_to_l_@exp1,7
  9117  1153  2955               	goto	u499_21
  9118  1154  2956               	goto	u499_20
  9119  1155                     u499_21:
  9120  1155  2970               	goto	i1l3119
  9121  1156                     u499_20:
  9122  1156                     i1l3109:
  9123  1156  0825               	movf	__tdiv_to_l_@exp1,w
  9124  1157  3A80               	xorlw	128
  9125  1158  3E97               	addlw	151
  9126  1159  1803               	skipnc
  9127  115A  295C               	goto	u500_21
  9128  115B  295D               	goto	u500_20
  9129  115C                     u500_21:
  9130  115C  295E               	goto	i1l3115
  9131  115D                     u500_20:
  9132  115D  28E6               	goto	i1l3077
  9133  115E                     i1l3115:
  9134  115E  3001               	movlw	1
  9135  115F                     u501_25:
  9136  115F  1003               	clrc
  9137  1160  0CA3               	rrf	__tdiv_to_l_@quot+3,f
  9138  1161  0CA2               	rrf	__tdiv_to_l_@quot+2,f
  9139  1162  0CA1               	rrf	__tdiv_to_l_@quot+1,f
  9140  1163  0CA0               	rrf	__tdiv_to_l_@quot,f
  9141  1164  3EFF               	addlw	-1
  9142  1165  1D03               	skipz
  9143  1166  295F               	goto	u501_25
  9144  1167                     i1l3117:
  9145  1167  3001               	movlw	1
  9146  1168  00FF               	movwf	btemp+1
  9147  1169  087F               	movf	btemp+1,w
  9148  116A  07A5               	addwf	__tdiv_to_l_@exp1,f
  9149  116B  1D03               	btfss	3,2
  9150  116C  296E               	goto	u502_21
  9151  116D  296F               	goto	u502_20
  9152  116E                     u502_21:
  9153  116E  295E               	goto	i1l3115
  9154  116F                     u502_20:
  9155  116F  2987               	goto	i1l3127
  9156  1170                     i1l3119:
  9157  1170  3018               	movlw	24
  9158  1171  0225               	subwf	__tdiv_to_l_@exp1,w
  9159  1172  1C03               	skipc
  9160  1173  2975               	goto	u503_21
  9161  1174  2976               	goto	u503_20
  9162  1175                     u503_21:
  9163  1175  2982               	goto	i1l671
  9164  1176                     u503_20:
  9165  1176  28E6               	goto	i1l3077
  9166  1177                     i1l3125:
  9167  1177  3001               	movlw	1
  9168  1178  00F8               	movwf	??__tdiv_to_l_
  9169  1179                     u504_25:
  9170  1179  1003               	clrc
  9171  117A  0DA0               	rlf	__tdiv_to_l_@quot,f
  9172  117B  0DA1               	rlf	__tdiv_to_l_@quot+1,f
  9173  117C  0DA2               	rlf	__tdiv_to_l_@quot+2,f
  9174  117D  0DA3               	rlf	__tdiv_to_l_@quot+3,f
  9175  117E  0BF8               	decfsz	??__tdiv_to_l_,f
  9176  117F  2979               	goto	u504_25
  9177  1180  3001               	movlw	1
  9178  1181  02A5               	subwf	__tdiv_to_l_@exp1,f
  9179  1182                     i1l671:
  9180  1182  0825               	movf	__tdiv_to_l_@exp1,w
  9181  1183  1D03               	btfss	3,2
  9182  1184  2986               	goto	u505_21
  9183  1185  2987               	goto	u505_20
  9184  1186                     u505_21:
  9185  1186  2977               	goto	i1l3125
  9186  1187                     u505_20:
  9187  1187                     i1l3127:
  9188  1187  0823               	movf	__tdiv_to_l_@quot+3,w
  9189  1188  00F3               	movwf	?__tdiv_to_l_+3
  9190  1189  0822               	movf	__tdiv_to_l_@quot+2,w
  9191  118A  00F2               	movwf	?__tdiv_to_l_+2
  9192  118B  0821               	movf	__tdiv_to_l_@quot+1,w
  9193  118C  00F1               	movwf	?__tdiv_to_l_+1
  9194  118D  0820               	movf	__tdiv_to_l_@quot,w
  9195  118E  00F0               	movwf	?__tdiv_to_l_
  9196  118F                     i1l660:
  9197  118F  0008               	return
  9198  1190                     __end_of__tdiv_to_l_:
  9199                           
  9200                           	psect	text36
  9201  0733                     __ptext36:	
  9202 ;; *************** function __div_to_l_ *****************
  9203 ;; Defined at:
  9204 ;;		line 60 in file "/opt/microchip/xc8/v2.20/pic/sources/c90/common/fldivl.c"
  9205 ;; Parameters:    Size  Location     Type
  9206 ;;  f1              4    0[COMMON] unsigned long 
  9207 ;;  f2              4    4[COMMON] unsigned long 
  9208 ;; Auto vars:     Size  Location     Type
  9209 ;;  quot            4    0[BANK0 ] unsigned long 
  9210 ;;  exp1            1    5[BANK0 ] unsigned char 
  9211 ;;  cntr            1    4[BANK0 ] unsigned char 
  9212 ;; Return value:  Size  Location     Type
  9213 ;;                  4    0[COMMON] unsigned long 
  9214 ;; Registers used:
  9215 ;;		wreg, status,2, status,0, btemp+1
  9216 ;; Tracked objects:
  9217 ;;		On entry : 0/0
  9218 ;;		On exit  : 0/0
  9219 ;;		Unchanged: 0/0
  9220 ;; Data sizes:     COMMON   BANK0   BANK1   BANK3   BANK2
  9221 ;;      Params:         8       0       0       0       0
  9222 ;;      Locals:         0       6       0       0       0
  9223 ;;      Temps:          1       0       0       0       0
  9224 ;;      Totals:         9       6       0       0       0
  9225 ;;Total ram usage:       15 bytes
  9226 ;; Hardware stack levels used:    1
  9227 ;; This function calls:
  9228 ;;		Nothing
  9229 ;; This function is called by:
  9230 ;;		_sprintf
  9231 ;; This function uses a non-reentrant model
  9232 ;;
  9233                           
  9234                           
  9235                           ;psect for function __div_to_l_
  9236  0733                     __div_to_l_:
  9237  0733                     i1l3131:	
  9238                           ;incstack = 0
  9239                           ; Regs used in __div_to_l_: [wreg+status,2+status,0+btemp+1]
  9240                           
  9241  0733  1003               	clrc
  9242  0734  0D72               	rlf	__div_to_l_@f1+2,w
  9243  0735  0D73               	rlf	__div_to_l_@f1+3,w
  9244  0736  00FF               	movwf	btemp+1
  9245  0737  087F               	movf	btemp+1,w
  9246  0738  1283               	bcf	3,5	;RP0=0, select bank0
  9247  0739  1303               	bcf	3,6	;RP1=0, select bank0
  9248  073A  00A5               	movwf	__div_to_l_@exp1
  9249  073B  0825               	movf	__div_to_l_@exp1,w
  9250  073C  1D03               	btfss	3,2
  9251  073D  2F3F               	goto	u506_21
  9252  073E  2F40               	goto	u506_20
  9253  073F                     u506_21:
  9254  073F  2F49               	goto	i1l3137
  9255  0740                     u506_20:
  9256  0740                     i1l3133:
  9257  0740  3000               	movlw	0
  9258  0741  00F3               	movwf	?__div_to_l_+3
  9259  0742  3000               	movlw	0
  9260  0743  00F2               	movwf	?__div_to_l_+2
  9261  0744  3000               	movlw	0
  9262  0745  00F1               	movwf	?__div_to_l_+1
  9263  0746  3000               	movlw	0
  9264  0747  00F0               	movwf	?__div_to_l_
  9265  0748  2FF0               	goto	i1l613
  9266  0749                     i1l3137:
  9267  0749  1003               	clrc
  9268  074A  0D76               	rlf	__div_to_l_@f2+2,w
  9269  074B  0D77               	rlf	__div_to_l_@f2+3,w
  9270  074C  00FF               	movwf	btemp+1
  9271  074D  087F               	movf	btemp+1,w
  9272  074E  00A4               	movwf	__div_to_l_@cntr
  9273  074F  0824               	movf	__div_to_l_@cntr,w
  9274  0750  1D03               	btfss	3,2
  9275  0751  2F53               	goto	u507_21
  9276  0752  2F54               	goto	u507_20
  9277  0753                     u507_21:
  9278  0753  2F55               	goto	i1l614
  9279  0754                     u507_20:
  9280  0754  2F40               	goto	i1l3133
  9281  0755                     i1l614:
  9282  0755  17F2               	bsf	__div_to_l_@f1+2,7
  9283  0756                     i1l3143:
  9284  0756  30FF               	movlw	255
  9285  0757  05F0               	andwf	__div_to_l_@f1,f
  9286  0758  30FF               	movlw	255
  9287  0759  05F1               	andwf	__div_to_l_@f1+1,f
  9288  075A  30FF               	movlw	255
  9289  075B  05F2               	andwf	__div_to_l_@f1+2,f
  9290  075C  3000               	movlw	0
  9291  075D  05F3               	andwf	__div_to_l_@f1+3,f
  9292  075E                     i1l3145:
  9293  075E  17F6               	bsf	__div_to_l_@f2+2,7
  9294  075F  30FF               	movlw	255
  9295  0760  05F4               	andwf	__div_to_l_@f2,f
  9296  0761  30FF               	movlw	255
  9297  0762  05F5               	andwf	__div_to_l_@f2+1,f
  9298  0763  30FF               	movlw	255
  9299  0764  05F6               	andwf	__div_to_l_@f2+2,f
  9300  0765  3000               	movlw	0
  9301  0766  05F7               	andwf	__div_to_l_@f2+3,f
  9302  0767  3000               	movlw	0
  9303  0768  00A3               	movwf	__div_to_l_@quot+3
  9304  0769  3000               	movlw	0
  9305  076A  00A2               	movwf	__div_to_l_@quot+2
  9306  076B  3000               	movlw	0
  9307  076C  00A1               	movwf	__div_to_l_@quot+1
  9308  076D  3000               	movlw	0
  9309  076E  00A0               	movwf	__div_to_l_@quot
  9310  076F                     i1l3147:
  9311  076F  307F               	movlw	127
  9312  0770  02A5               	subwf	__div_to_l_@exp1,f
  9313  0771                     i1l3149:
  9314  0771  30A0               	movlw	160
  9315  0772  0724               	addwf	__div_to_l_@cntr,w
  9316  0773  00F8               	movwf	??__div_to_l_
  9317  0774  0878               	movf	??__div_to_l_,w
  9318  0775  02A5               	subwf	__div_to_l_@exp1,f
  9319  0776                     i1l3151:
  9320  0776  3020               	movlw	32
  9321  0777  00FF               	movwf	btemp+1
  9322  0778  087F               	movf	btemp+1,w
  9323  0779  00A4               	movwf	__div_to_l_@cntr
  9324  077A                     i1l3153:
  9325  077A  3001               	movlw	1
  9326  077B  00F8               	movwf	??__div_to_l_
  9327  077C                     u508_25:
  9328  077C  1003               	clrc
  9329  077D  0DA0               	rlf	__div_to_l_@quot,f
  9330  077E  0DA1               	rlf	__div_to_l_@quot+1,f
  9331  077F  0DA2               	rlf	__div_to_l_@quot+2,f
  9332  0780  0DA3               	rlf	__div_to_l_@quot+3,f
  9333  0781  0BF8               	decfsz	??__div_to_l_,f
  9334  0782  2F7C               	goto	u508_25
  9335  0783                     i1l3155:
  9336  0783  0877               	movf	__div_to_l_@f2+3,w
  9337  0784  0273               	subwf	__div_to_l_@f1+3,w
  9338  0785  1D03               	skipz
  9339  0786  2F91               	goto	u509_25
  9340  0787  0876               	movf	__div_to_l_@f2+2,w
  9341  0788  0272               	subwf	__div_to_l_@f1+2,w
  9342  0789  1D03               	skipz
  9343  078A  2F91               	goto	u509_25
  9344  078B  0875               	movf	__div_to_l_@f2+1,w
  9345  078C  0271               	subwf	__div_to_l_@f1+1,w
  9346  078D  1D03               	skipz
  9347  078E  2F91               	goto	u509_25
  9348  078F  0874               	movf	__div_to_l_@f2,w
  9349  0790  0270               	subwf	__div_to_l_@f1,w
  9350  0791                     u509_25:
  9351  0791  1C03               	skipc
  9352  0792  2F94               	goto	u509_21
  9353  0793  2F95               	goto	u509_20
  9354  0794                     u509_21:
  9355  0794  2FA4               	goto	i1l3161
  9356  0795                     u509_20:
  9357  0795                     i1l3157:
  9358  0795  0874               	movf	__div_to_l_@f2,w
  9359  0796  02F0               	subwf	__div_to_l_@f1,f
  9360  0797  0875               	movf	__div_to_l_@f2+1,w
  9361  0798  1C03               	skipc
  9362  0799  0F75               	incfsz	__div_to_l_@f2+1,w
  9363  079A  02F1               	subwf	__div_to_l_@f1+1,f
  9364  079B  0876               	movf	__div_to_l_@f2+2,w
  9365  079C  1C03               	skipc
  9366  079D  0F76               	incfsz	__div_to_l_@f2+2,w
  9367  079E  02F2               	subwf	__div_to_l_@f1+2,f
  9368  079F  0877               	movf	__div_to_l_@f2+3,w
  9369  07A0  1C03               	skipc
  9370  07A1  0F77               	incfsz	__div_to_l_@f2+3,w
  9371  07A2  02F3               	subwf	__div_to_l_@f1+3,f
  9372  07A3                     i1l3159:
  9373  07A3  1420               	bsf	__div_to_l_@quot,0
  9374  07A4                     i1l3161:
  9375  07A4  3001               	movlw	1
  9376  07A5  00F8               	movwf	??__div_to_l_
  9377  07A6                     u510_25:
  9378  07A6  1003               	clrc
  9379  07A7  0DF0               	rlf	__div_to_l_@f1,f
  9380  07A8  0DF1               	rlf	__div_to_l_@f1+1,f
  9381  07A9  0DF2               	rlf	__div_to_l_@f1+2,f
  9382  07AA  0DF3               	rlf	__div_to_l_@f1+3,f
  9383  07AB  0BF8               	decfsz	??__div_to_l_,f
  9384  07AC  2FA6               	goto	u510_25
  9385  07AD                     i1l3163:
  9386  07AD  3001               	movlw	1
  9387  07AE  02A4               	subwf	__div_to_l_@cntr,f
  9388  07AF  1D03               	btfss	3,2
  9389  07B0  2FB2               	goto	u511_21
  9390  07B1  2FB3               	goto	u511_20
  9391  07B2                     u511_21:
  9392  07B2  2F7A               	goto	i1l3153
  9393  07B3                     u511_20:
  9394  07B3                     i1l617:
  9395  07B3  1FA5               	btfss	__div_to_l_@exp1,7
  9396  07B4  2FB6               	goto	u512_21
  9397  07B5  2FB7               	goto	u512_20
  9398  07B6                     u512_21:
  9399  07B6  2FD1               	goto	i1l3175
  9400  07B7                     u512_20:
  9401  07B7                     i1l3165:
  9402  07B7  0825               	movf	__div_to_l_@exp1,w
  9403  07B8  3A80               	xorlw	128
  9404  07B9  3E9F               	addlw	159
  9405  07BA  1803               	skipnc
  9406  07BB  2FBD               	goto	u513_21
  9407  07BC  2FBE               	goto	u513_20
  9408  07BD                     u513_21:
  9409  07BD  2FBF               	goto	i1l3171
  9410  07BE                     u513_20:
  9411  07BE  2F40               	goto	i1l3133
  9412  07BF                     i1l3171:
  9413  07BF  3001               	movlw	1
  9414  07C0                     u514_25:
  9415  07C0  1003               	clrc
  9416  07C1  0CA3               	rrf	__div_to_l_@quot+3,f
  9417  07C2  0CA2               	rrf	__div_to_l_@quot+2,f
  9418  07C3  0CA1               	rrf	__div_to_l_@quot+1,f
  9419  07C4  0CA0               	rrf	__div_to_l_@quot,f
  9420  07C5  3EFF               	addlw	-1
  9421  07C6  1D03               	skipz
  9422  07C7  2FC0               	goto	u514_25
  9423  07C8                     i1l3173:
  9424  07C8  3001               	movlw	1
  9425  07C9  00FF               	movwf	btemp+1
  9426  07CA  087F               	movf	btemp+1,w
  9427  07CB  07A5               	addwf	__div_to_l_@exp1,f
  9428  07CC  1D03               	btfss	3,2
  9429  07CD  2FCF               	goto	u515_21
  9430  07CE  2FD0               	goto	u515_20
  9431  07CF                     u515_21:
  9432  07CF  2FBF               	goto	i1l3171
  9433  07D0                     u515_20:
  9434  07D0  2FE8               	goto	i1l3183
  9435  07D1                     i1l3175:
  9436  07D1  3020               	movlw	32
  9437  07D2  0225               	subwf	__div_to_l_@exp1,w
  9438  07D3  1C03               	skipc
  9439  07D4  2FD6               	goto	u516_21
  9440  07D5  2FD7               	goto	u516_20
  9441  07D6                     u516_21:
  9442  07D6  2FE3               	goto	i1l624
  9443  07D7                     u516_20:
  9444  07D7  2F40               	goto	i1l3133
  9445  07D8                     i1l3181:
  9446  07D8  3001               	movlw	1
  9447  07D9  00F8               	movwf	??__div_to_l_
  9448  07DA                     u517_25:
  9449  07DA  1003               	clrc
  9450  07DB  0DA0               	rlf	__div_to_l_@quot,f
  9451  07DC  0DA1               	rlf	__div_to_l_@quot+1,f
  9452  07DD  0DA2               	rlf	__div_to_l_@quot+2,f
  9453  07DE  0DA3               	rlf	__div_to_l_@quot+3,f
  9454  07DF  0BF8               	decfsz	??__div_to_l_,f
  9455  07E0  2FDA               	goto	u517_25
  9456  07E1  3001               	movlw	1
  9457  07E2  02A5               	subwf	__div_to_l_@exp1,f
  9458  07E3                     i1l624:
  9459  07E3  0825               	movf	__div_to_l_@exp1,w
  9460  07E4  1D03               	btfss	3,2
  9461  07E5  2FE7               	goto	u518_21
  9462  07E6  2FE8               	goto	u518_20
  9463  07E7                     u518_21:
  9464  07E7  2FD8               	goto	i1l3181
  9465  07E8                     u518_20:
  9466  07E8                     i1l3183:
  9467  07E8  0823               	movf	__div_to_l_@quot+3,w
  9468  07E9  00F3               	movwf	?__div_to_l_+3
  9469  07EA  0822               	movf	__div_to_l_@quot+2,w
  9470  07EB  00F2               	movwf	?__div_to_l_+2
  9471  07EC  0821               	movf	__div_to_l_@quot+1,w
  9472  07ED  00F1               	movwf	?__div_to_l_+1
  9473  07EE  0820               	movf	__div_to_l_@quot,w
  9474  07EF  00F0               	movwf	?__div_to_l_
  9475  07F0                     i1l613:
  9476  07F0  0008               	return
  9477  07F1                     __end_of__div_to_l_:
  9478                           
  9479                           	psect	text37
  9480  1019                     __ptext37:	
  9481 ;; *************** function ___xxtofl *****************
  9482 ;; Defined at:
  9483 ;;		line 10 in file "/opt/microchip/xc8/v2.20/pic/sources/c90/common/xxtofl.c"
  9484 ;; Parameters:    Size  Location     Type
  9485 ;;  sign            1    wreg     unsigned char 
  9486 ;;  val             4    0[COMMON] long 
  9487 ;; Auto vars:     Size  Location     Type
  9488 ;;  sign            1    8[COMMON] unsigned char 
  9489 ;;  arg             4   10[COMMON] unsigned long 
  9490 ;;  exp             1    9[COMMON] unsigned char 
  9491 ;; Return value:  Size  Location     Type
  9492 ;;                  4    0[COMMON] unsigned char 
  9493 ;; Registers used:
  9494 ;;		wreg, status,2, status,0, btemp+1
  9495 ;; Tracked objects:
  9496 ;;		On entry : 0/0
  9497 ;;		On exit  : 0/0
  9498 ;;		Unchanged: 0/0
  9499 ;; Data sizes:     COMMON   BANK0   BANK1   BANK3   BANK2
  9500 ;;      Params:         4       0       0       0       0
  9501 ;;      Locals:         6       0       0       0       0
  9502 ;;      Temps:          4       0       0       0       0
  9503 ;;      Totals:        14       0       0       0       0
  9504 ;;Total ram usage:       14 bytes
  9505 ;; Hardware stack levels used:    1
  9506 ;; This function calls:
  9507 ;;		Nothing
  9508 ;; This function is called by:
  9509 ;;		_isr
  9510 ;;		_sprintf
  9511 ;; This function uses a non-reentrant model
  9512 ;;
  9513                           
  9514                           
  9515                           ;psect for function ___xxtofl
  9516  1019                     ___xxtofl:
  9517                           
  9518                           ;incstack = 0
  9519                           ; Regs used in ___xxtofl: [wreg+status,2+status,0+btemp+1]
  9520                           ;___xxtofl@sign stored from wreg
  9521  1019  00F8               	movwf	___xxtofl@sign
  9522  101A                     i1l3333:
  9523  101A  0878               	movf	___xxtofl@sign,w
  9524  101B  1903               	btfsc	3,2
  9525  101C  281E               	goto	u557_21
  9526  101D  281F               	goto	u557_20
  9527  101E                     u557_21:
  9528  101E  2833               	goto	i1l3339
  9529  101F                     u557_20:
  9530  101F                     i1l3335:
  9531  101F  1FF3               	btfss	___xxtofl@val+3,7
  9532  1020  2822               	goto	u558_21
  9533  1021  2823               	goto	u558_20
  9534  1022                     u558_21:
  9535  1022  2833               	goto	i1l3339
  9536  1023                     u558_20:
  9537  1023                     i1l3337:
  9538  1023  0970               	comf	___xxtofl@val,w
  9539  1024  00FA               	movwf	___xxtofl@arg
  9540  1025  0971               	comf	___xxtofl@val+1,w
  9541  1026  00FB               	movwf	___xxtofl@arg+1
  9542  1027  0972               	comf	___xxtofl@val+2,w
  9543  1028  00FC               	movwf	___xxtofl@arg+2
  9544  1029  0973               	comf	___xxtofl@val+3,w
  9545  102A  00FD               	movwf	___xxtofl@arg+3
  9546  102B  0AFA               	incf	___xxtofl@arg,f
  9547  102C  1903               	skipnz
  9548  102D  0AFB               	incf	___xxtofl@arg+1,f
  9549  102E  1903               	skipnz
  9550  102F  0AFC               	incf	___xxtofl@arg+2,f
  9551  1030  1903               	skipnz
  9552  1031  0AFD               	incf	___xxtofl@arg+3,f
  9553  1032  283B               	goto	i1l910
  9554  1033                     i1l3339:
  9555  1033  0873               	movf	___xxtofl@val+3,w
  9556  1034  00FD               	movwf	___xxtofl@arg+3
  9557  1035  0872               	movf	___xxtofl@val+2,w
  9558  1036  00FC               	movwf	___xxtofl@arg+2
  9559  1037  0871               	movf	___xxtofl@val+1,w
  9560  1038  00FB               	movwf	___xxtofl@arg+1
  9561  1039  0870               	movf	___xxtofl@val,w
  9562  103A  00FA               	movwf	___xxtofl@arg
  9563  103B                     i1l910:
  9564  103B  0873               	movf	___xxtofl@val+3,w
  9565  103C  0472               	iorwf	___xxtofl@val+2,w
  9566  103D  0471               	iorwf	___xxtofl@val+1,w
  9567  103E  0470               	iorwf	___xxtofl@val,w
  9568  103F  1D03               	skipz
  9569  1040  2842               	goto	u559_21
  9570  1041  2843               	goto	u559_20
  9571  1042                     u559_21:
  9572  1042  284C               	goto	i1l3345
  9573  1043                     u559_20:
  9574  1043                     i1l3341:
  9575  1043  3000               	movlw	0
  9576  1044  00F3               	movwf	?___xxtofl+3
  9577  1045  3000               	movlw	0
  9578  1046  00F2               	movwf	?___xxtofl+2
  9579  1047  3000               	movlw	0
  9580  1048  00F1               	movwf	?___xxtofl+1
  9581  1049  3000               	movlw	0
  9582  104A  00F0               	movwf	?___xxtofl
  9583  104B  28D2               	goto	i1l912
  9584  104C                     i1l3345:
  9585  104C  3096               	movlw	150
  9586  104D  00FF               	movwf	btemp+1
  9587  104E  087F               	movf	btemp+1,w
  9588  104F  00F9               	movwf	___xxtofl@exp
  9589  1050  285E               	goto	i1l3351
  9590  1051                     i1l3347:
  9591  1051  3001               	movlw	1
  9592  1052  00FF               	movwf	btemp+1
  9593  1053  087F               	movf	btemp+1,w
  9594  1054  07F9               	addwf	___xxtofl@exp,f
  9595  1055                     i1l3349:
  9596  1055  3001               	movlw	1
  9597  1056                     u560_25:
  9598  1056  1003               	clrc
  9599  1057  0CFD               	rrf	___xxtofl@arg+3,f
  9600  1058  0CFC               	rrf	___xxtofl@arg+2,f
  9601  1059  0CFB               	rrf	___xxtofl@arg+1,f
  9602  105A  0CFA               	rrf	___xxtofl@arg,f
  9603  105B  3EFF               	addlw	-1
  9604  105C  1D03               	skipz
  9605  105D  2856               	goto	u560_25
  9606  105E                     i1l3351:
  9607  105E  30FE               	movlw	254
  9608  105F  057D               	andwf	___xxtofl@arg+3,w
  9609  1060  1D03               	btfss	3,2
  9610  1061  2863               	goto	u561_21
  9611  1062  2864               	goto	u561_20
  9612  1063                     u561_21:
  9613  1063  2851               	goto	i1l3347
  9614  1064                     u561_20:
  9615  1064  2880               	goto	i1l3359
  9616  1065                     i1l3353:
  9617  1065  3001               	movlw	1
  9618  1066  00FF               	movwf	btemp+1
  9619  1067  087F               	movf	btemp+1,w
  9620  1068  07F9               	addwf	___xxtofl@exp,f
  9621  1069                     i1l3355:
  9622  1069  3001               	movlw	1
  9623  106A  07FA               	addwf	___xxtofl@arg,f
  9624  106B  3000               	movlw	0
  9625  106C  1803               	skipnc
  9626  106D  3001               	movlw	1
  9627  106E  07FB               	addwf	___xxtofl@arg+1,f
  9628  106F  3000               	movlw	0
  9629  1070  1803               	skipnc
  9630  1071  3001               	movlw	1
  9631  1072  07FC               	addwf	___xxtofl@arg+2,f
  9632  1073  3000               	movlw	0
  9633  1074  1803               	skipnc
  9634  1075  3001               	movlw	1
  9635  1076  07FD               	addwf	___xxtofl@arg+3,f
  9636  1077                     i1l3357:
  9637  1077  3001               	movlw	1
  9638  1078                     u562_25:
  9639  1078  1003               	clrc
  9640  1079  0CFD               	rrf	___xxtofl@arg+3,f
  9641  107A  0CFC               	rrf	___xxtofl@arg+2,f
  9642  107B  0CFB               	rrf	___xxtofl@arg+1,f
  9643  107C  0CFA               	rrf	___xxtofl@arg,f
  9644  107D  3EFF               	addlw	-1
  9645  107E  1D03               	skipz
  9646  107F  2878               	goto	u562_25
  9647  1080                     i1l3359:
  9648  1080  30FF               	movlw	255
  9649  1081  057D               	andwf	___xxtofl@arg+3,w
  9650  1082  1D03               	btfss	3,2
  9651  1083  2885               	goto	u563_21
  9652  1084  2886               	goto	u563_20
  9653  1085                     u563_21:
  9654  1085  2865               	goto	i1l3353
  9655  1086                     u563_20:
  9656  1086  2892               	goto	i1l3363
  9657  1087                     i1l3361:
  9658  1087  3001               	movlw	1
  9659  1088  02F9               	subwf	___xxtofl@exp,f
  9660  1089  3001               	movlw	1
  9661  108A  00F4               	movwf	??___xxtofl
  9662  108B                     u564_25:
  9663  108B  1003               	clrc
  9664  108C  0DFA               	rlf	___xxtofl@arg,f
  9665  108D  0DFB               	rlf	___xxtofl@arg+1,f
  9666  108E  0DFC               	rlf	___xxtofl@arg+2,f
  9667  108F  0DFD               	rlf	___xxtofl@arg+3,f
  9668  1090  0BF4               	decfsz	??___xxtofl,f
  9669  1091  288B               	goto	u564_25
  9670  1092                     i1l3363:
  9671  1092  1BFC               	btfsc	___xxtofl@arg+2,7
  9672  1093  2895               	goto	u565_21
  9673  1094  2896               	goto	u565_20
  9674  1095                     u565_21:
  9675  1095  289C               	goto	i1l923
  9676  1096                     u565_20:
  9677  1096                     i1l3365:
  9678  1096  3002               	movlw	2
  9679  1097  0279               	subwf	___xxtofl@exp,w
  9680  1098  1803               	skipnc
  9681  1099  289B               	goto	u566_21
  9682  109A  289C               	goto	u566_20
  9683  109B                     u566_21:
  9684  109B  2887               	goto	i1l3361
  9685  109C                     u566_20:
  9686  109C                     i1l923:
  9687  109C  1879               	btfsc	___xxtofl@exp,0
  9688  109D  289F               	goto	u567_21
  9689  109E  28A0               	goto	u567_20
  9690  109F                     u567_21:
  9691  109F  28A8               	goto	i1l924
  9692  10A0                     u567_20:
  9693  10A0                     i1l3367:
  9694  10A0  30FF               	movlw	255
  9695  10A1  05FA               	andwf	___xxtofl@arg,f
  9696  10A2  30FF               	movlw	255
  9697  10A3  05FB               	andwf	___xxtofl@arg+1,f
  9698  10A4  307F               	movlw	127
  9699  10A5  05FC               	andwf	___xxtofl@arg+2,f
  9700  10A6  30FF               	movlw	255
  9701  10A7  05FD               	andwf	___xxtofl@arg+3,f
  9702  10A8                     i1l924:
  9703  10A8  1003               	clrc
  9704  10A9  0CF9               	rrf	___xxtofl@exp,f
  9705  10AA                     i1l3369:
  9706  10AA  0879               	movf	___xxtofl@exp,w
  9707  10AB  00F4               	movwf	??___xxtofl
  9708  10AC  01F5               	clrf	??___xxtofl+1
  9709  10AD  01F6               	clrf	??___xxtofl+2
  9710  10AE  01F7               	clrf	??___xxtofl+3
  9711  10AF  3018               	movlw	24
  9712  10B0                     u568_25:
  9713  10B0  1003               	clrc
  9714  10B1  0DF4               	rlf	??___xxtofl,f
  9715  10B2  0DF5               	rlf	??___xxtofl+1,f
  9716  10B3  0DF6               	rlf	??___xxtofl+2,f
  9717  10B4  0DF7               	rlf	??___xxtofl+3,f
  9718  10B5                     u568_20:
  9719  10B5  3EFF               	addlw	-1
  9720  10B6  1D03               	skipz
  9721  10B7  28B0               	goto	u568_25
  9722  10B8  0874               	movf	??___xxtofl,w
  9723  10B9  04FA               	iorwf	___xxtofl@arg,f
  9724  10BA  0875               	movf	??___xxtofl+1,w
  9725  10BB  04FB               	iorwf	___xxtofl@arg+1,f
  9726  10BC  0876               	movf	??___xxtofl+2,w
  9727  10BD  04FC               	iorwf	___xxtofl@arg+2,f
  9728  10BE  0877               	movf	??___xxtofl+3,w
  9729  10BF  04FD               	iorwf	___xxtofl@arg+3,f
  9730  10C0                     i1l3371:
  9731  10C0  0878               	movf	___xxtofl@sign,w
  9732  10C1  1903               	btfsc	3,2
  9733  10C2  28C4               	goto	u569_21
  9734  10C3  28C5               	goto	u569_20
  9735  10C4                     u569_21:
  9736  10C4  28CA               	goto	i1l3377
  9737  10C5                     u569_20:
  9738  10C5                     i1l3373:
  9739  10C5  1FF3               	btfss	___xxtofl@val+3,7
  9740  10C6  28C8               	goto	u570_21
  9741  10C7  28C9               	goto	u570_20
  9742  10C8                     u570_21:
  9743  10C8  28CA               	goto	i1l3377
  9744  10C9                     u570_20:
  9745  10C9                     i1l3375:
  9746  10C9  17FD               	bsf	___xxtofl@arg+3,7
  9747  10CA                     i1l3377:
  9748  10CA  087D               	movf	___xxtofl@arg+3,w
  9749  10CB  00F3               	movwf	?___xxtofl+3
  9750  10CC  087C               	movf	___xxtofl@arg+2,w
  9751  10CD  00F2               	movwf	?___xxtofl+2
  9752  10CE  087B               	movf	___xxtofl@arg+1,w
  9753  10CF  00F1               	movwf	?___xxtofl+1
  9754  10D0  087A               	movf	___xxtofl@arg,w
  9755  10D1  00F0               	movwf	?___xxtofl
  9756  10D2                     i1l912:
  9757  10D2  0008               	return
  9758  10D3                     __end_of___xxtofl:
  9759                           
  9760                           	psect	text38
  9761  19F3                     __ptext38:	
  9762 ;; *************** function ___wmul *****************
  9763 ;; Defined at:
  9764 ;;		line 15 in file "/opt/microchip/xc8/v2.20/pic/sources/c90/common/Umul16.c"
  9765 ;; Parameters:    Size  Location     Type
  9766 ;;  multiplier      2    0[COMMON] unsigned int 
  9767 ;;  multiplicand    2    2[COMMON] unsigned int 
  9768 ;; Auto vars:     Size  Location     Type
  9769 ;;  product         2    4[COMMON] unsigned int 
  9770 ;; Return value:  Size  Location     Type
  9771 ;;                  2    0[COMMON] unsigned int 
  9772 ;; Registers used:
  9773 ;;		wreg, status,2, status,0
  9774 ;; Tracked objects:
  9775 ;;		On entry : 0/0
  9776 ;;		On exit  : 0/0
  9777 ;;		Unchanged: 0/0
  9778 ;; Data sizes:     COMMON   BANK0   BANK1   BANK3   BANK2
  9779 ;;      Params:         4       0       0       0       0
  9780 ;;      Locals:         2       0       0       0       0
  9781 ;;      Temps:          0       0       0       0       0
  9782 ;;      Totals:         6       0       0       0       0
  9783 ;;Total ram usage:        6 bytes
  9784 ;; Hardware stack levels used:    1
  9785 ;; This function calls:
  9786 ;;		Nothing
  9787 ;; This function is called by:
  9788 ;;		_sprintf
  9789 ;; This function uses a non-reentrant model
  9790 ;;
  9791                           
  9792                           
  9793                           ;psect for function ___wmul
  9794  19F3                     ___wmul:
  9795  19F3                     i1l3187:	
  9796                           ;incstack = 0
  9797                           ; Regs used in ___wmul: [wreg+status,2+status,0]
  9798                           
  9799  19F3  01F4               	clrf	___wmul@product
  9800  19F4  01F5               	clrf	___wmul@product+1
  9801  19F5                     i1l3189:
  9802  19F5  1C70               	btfss	___wmul@multiplier,0
  9803  19F6  29F8               	goto	u519_21
  9804  19F7  29F9               	goto	u519_20
  9805  19F8                     u519_21:
  9806  19F8  29FF               	goto	i1l443
  9807  19F9                     u519_20:
  9808  19F9                     i1l3191:
  9809  19F9  0872               	movf	___wmul@multiplicand,w
  9810  19FA  07F4               	addwf	___wmul@product,f
  9811  19FB  1803               	skipnc
  9812  19FC  0AF5               	incf	___wmul@product+1,f
  9813  19FD  0873               	movf	___wmul@multiplicand+1,w
  9814  19FE  07F5               	addwf	___wmul@product+1,f
  9815  19FF                     i1l443:
  9816  19FF  3001               	movlw	1
  9817  1A00                     u520_25:
  9818  1A00  1003               	clrc
  9819  1A01  0DF2               	rlf	___wmul@multiplicand,f
  9820  1A02  0DF3               	rlf	___wmul@multiplicand+1,f
  9821  1A03  3EFF               	addlw	-1
  9822  1A04  1D03               	skipz
  9823  1A05  2A00               	goto	u520_25
  9824  1A06                     i1l3193:
  9825  1A06  3001               	movlw	1
  9826  1A07                     u521_25:
  9827  1A07  1003               	clrc
  9828  1A08  0CF1               	rrf	___wmul@multiplier+1,f
  9829  1A09  0CF0               	rrf	___wmul@multiplier,f
  9830  1A0A  3EFF               	addlw	-1
  9831  1A0B  1D03               	skipz
  9832  1A0C  2A07               	goto	u521_25
  9833  1A0D                     i1l3195:
  9834  1A0D  0870               	movf	___wmul@multiplier,w
  9835  1A0E  0471               	iorwf	___wmul@multiplier+1,w
  9836  1A0F  1D03               	btfss	3,2
  9837  1A10  2A12               	goto	u522_21
  9838  1A11  2A13               	goto	u522_20
  9839  1A12                     u522_21:
  9840  1A12  29F5               	goto	i1l3189
  9841  1A13                     u522_20:
  9842  1A13                     i1l3197:
  9843  1A13  0875               	movf	___wmul@product+1,w
  9844  1A14  00F1               	movwf	?___wmul+1
  9845  1A15  0874               	movf	___wmul@product,w
  9846  1A16  00F0               	movwf	?___wmul
  9847  1A17                     i1l445:
  9848  1A17  0008               	return
  9849  1A18                     __end_of___wmul:
  9850                           
  9851                           	psect	text39
  9852  1C39                     __ptext39:	
  9853 ;; *************** function ___llmod *****************
  9854 ;; Defined at:
  9855 ;;		line 5 in file "/opt/microchip/xc8/v2.20/pic/sources/c90/common/llmod.c"
  9856 ;; Parameters:    Size  Location     Type
  9857 ;;  divisor         4    0[BANK0 ] unsigned long 
  9858 ;;  dividend        4    4[BANK0 ] unsigned long 
  9859 ;; Auto vars:     Size  Location     Type
  9860 ;;  counter         1    9[BANK0 ] unsigned char 
  9861 ;; Return value:  Size  Location     Type
  9862 ;;                  4    0[BANK0 ] unsigned long 
  9863 ;; Registers used:
  9864 ;;		wreg, status,2, status,0, btemp+1
  9865 ;; Tracked objects:
  9866 ;;		On entry : 0/0
  9867 ;;		On exit  : 0/0
  9868 ;;		Unchanged: 0/0
  9869 ;; Data sizes:     COMMON   BANK0   BANK1   BANK3   BANK2
  9870 ;;      Params:         0       8       0       0       0
  9871 ;;      Locals:         0       1       0       0       0
  9872 ;;      Temps:          0       1       0       0       0
  9873 ;;      Totals:         0      10       0       0       0
  9874 ;;Total ram usage:       10 bytes
  9875 ;; Hardware stack levels used:    1
  9876 ;; This function calls:
  9877 ;;		Nothing
  9878 ;; This function is called by:
  9879 ;;		_sprintf
  9880 ;; This function uses a non-reentrant model
  9881 ;;
  9882                           
  9883                           
  9884                           ;psect for function ___llmod
  9885  1C39                     ___llmod:
  9886  1C39                     i1l3305:	
  9887                           ;incstack = 0
  9888                           ; Regs used in ___llmod: [wreg+status,2+status,0+btemp+1]
  9889                           
  9890  1C39  1283               	bcf	3,5	;RP0=0, select bank0
  9891  1C3A  1303               	bcf	3,6	;RP1=0, select bank0
  9892  1C3B  0823               	movf	___llmod@divisor+3,w
  9893  1C3C  0422               	iorwf	___llmod@divisor+2,w
  9894  1C3D  0421               	iorwf	___llmod@divisor+1,w
  9895  1C3E  0420               	iorwf	___llmod@divisor,w
  9896  1C3F  1903               	skipnz
  9897  1C40  2C42               	goto	u551_21
  9898  1C41  2C43               	goto	u551_20
  9899  1C42                     u551_21:
  9900  1C42  2C86               	goto	i1l3323
  9901  1C43                     u551_20:
  9902  1C43                     i1l3307:
  9903  1C43  01A9               	clrf	___llmod@counter
  9904  1C44  0AA9               	incf	___llmod@counter,f
  9905  1C45  2C53               	goto	i1l3313
  9906  1C46                     i1l3309:
  9907  1C46  3001               	movlw	1
  9908  1C47  00A8               	movwf	??___llmod
  9909  1C48                     u552_25:
  9910  1C48  1003               	clrc
  9911  1C49  0DA0               	rlf	___llmod@divisor,f
  9912  1C4A  0DA1               	rlf	___llmod@divisor+1,f
  9913  1C4B  0DA2               	rlf	___llmod@divisor+2,f
  9914  1C4C  0DA3               	rlf	___llmod@divisor+3,f
  9915  1C4D  0BA8               	decfsz	??___llmod,f
  9916  1C4E  2C48               	goto	u552_25
  9917  1C4F                     i1l3311:
  9918  1C4F  3001               	movlw	1
  9919  1C50  00FF               	movwf	btemp+1
  9920  1C51  087F               	movf	btemp+1,w
  9921  1C52  07A9               	addwf	___llmod@counter,f
  9922  1C53                     i1l3313:
  9923  1C53  1FA3               	btfss	___llmod@divisor+3,7
  9924  1C54  2C56               	goto	u553_21
  9925  1C55  2C57               	goto	u553_20
  9926  1C56                     u553_21:
  9927  1C56  2C46               	goto	i1l3309
  9928  1C57                     u553_20:
  9929  1C57                     i1l3315:
  9930  1C57  0823               	movf	___llmod@divisor+3,w
  9931  1C58  0227               	subwf	___llmod@dividend+3,w
  9932  1C59  1D03               	skipz
  9933  1C5A  2C65               	goto	u554_25
  9934  1C5B  0822               	movf	___llmod@divisor+2,w
  9935  1C5C  0226               	subwf	___llmod@dividend+2,w
  9936  1C5D  1D03               	skipz
  9937  1C5E  2C65               	goto	u554_25
  9938  1C5F  0821               	movf	___llmod@divisor+1,w
  9939  1C60  0225               	subwf	___llmod@dividend+1,w
  9940  1C61  1D03               	skipz
  9941  1C62  2C65               	goto	u554_25
  9942  1C63  0820               	movf	___llmod@divisor,w
  9943  1C64  0224               	subwf	___llmod@dividend,w
  9944  1C65                     u554_25:
  9945  1C65  1C03               	skipc
  9946  1C66  2C68               	goto	u554_21
  9947  1C67  2C69               	goto	u554_20
  9948  1C68                     u554_21:
  9949  1C68  2C77               	goto	i1l3319
  9950  1C69                     u554_20:
  9951  1C69                     i1l3317:
  9952  1C69  0820               	movf	___llmod@divisor,w
  9953  1C6A  02A4               	subwf	___llmod@dividend,f
  9954  1C6B  0821               	movf	___llmod@divisor+1,w
  9955  1C6C  1C03               	skipc
  9956  1C6D  0F21               	incfsz	___llmod@divisor+1,w
  9957  1C6E  02A5               	subwf	___llmod@dividend+1,f
  9958  1C6F  0822               	movf	___llmod@divisor+2,w
  9959  1C70  1C03               	skipc
  9960  1C71  0F22               	incfsz	___llmod@divisor+2,w
  9961  1C72  02A6               	subwf	___llmod@dividend+2,f
  9962  1C73  0823               	movf	___llmod@divisor+3,w
  9963  1C74  1C03               	skipc
  9964  1C75  0F23               	incfsz	___llmod@divisor+3,w
  9965  1C76  02A7               	subwf	___llmod@dividend+3,f
  9966  1C77                     i1l3319:
  9967  1C77  3001               	movlw	1
  9968  1C78                     u555_25:
  9969  1C78  1003               	clrc
  9970  1C79  0CA3               	rrf	___llmod@divisor+3,f
  9971  1C7A  0CA2               	rrf	___llmod@divisor+2,f
  9972  1C7B  0CA1               	rrf	___llmod@divisor+1,f
  9973  1C7C  0CA0               	rrf	___llmod@divisor,f
  9974  1C7D  3EFF               	addlw	-1
  9975  1C7E  1D03               	skipz
  9976  1C7F  2C78               	goto	u555_25
  9977  1C80                     i1l3321:
  9978  1C80  3001               	movlw	1
  9979  1C81  02A9               	subwf	___llmod@counter,f
  9980  1C82  1D03               	btfss	3,2
  9981  1C83  2C85               	goto	u556_21
  9982  1C84  2C86               	goto	u556_20
  9983  1C85                     u556_21:
  9984  1C85  2C57               	goto	i1l3315
  9985  1C86                     u556_20:
  9986  1C86                     i1l3323:
  9987  1C86  0827               	movf	___llmod@dividend+3,w
  9988  1C87  00A3               	movwf	?___llmod+3
  9989  1C88  0826               	movf	___llmod@dividend+2,w
  9990  1C89  00A2               	movwf	?___llmod+2
  9991  1C8A  0825               	movf	___llmod@dividend+1,w
  9992  1C8B  00A1               	movwf	?___llmod+1
  9993  1C8C  0824               	movf	___llmod@dividend,w
  9994  1C8D  00A0               	movwf	?___llmod
  9995  1C8E                     i1l699:
  9996  1C8E  0008               	return
  9997  1C8F                     __end_of___llmod:
  9998                           
  9999                           	psect	text40
 10000  1D9C                     __ptext40:	
 10001 ;; *************** function ___lldiv *****************
 10002 ;; Defined at:
 10003 ;;		line 5 in file "/opt/microchip/xc8/v2.20/pic/sources/c90/common/__lldiv.c"
 10004 ;; Parameters:    Size  Location     Type
 10005 ;;  divisor         4    0[COMMON] unsigned long 
 10006 ;;  dividend        4    4[COMMON] unsigned long 
 10007 ;; Auto vars:     Size  Location     Type
 10008 ;;  quotient        4    9[COMMON] unsigned long 
 10009 ;;  counter         1   13[COMMON] unsigned char 
 10010 ;; Return value:  Size  Location     Type
 10011 ;;                  4    0[COMMON] unsigned long 
 10012 ;; Registers used:
 10013 ;;		wreg, status,2, status,0, btemp+1
 10014 ;; Tracked objects:
 10015 ;;		On entry : 0/0
 10016 ;;		On exit  : 0/0
 10017 ;;		Unchanged: 0/0
 10018 ;; Data sizes:     COMMON   BANK0   BANK1   BANK3   BANK2
 10019 ;;      Params:         8       0       0       0       0
 10020 ;;      Locals:         5       0       0       0       0
 10021 ;;      Temps:          1       0       0       0       0
 10022 ;;      Totals:        14       0       0       0       0
 10023 ;;Total ram usage:       14 bytes
 10024 ;; Hardware stack levels used:    1
 10025 ;; This function calls:
 10026 ;;		Nothing
 10027 ;; This function is called by:
 10028 ;;		_sprintf
 10029 ;; This function uses a non-reentrant model
 10030 ;;
 10031                           
 10032                           
 10033                           ;psect for function ___lldiv
 10034  1D9C                     ___lldiv:
 10035  1D9C                     i1l3201:	
 10036                           ;incstack = 0
 10037                           ; Regs used in ___lldiv: [wreg+status,2+status,0+btemp+1]
 10038                           
 10039  1D9C  3000               	movlw	0
 10040  1D9D  00FC               	movwf	___lldiv@quotient+3
 10041  1D9E  3000               	movlw	0
 10042  1D9F  00FB               	movwf	___lldiv@quotient+2
 10043  1DA0  3000               	movlw	0
 10044  1DA1  00FA               	movwf	___lldiv@quotient+1
 10045  1DA2  3000               	movlw	0
 10046  1DA3  00F9               	movwf	___lldiv@quotient
 10047  1DA4  0873               	movf	___lldiv@divisor+3,w
 10048  1DA5  0472               	iorwf	___lldiv@divisor+2,w
 10049  1DA6  0471               	iorwf	___lldiv@divisor+1,w
 10050  1DA7  0470               	iorwf	___lldiv@divisor,w
 10051  1DA8  1903               	skipnz
 10052  1DA9  2DAB               	goto	u523_21
 10053  1DAA  2DAC               	goto	u523_20
 10054  1DAB                     u523_21:
 10055  1DAB  2DF9               	goto	i1l3223
 10056  1DAC                     u523_20:
 10057  1DAC                     i1l3203:
 10058  1DAC  01FD               	clrf	___lldiv@counter
 10059  1DAD  0AFD               	incf	___lldiv@counter,f
 10060  1DAE  2DBC               	goto	i1l3209
 10061  1DAF                     i1l3205:
 10062  1DAF  3001               	movlw	1
 10063  1DB0  00F8               	movwf	??___lldiv
 10064  1DB1                     u524_25:
 10065  1DB1  1003               	clrc
 10066  1DB2  0DF0               	rlf	___lldiv@divisor,f
 10067  1DB3  0DF1               	rlf	___lldiv@divisor+1,f
 10068  1DB4  0DF2               	rlf	___lldiv@divisor+2,f
 10069  1DB5  0DF3               	rlf	___lldiv@divisor+3,f
 10070  1DB6  0BF8               	decfsz	??___lldiv,f
 10071  1DB7  2DB1               	goto	u524_25
 10072  1DB8                     i1l3207:
 10073  1DB8  3001               	movlw	1
 10074  1DB9  00FF               	movwf	btemp+1
 10075  1DBA  087F               	movf	btemp+1,w
 10076  1DBB  07FD               	addwf	___lldiv@counter,f
 10077  1DBC                     i1l3209:
 10078  1DBC  1FF3               	btfss	___lldiv@divisor+3,7
 10079  1DBD  2DBF               	goto	u525_21
 10080  1DBE  2DC0               	goto	u525_20
 10081  1DBF                     u525_21:
 10082  1DBF  2DAF               	goto	i1l3205
 10083  1DC0                     u525_20:
 10084  1DC0                     i1l3211:
 10085  1DC0  3001               	movlw	1
 10086  1DC1  00F8               	movwf	??___lldiv
 10087  1DC2                     u526_25:
 10088  1DC2  1003               	clrc
 10089  1DC3  0DF9               	rlf	___lldiv@quotient,f
 10090  1DC4  0DFA               	rlf	___lldiv@quotient+1,f
 10091  1DC5  0DFB               	rlf	___lldiv@quotient+2,f
 10092  1DC6  0DFC               	rlf	___lldiv@quotient+3,f
 10093  1DC7  0BF8               	decfsz	??___lldiv,f
 10094  1DC8  2DC2               	goto	u526_25
 10095  1DC9                     i1l3213:
 10096  1DC9  0873               	movf	___lldiv@divisor+3,w
 10097  1DCA  0277               	subwf	___lldiv@dividend+3,w
 10098  1DCB  1D03               	skipz
 10099  1DCC  2DD7               	goto	u527_25
 10100  1DCD  0872               	movf	___lldiv@divisor+2,w
 10101  1DCE  0276               	subwf	___lldiv@dividend+2,w
 10102  1DCF  1D03               	skipz
 10103  1DD0  2DD7               	goto	u527_25
 10104  1DD1  0871               	movf	___lldiv@divisor+1,w
 10105  1DD2  0275               	subwf	___lldiv@dividend+1,w
 10106  1DD3  1D03               	skipz
 10107  1DD4  2DD7               	goto	u527_25
 10108  1DD5  0870               	movf	___lldiv@divisor,w
 10109  1DD6  0274               	subwf	___lldiv@dividend,w
 10110  1DD7                     u527_25:
 10111  1DD7  1C03               	skipc
 10112  1DD8  2DDA               	goto	u527_21
 10113  1DD9  2DDB               	goto	u527_20
 10114  1DDA                     u527_21:
 10115  1DDA  2DEA               	goto	i1l3219
 10116  1DDB                     u527_20:
 10117  1DDB                     i1l3215:
 10118  1DDB  0870               	movf	___lldiv@divisor,w
 10119  1DDC  02F4               	subwf	___lldiv@dividend,f
 10120  1DDD  0871               	movf	___lldiv@divisor+1,w
 10121  1DDE  1C03               	skipc
 10122  1DDF  0F71               	incfsz	___lldiv@divisor+1,w
 10123  1DE0  02F5               	subwf	___lldiv@dividend+1,f
 10124  1DE1  0872               	movf	___lldiv@divisor+2,w
 10125  1DE2  1C03               	skipc
 10126  1DE3  0F72               	incfsz	___lldiv@divisor+2,w
 10127  1DE4  02F6               	subwf	___lldiv@dividend+2,f
 10128  1DE5  0873               	movf	___lldiv@divisor+3,w
 10129  1DE6  1C03               	skipc
 10130  1DE7  0F73               	incfsz	___lldiv@divisor+3,w
 10131  1DE8  02F7               	subwf	___lldiv@dividend+3,f
 10132  1DE9                     i1l3217:
 10133  1DE9  1479               	bsf	___lldiv@quotient,0
 10134  1DEA                     i1l3219:
 10135  1DEA  3001               	movlw	1
 10136  1DEB                     u528_25:
 10137  1DEB  1003               	clrc
 10138  1DEC  0CF3               	rrf	___lldiv@divisor+3,f
 10139  1DED  0CF2               	rrf	___lldiv@divisor+2,f
 10140  1DEE  0CF1               	rrf	___lldiv@divisor+1,f
 10141  1DEF  0CF0               	rrf	___lldiv@divisor,f
 10142  1DF0  3EFF               	addlw	-1
 10143  1DF1  1D03               	skipz
 10144  1DF2  2DEB               	goto	u528_25
 10145  1DF3                     i1l3221:
 10146  1DF3  3001               	movlw	1
 10147  1DF4  02FD               	subwf	___lldiv@counter,f
 10148  1DF5  1D03               	btfss	3,2
 10149  1DF6  2DF8               	goto	u529_21
 10150  1DF7  2DF9               	goto	u529_20
 10151  1DF8                     u529_21:
 10152  1DF8  2DC0               	goto	i1l3211
 10153  1DF9                     u529_20:
 10154  1DF9                     i1l3223:
 10155  1DF9  087C               	movf	___lldiv@quotient+3,w
 10156  1DFA  00F3               	movwf	?___lldiv+3
 10157  1DFB  087B               	movf	___lldiv@quotient+2,w
 10158  1DFC  00F2               	movwf	?___lldiv+2
 10159  1DFD  087A               	movf	___lldiv@quotient+1,w
 10160  1DFE  00F1               	movwf	?___lldiv+1
 10161  1DFF  0879               	movf	___lldiv@quotient,w
 10162  1E00  00F0               	movwf	?___lldiv
 10163  1E01                     i1l479:
 10164  1E01  0008               	return
 10165  1E02                     __end_of___lldiv:
 10166                           
 10167                           	psect	text41
 10168  1EE2                     __ptext41:	
 10169 ;; *************** function ___fltol *****************
 10170 ;; Defined at:
 10171 ;;		line 43 in file "/opt/microchip/xc8/v2.20/pic/sources/c90/common/fltol.c"
 10172 ;; Parameters:    Size  Location     Type
 10173 ;;  f1              4   26[BANK0 ] unsigned long 
 10174 ;; Auto vars:     Size  Location     Type
 10175 ;;  exp1            1   35[BANK0 ] unsigned char 
 10176 ;;  sign1           1   34[BANK0 ] unsigned char 
 10177 ;; Return value:  Size  Location     Type
 10178 ;;                  4   26[BANK0 ] long 
 10179 ;; Registers used:
 10180 ;;		wreg, status,2, status,0, btemp+1
 10181 ;; Tracked objects:
 10182 ;;		On entry : 0/0
 10183 ;;		On exit  : 0/0
 10184 ;;		Unchanged: 0/0
 10185 ;; Data sizes:     COMMON   BANK0   BANK1   BANK3   BANK2
 10186 ;;      Params:         0       4       0       0       0
 10187 ;;      Locals:         0       2       0       0       0
 10188 ;;      Temps:          0       4       0       0       0
 10189 ;;      Totals:         0      10       0       0       0
 10190 ;;Total ram usage:       10 bytes
 10191 ;; Hardware stack levels used:    1
 10192 ;; This function calls:
 10193 ;;		Nothing
 10194 ;; This function is called by:
 10195 ;;		_sprintf
 10196 ;; This function uses a non-reentrant model
 10197 ;;
 10198                           
 10199                           
 10200                           ;psect for function ___fltol
 10201  1EE2                     ___fltol:
 10202  1EE2                     i1l3267:	
 10203                           ;incstack = 0
 10204                           ; Regs used in ___fltol: [wreg+status,2+status,0+btemp+1]
 10205                           
 10206  1EE2  1003               	clrc
 10207  1EE3  1283               	bcf	3,5	;RP0=0, select bank0
 10208  1EE4  1303               	bcf	3,6	;RP1=0, select bank0
 10209  1EE5  0D3C               	rlf	___fltol@f1+2,w
 10210  1EE6  0D3D               	rlf	___fltol@f1+3,w
 10211  1EE7  00FF               	movwf	btemp+1
 10212  1EE8  087F               	movf	btemp+1,w
 10213  1EE9  00C3               	movwf	___fltol@exp1
 10214  1EEA  0843               	movf	___fltol@exp1,w
 10215  1EEB  1D03               	btfss	3,2
 10216  1EEC  2EEE               	goto	u541_21
 10217  1EED  2EEF               	goto	u541_20
 10218  1EEE                     u541_21:
 10219  1EEE  2EF8               	goto	i1l3273
 10220  1EEF                     u541_20:
 10221  1EEF                     i1l3269:
 10222  1EEF  3000               	movlw	0
 10223  1EF0  00BD               	movwf	?___fltol+3
 10224  1EF1  3000               	movlw	0
 10225  1EF2  00BC               	movwf	?___fltol+2
 10226  1EF3  3000               	movlw	0
 10227  1EF4  00BB               	movwf	?___fltol+1
 10228  1EF5  3000               	movlw	0
 10229  1EF6  00BA               	movwf	?___fltol
 10230  1EF7  2F5D               	goto	i1l646
 10231  1EF8                     i1l3273:
 10232  1EF8  083A               	movf	___fltol@f1,w
 10233  1EF9  00BE               	movwf	??___fltol
 10234  1EFA  083B               	movf	___fltol@f1+1,w
 10235  1EFB  00BF               	movwf	??___fltol+1
 10236  1EFC  083C               	movf	___fltol@f1+2,w
 10237  1EFD  00C0               	movwf	??___fltol+2
 10238  1EFE  083D               	movf	___fltol@f1+3,w
 10239  1EFF  00C1               	movwf	??___fltol+3
 10240  1F00  301F               	movlw	31
 10241  1F01                     u542_25:
 10242  1F01  1003               	clrc
 10243  1F02  0CC1               	rrf	??___fltol+3,f
 10244  1F03  0CC0               	rrf	??___fltol+2,f
 10245  1F04  0CBF               	rrf	??___fltol+1,f
 10246  1F05  0CBE               	rrf	??___fltol,f
 10247  1F06                     u542_20:
 10248  1F06  3EFF               	addlw	-1
 10249  1F07  1D03               	skipz
 10250  1F08  2F01               	goto	u542_25
 10251  1F09  083E               	movf	??___fltol,w
 10252  1F0A  00FF               	movwf	btemp+1
 10253  1F0B  087F               	movf	btemp+1,w
 10254  1F0C  00C2               	movwf	___fltol@sign1
 10255  1F0D                     i1l3275:
 10256  1F0D  17BC               	bsf	___fltol@f1+2,7
 10257  1F0E                     i1l3277:
 10258  1F0E  30FF               	movlw	255
 10259  1F0F  05BA               	andwf	___fltol@f1,f
 10260  1F10  30FF               	movlw	255
 10261  1F11  05BB               	andwf	___fltol@f1+1,f
 10262  1F12  30FF               	movlw	255
 10263  1F13  05BC               	andwf	___fltol@f1+2,f
 10264  1F14  3000               	movlw	0
 10265  1F15  05BD               	andwf	___fltol@f1+3,f
 10266  1F16                     i1l3279:
 10267  1F16  3096               	movlw	150
 10268  1F17  02C3               	subwf	___fltol@exp1,f
 10269  1F18                     i1l3281:
 10270  1F18  1FC3               	btfss	___fltol@exp1,7
 10271  1F19  2F1B               	goto	u543_21
 10272  1F1A  2F1C               	goto	u543_20
 10273  1F1B                     u543_21:
 10274  1F1B  2F36               	goto	i1l3293
 10275  1F1C                     u543_20:
 10276  1F1C                     i1l3283:
 10277  1F1C  0843               	movf	___fltol@exp1,w
 10278  1F1D  3A80               	xorlw	128
 10279  1F1E  3E97               	addlw	151
 10280  1F1F  1803               	skipnc
 10281  1F20  2F22               	goto	u544_21
 10282  1F21  2F23               	goto	u544_20
 10283  1F22                     u544_21:
 10284  1F22  2F24               	goto	i1l3289
 10285  1F23                     u544_20:
 10286  1F23  2EEF               	goto	i1l3269
 10287  1F24                     i1l3289:
 10288  1F24  3001               	movlw	1
 10289  1F25                     u545_25:
 10290  1F25  1003               	clrc
 10291  1F26  0CBD               	rrf	___fltol@f1+3,f
 10292  1F27  0CBC               	rrf	___fltol@f1+2,f
 10293  1F28  0CBB               	rrf	___fltol@f1+1,f
 10294  1F29  0CBA               	rrf	___fltol@f1,f
 10295  1F2A  3EFF               	addlw	-1
 10296  1F2B  1D03               	skipz
 10297  1F2C  2F25               	goto	u545_25
 10298  1F2D                     i1l3291:
 10299  1F2D  3001               	movlw	1
 10300  1F2E  00FF               	movwf	btemp+1
 10301  1F2F  087F               	movf	btemp+1,w
 10302  1F30  07C3               	addwf	___fltol@exp1,f
 10303  1F31  1D03               	btfss	3,2
 10304  1F32  2F34               	goto	u546_21
 10305  1F33  2F35               	goto	u546_20
 10306  1F34                     u546_21:
 10307  1F34  2F24               	goto	i1l3289
 10308  1F35                     u546_20:
 10309  1F35  2F4D               	goto	i1l3301
 10310  1F36                     i1l3293:
 10311  1F36  3020               	movlw	32
 10312  1F37  0243               	subwf	___fltol@exp1,w
 10313  1F38  1C03               	skipc
 10314  1F39  2F3B               	goto	u547_21
 10315  1F3A  2F3C               	goto	u547_20
 10316  1F3B                     u547_21:
 10317  1F3B  2F48               	goto	i1l653
 10318  1F3C                     u547_20:
 10319  1F3C  2EEF               	goto	i1l3269
 10320  1F3D                     i1l3299:
 10321  1F3D  3001               	movlw	1
 10322  1F3E  00BE               	movwf	??___fltol
 10323  1F3F                     u548_25:
 10324  1F3F  1003               	clrc
 10325  1F40  0DBA               	rlf	___fltol@f1,f
 10326  1F41  0DBB               	rlf	___fltol@f1+1,f
 10327  1F42  0DBC               	rlf	___fltol@f1+2,f
 10328  1F43  0DBD               	rlf	___fltol@f1+3,f
 10329  1F44  0BBE               	decfsz	??___fltol,f
 10330  1F45  2F3F               	goto	u548_25
 10331  1F46  3001               	movlw	1
 10332  1F47  02C3               	subwf	___fltol@exp1,f
 10333  1F48                     i1l653:
 10334  1F48  0843               	movf	___fltol@exp1,w
 10335  1F49  1D03               	btfss	3,2
 10336  1F4A  2F4C               	goto	u549_21
 10337  1F4B  2F4D               	goto	u549_20
 10338  1F4C                     u549_21:
 10339  1F4C  2F3D               	goto	i1l3299
 10340  1F4D                     u549_20:
 10341  1F4D                     i1l3301:
 10342  1F4D  0842               	movf	___fltol@sign1,w
 10343  1F4E  1903               	btfsc	3,2
 10344  1F4F  2F51               	goto	u550_21
 10345  1F50  2F52               	goto	u550_20
 10346  1F51                     u550_21:
 10347  1F51  2F5D               	goto	i1l656
 10348  1F52                     u550_20:
 10349  1F52                     i1l3303:
 10350  1F52  09BA               	comf	___fltol@f1,f
 10351  1F53  09BB               	comf	___fltol@f1+1,f
 10352  1F54  09BC               	comf	___fltol@f1+2,f
 10353  1F55  09BD               	comf	___fltol@f1+3,f
 10354  1F56  0ABA               	incf	___fltol@f1,f
 10355  1F57  1903               	skipnz
 10356  1F58  0ABB               	incf	___fltol@f1+1,f
 10357  1F59  1903               	skipnz
 10358  1F5A  0ABC               	incf	___fltol@f1+2,f
 10359  1F5B  1903               	skipnz
 10360  1F5C  0ABD               	incf	___fltol@f1+3,f
 10361  1F5D                     i1l656:
 10362  1F5D                     i1l646:
 10363  1F5D  0008               	return
 10364  1F5E                     __end_of___fltol:
 10365                           
 10366                           	psect	text42
 10367  19CF                     __ptext42:	
 10368 ;; *************** function ___flsub *****************
 10369 ;; Defined at:
 10370 ;;		line 242 in file "/opt/microchip/xc8/v2.20/pic/sources/c90/common/sprcadd.c"
 10371 ;; Parameters:    Size  Location     Type
 10372 ;;  a               4   66[BANK0 ] long 
 10373 ;;  b               4   70[BANK0 ] long 
 10374 ;; Auto vars:     Size  Location     Type
 10375 ;;		None
 10376 ;; Return value:  Size  Location     Type
 10377 ;;                  4   66[BANK0 ] long 
 10378 ;; Registers used:
 10379 ;;		wreg, status,2, status,0, btemp+1, pclath, cstack
 10380 ;; Tracked objects:
 10381 ;;		On entry : 0/0
 10382 ;;		On exit  : 0/0
 10383 ;;		Unchanged: 0/0
 10384 ;; Data sizes:     COMMON   BANK0   BANK1   BANK3   BANK2
 10385 ;;      Params:         0       8       0       0       0
 10386 ;;      Locals:         0       0       0       0       0
 10387 ;;      Temps:          0       0       0       0       0
 10388 ;;      Totals:         0       8       0       0       0
 10389 ;;Total ram usage:        8 bytes
 10390 ;; Hardware stack levels used:    1
 10391 ;; Hardware stack levels required when called:    1
 10392 ;; This function calls:
 10393 ;;		___fladd
 10394 ;; This function is called by:
 10395 ;;		_sprintf
 10396 ;; This function uses a non-reentrant model
 10397 ;;
 10398                           
 10399                           
 10400                           ;psect for function ___flsub
 10401  19CF                     ___flsub:
 10402  19CF                     i1l3327:	
 10403                           ;incstack = 0
 10404                           ; Regs used in ___flsub: [wreg+status,2+status,0+btemp+1+pclath+cstack]
 10405                           
 10406  19CF  3080               	movlw	128
 10407  19D0  1283               	bcf	3,5	;RP0=0, select bank0
 10408  19D1  1303               	bcf	3,6	;RP1=0, select bank0
 10409  19D2  06E5               	xorwf	___flsub@a+3,f
 10410  19D3                     i1l3329:
 10411  19D3  0869               	movf	___flsub@b+3,w
 10412  19D4  00D1               	movwf	___fladd@b+3
 10413  19D5  0868               	movf	___flsub@b+2,w
 10414  19D6  00D0               	movwf	___fladd@b+2
 10415  19D7  0867               	movf	___flsub@b+1,w
 10416  19D8  00CF               	movwf	___fladd@b+1
 10417  19D9  0866               	movf	___flsub@b,w
 10418  19DA  00CE               	movwf	___fladd@b
 10419  19DB  0865               	movf	___flsub@a+3,w
 10420  19DC  00D5               	movwf	___fladd@a+3
 10421  19DD  0864               	movf	___flsub@a+2,w
 10422  19DE  00D4               	movwf	___fladd@a+2
 10423  19DF  0863               	movf	___flsub@a+1,w
 10424  19E0  00D3               	movwf	___fladd@a+1
 10425  19E1  0862               	movf	___flsub@a,w
 10426  19E2  00D2               	movwf	___fladd@a
 10427  19E3  160A  118A  2578  160A  158A  	fcall	___fladd
 10428  19E8  1283               	bcf	3,5	;RP0=0, select bank0
 10429  19E9  1303               	bcf	3,6	;RP1=0, select bank0
 10430  19EA  0851               	movf	?___fladd+3,w
 10431  19EB  00E5               	movwf	?___flsub+3
 10432  19EC  0850               	movf	?___fladd+2,w
 10433  19ED  00E4               	movwf	?___flsub+2
 10434  19EE  084F               	movf	?___fladd+1,w
 10435  19EF  00E3               	movwf	?___flsub+1
 10436  19F0  084E               	movf	?___fladd,w
 10437  19F1  00E2               	movwf	?___flsub
 10438  19F2                     i1l816:
 10439  19F2  0008               	return
 10440  19F3                     __end_of___flsub:
 10441                           
 10442                           	psect	text43
 10443  1578                     __ptext43:	
 10444 ;; *************** function ___fladd *****************
 10445 ;; Defined at:
 10446 ;;		line 10 in file "/opt/microchip/xc8/v2.20/pic/sources/c90/common/sprcadd.c"
 10447 ;; Parameters:    Size  Location     Type
 10448 ;;  b               4   46[BANK0 ] long 
 10449 ;;  a               4   50[BANK0 ] long 
 10450 ;; Auto vars:     Size  Location     Type
 10451 ;;  grs             1   65[BANK0 ] unsigned char 
 10452 ;;  bexp            1   64[BANK0 ] unsigned char 
 10453 ;;  aexp            1   63[BANK0 ] unsigned char 
 10454 ;;  signs           1   62[BANK0 ] unsigned char 
 10455 ;; Return value:  Size  Location     Type
 10456 ;;                  4   46[BANK0 ] unsigned char 
 10457 ;; Registers used:
 10458 ;;		wreg, status,2, status,0, btemp+1
 10459 ;; Tracked objects:
 10460 ;;		On entry : 0/0
 10461 ;;		On exit  : 0/0
 10462 ;;		Unchanged: 0/0
 10463 ;; Data sizes:     COMMON   BANK0   BANK1   BANK3   BANK2
 10464 ;;      Params:         0       8       0       0       0
 10465 ;;      Locals:         0       4       0       0       0
 10466 ;;      Temps:          0       8       0       0       0
 10467 ;;      Totals:         0      20       0       0       0
 10468 ;;Total ram usage:       20 bytes
 10469 ;; Hardware stack levels used:    1
 10470 ;; This function calls:
 10471 ;;		Nothing
 10472 ;; This function is called by:
 10473 ;;		_sprintf
 10474 ;;		___flsub
 10475 ;; This function uses a non-reentrant model
 10476 ;;
 10477                           
 10478                           
 10479                           ;psect for function ___fladd
 10480  1578                     ___fladd:
 10481  1578                     i1l2651:	
 10482                           ;incstack = 0
 10483                           ; Regs used in ___fladd: [wreg+status,2+status,0+btemp+1]
 10484                           
 10485  1578  1283               	bcf	3,5	;RP0=0, select bank0
 10486  1579  1303               	bcf	3,6	;RP1=0, select bank0
 10487  157A  0851               	movf	___fladd@b+3,w
 10488  157B  3980               	andlw	128
 10489  157C  00FF               	movwf	btemp+1
 10490  157D  087F               	movf	btemp+1,w
 10491  157E  00DE               	movwf	___fladd@signs
 10492  157F                     i1l2653:
 10493  157F  0851               	movf	___fladd@b+3,w
 10494  1580  00D6               	movwf	??___fladd
 10495  1581  0756               	addwf	??___fladd,w
 10496  1582  00FF               	movwf	btemp+1
 10497  1583  087F               	movf	btemp+1,w
 10498  1584  00E0               	movwf	___fladd@bexp
 10499  1585                     i1l2655:
 10500  1585  1FD0               	btfss	___fladd@b+2,7
 10501  1586  2D88               	goto	u373_21
 10502  1587  2D89               	goto	u373_20
 10503  1588                     u373_21:
 10504  1588  2D8A               	goto	i1l2659
 10505  1589                     u373_20:
 10506  1589                     i1l2657:
 10507  1589  1460               	bsf	___fladd@bexp,0
 10508  158A                     i1l2659:
 10509  158A  0860               	movf	___fladd@bexp,w
 10510  158B  1903               	btfsc	3,2
 10511  158C  2D8E               	goto	u374_21
 10512  158D  2D8F               	goto	u374_20
 10513  158E                     u374_21:
 10514  158E  2D9F               	goto	i1l2669
 10515  158F                     u374_20:
 10516  158F                     i1l2661:
 10517  158F  0A60               	incf	___fladd@bexp,w
 10518  1590  1D03               	btfss	3,2
 10519  1591  2D93               	goto	u375_21
 10520  1592  2D94               	goto	u375_20
 10521  1593                     u375_21:
 10522  1593  2D9C               	goto	i1l2665
 10523  1594                     u375_20:
 10524  1594                     i1l2663:
 10525  1594  3000               	movlw	0
 10526  1595  00D1               	movwf	___fladd@b+3
 10527  1596  3000               	movlw	0
 10528  1597  00D0               	movwf	___fladd@b+2
 10529  1598  3000               	movlw	0
 10530  1599  00CF               	movwf	___fladd@b+1
 10531  159A  3000               	movlw	0
 10532  159B  00CE               	movwf	___fladd@b
 10533  159C                     i1l2665:
 10534  159C  17D0               	bsf	___fladd@b+2,7
 10535  159D                     i1l2667:
 10536  159D  01D1               	clrf	___fladd@b+3
 10537  159E  2DA7               	goto	i1l2671
 10538  159F                     i1l2669:
 10539  159F  3000               	movlw	0
 10540  15A0  00D1               	movwf	___fladd@b+3
 10541  15A1  3000               	movlw	0
 10542  15A2  00D0               	movwf	___fladd@b+2
 10543  15A3  3000               	movlw	0
 10544  15A4  00CF               	movwf	___fladd@b+1
 10545  15A5  3000               	movlw	0
 10546  15A6  00CE               	movwf	___fladd@b
 10547  15A7                     i1l2671:
 10548  15A7  0855               	movf	___fladd@a+3,w
 10549  15A8  3980               	andlw	128
 10550  15A9  00FF               	movwf	btemp+1
 10551  15AA  087F               	movf	btemp+1,w
 10552  15AB  00DF               	movwf	___fladd@aexp
 10553  15AC                     i1l2673:
 10554  15AC  085F               	movf	___fladd@aexp,w
 10555  15AD  065E               	xorwf	___fladd@signs,w
 10556  15AE  1903               	skipnz
 10557  15AF  2DB1               	goto	u376_21
 10558  15B0  2DB2               	goto	u376_20
 10559  15B1                     u376_21:
 10560  15B1  2DB3               	goto	i1l2677
 10561  15B2                     u376_20:
 10562  15B2                     i1l2675:
 10563  15B2  175E               	bsf	___fladd@signs,6
 10564  15B3                     i1l2677:
 10565  15B3  0855               	movf	___fladd@a+3,w
 10566  15B4  00D6               	movwf	??___fladd
 10567  15B5  0756               	addwf	??___fladd,w
 10568  15B6  00FF               	movwf	btemp+1
 10569  15B7  087F               	movf	btemp+1,w
 10570  15B8  00DF               	movwf	___fladd@aexp
 10571  15B9                     i1l2679:
 10572  15B9  1FD4               	btfss	___fladd@a+2,7
 10573  15BA  2DBC               	goto	u377_21
 10574  15BB  2DBD               	goto	u377_20
 10575  15BC                     u377_21:
 10576  15BC  2DBE               	goto	i1l2683
 10577  15BD                     u377_20:
 10578  15BD                     i1l2681:
 10579  15BD  145F               	bsf	___fladd@aexp,0
 10580  15BE                     i1l2683:
 10581  15BE  085F               	movf	___fladd@aexp,w
 10582  15BF  1903               	btfsc	3,2
 10583  15C0  2DC2               	goto	u378_21
 10584  15C1  2DC3               	goto	u378_20
 10585  15C2                     u378_21:
 10586  15C2  2DD3               	goto	i1l2693
 10587  15C3                     u378_20:
 10588  15C3                     i1l2685:
 10589  15C3  0A5F               	incf	___fladd@aexp,w
 10590  15C4  1D03               	btfss	3,2
 10591  15C5  2DC7               	goto	u379_21
 10592  15C6  2DC8               	goto	u379_20
 10593  15C7                     u379_21:
 10594  15C7  2DD0               	goto	i1l2689
 10595  15C8                     u379_20:
 10596  15C8                     i1l2687:
 10597  15C8  3000               	movlw	0
 10598  15C9  00D5               	movwf	___fladd@a+3
 10599  15CA  3000               	movlw	0
 10600  15CB  00D4               	movwf	___fladd@a+2
 10601  15CC  3000               	movlw	0
 10602  15CD  00D3               	movwf	___fladd@a+1
 10603  15CE  3000               	movlw	0
 10604  15CF  00D2               	movwf	___fladd@a
 10605  15D0                     i1l2689:
 10606  15D0  17D4               	bsf	___fladd@a+2,7
 10607  15D1                     i1l2691:
 10608  15D1  01D5               	clrf	___fladd@a+3
 10609  15D2  2DDB               	goto	i1l770
 10610  15D3                     i1l2693:
 10611  15D3  3000               	movlw	0
 10612  15D4  00D5               	movwf	___fladd@a+3
 10613  15D5  3000               	movlw	0
 10614  15D6  00D4               	movwf	___fladd@a+2
 10615  15D7  3000               	movlw	0
 10616  15D8  00D3               	movwf	___fladd@a+1
 10617  15D9  3000               	movlw	0
 10618  15DA  00D2               	movwf	___fladd@a
 10619  15DB                     i1l770:
 10620  15DB  0860               	movf	___fladd@bexp,w
 10621  15DC  025F               	subwf	___fladd@aexp,w
 10622  15DD  1803               	skipnc
 10623  15DE  2DE0               	goto	u380_21
 10624  15DF  2DE1               	goto	u380_20
 10625  15E0                     u380_21:
 10626  15E0  2E25               	goto	i1l2729
 10627  15E1                     u380_20:
 10628  15E1                     i1l2695:
 10629  15E1  1F5E               	btfss	___fladd@signs,6
 10630  15E2  2DE4               	goto	u381_21
 10631  15E3  2DE5               	goto	u381_20
 10632  15E4                     u381_21:
 10633  15E4  2DE9               	goto	i1l2699
 10634  15E5                     u381_20:
 10635  15E5                     i1l2697:
 10636  15E5  3080               	movlw	128
 10637  15E6  00FF               	movwf	btemp+1
 10638  15E7  087F               	movf	btemp+1,w
 10639  15E8  06DE               	xorwf	___fladd@signs,f
 10640  15E9                     i1l2699:
 10641  15E9  0860               	movf	___fladd@bexp,w
 10642  15EA  00FF               	movwf	btemp+1
 10643  15EB  087F               	movf	btemp+1,w
 10644  15EC  00E1               	movwf	___fladd@grs
 10645  15ED                     i1l2701:
 10646  15ED  085F               	movf	___fladd@aexp,w
 10647  15EE  00FF               	movwf	btemp+1
 10648  15EF  087F               	movf	btemp+1,w
 10649  15F0  00E0               	movwf	___fladd@bexp
 10650  15F1                     i1l2703:
 10651  15F1  0861               	movf	___fladd@grs,w
 10652  15F2  00FF               	movwf	btemp+1
 10653  15F3  087F               	movf	btemp+1,w
 10654  15F4  00DF               	movwf	___fladd@aexp
 10655  15F5                     i1l2705:
 10656  15F5  084E               	movf	___fladd@b,w
 10657  15F6  00FF               	movwf	btemp+1
 10658  15F7  087F               	movf	btemp+1,w
 10659  15F8  00E1               	movwf	___fladd@grs
 10660  15F9                     i1l2707:
 10661  15F9  0852               	movf	___fladd@a,w
 10662  15FA  00FF               	movwf	btemp+1
 10663  15FB  087F               	movf	btemp+1,w
 10664  15FC  00CE               	movwf	___fladd@b
 10665  15FD                     i1l2709:
 10666  15FD  0861               	movf	___fladd@grs,w
 10667  15FE  00FF               	movwf	btemp+1
 10668  15FF  087F               	movf	btemp+1,w
 10669  1600  00D2               	movwf	___fladd@a
 10670  1601                     i1l2711:
 10671  1601  084F               	movf	___fladd@b+1,w
 10672  1602  00FF               	movwf	btemp+1
 10673  1603  087F               	movf	btemp+1,w
 10674  1604  00E1               	movwf	___fladd@grs
 10675  1605                     i1l2713:
 10676  1605  0853               	movf	___fladd@a+1,w
 10677  1606  00FF               	movwf	btemp+1
 10678  1607  087F               	movf	btemp+1,w
 10679  1608  00CF               	movwf	___fladd@b+1
 10680  1609                     i1l2715:
 10681  1609  0861               	movf	___fladd@grs,w
 10682  160A  00FF               	movwf	btemp+1
 10683  160B  087F               	movf	btemp+1,w
 10684  160C  00D3               	movwf	___fladd@a+1
 10685  160D                     i1l2717:
 10686  160D  0850               	movf	___fladd@b+2,w
 10687  160E  00FF               	movwf	btemp+1
 10688  160F  087F               	movf	btemp+1,w
 10689  1610  00E1               	movwf	___fladd@grs
 10690  1611                     i1l2719:
 10691  1611  0854               	movf	___fladd@a+2,w
 10692  1612  00FF               	movwf	btemp+1
 10693  1613  087F               	movf	btemp+1,w
 10694  1614  00D0               	movwf	___fladd@b+2
 10695  1615                     i1l2721:
 10696  1615  0861               	movf	___fladd@grs,w
 10697  1616  00FF               	movwf	btemp+1
 10698  1617  087F               	movf	btemp+1,w
 10699  1618  00D4               	movwf	___fladd@a+2
 10700  1619                     i1l2723:
 10701  1619  0851               	movf	___fladd@b+3,w
 10702  161A  00FF               	movwf	btemp+1
 10703  161B  087F               	movf	btemp+1,w
 10704  161C  00E1               	movwf	___fladd@grs
 10705  161D                     i1l2725:
 10706  161D  0855               	movf	___fladd@a+3,w
 10707  161E  00FF               	movwf	btemp+1
 10708  161F  087F               	movf	btemp+1,w
 10709  1620  00D1               	movwf	___fladd@b+3
 10710  1621                     i1l2727:
 10711  1621  0861               	movf	___fladd@grs,w
 10712  1622  00FF               	movwf	btemp+1
 10713  1623  087F               	movf	btemp+1,w
 10714  1624  00D5               	movwf	___fladd@a+3
 10715  1625                     i1l2729:
 10716  1625  01E1               	clrf	___fladd@grs
 10717  1626                     i1l2731:
 10718  1626  085F               	movf	___fladd@aexp,w
 10719  1627  00D6               	movwf	??___fladd
 10720  1628  01D7               	clrf	??___fladd+1
 10721  1629  0857               	movf	??___fladd+1,w
 10722  162A  00D9               	movwf	??___fladd+3
 10723  162B  0860               	movf	___fladd@bexp,w
 10724  162C  0256               	subwf	??___fladd,w
 10725  162D  00D8               	movwf	??___fladd+2
 10726  162E  1C03               	skipc
 10727  162F  03D9               	decf	??___fladd+3,f
 10728  1630  0859               	movf	??___fladd+3,w
 10729  1631  3A80               	xorlw	128
 10730  1632  00FF               	movwf	btemp+1
 10731  1633  3080               	movlw	128
 10732  1634  027F               	subwf	btemp+1,w
 10733  1635  1D03               	skipz
 10734  1636  2E39               	goto	u382_25
 10735  1637  301A               	movlw	26
 10736  1638  0258               	subwf	??___fladd+2,w
 10737  1639                     u382_25:
 10738  1639  1C03               	skipc
 10739  163A  2E3C               	goto	u382_21
 10740  163B  2E3D               	goto	u382_20
 10741  163C                     u382_21:
 10742  163C  2E7A               	goto	i1l2751
 10743  163D                     u382_20:
 10744  163D                     i1l2733:
 10745  163D  1283               	bcf	3,5	;RP0=0, select bank0
 10746  163E  1303               	bcf	3,6	;RP1=0, select bank0
 10747  163F  0851               	movf	___fladd@b+3,w
 10748  1640  0450               	iorwf	___fladd@b+2,w
 10749  1641  044F               	iorwf	___fladd@b+1,w
 10750  1642  044E               	iorwf	___fladd@b,w
 10751  1643  1D03               	skipz
 10752  1644  2E46               	goto	u383_21
 10753  1645  2E48               	goto	u383_20
 10754  1646                     u383_21:
 10755  1646  3001               	movlw	1
 10756  1647  2E49               	goto	u384_20
 10757  1648                     u383_20:
 10758  1648  3000               	movlw	0
 10759  1649                     u384_20:
 10760  1649  00FF               	movwf	btemp+1
 10761  164A  087F               	movf	btemp+1,w
 10762  164B  00E1               	movwf	___fladd@grs
 10763  164C                     i1l2735:
 10764  164C  3000               	movlw	0
 10765  164D  00D1               	movwf	___fladd@b+3
 10766  164E  3000               	movlw	0
 10767  164F  00D0               	movwf	___fladd@b+2
 10768  1650  3000               	movlw	0
 10769  1651  00CF               	movwf	___fladd@b+1
 10770  1652  3000               	movlw	0
 10771  1653  00CE               	movwf	___fladd@b
 10772  1654                     i1l2737:
 10773  1654  085F               	movf	___fladd@aexp,w
 10774  1655  00FF               	movwf	btemp+1
 10775  1656  087F               	movf	btemp+1,w
 10776  1657  00E0               	movwf	___fladd@bexp
 10777  1658  2E82               	goto	i1l774
 10778  1659                     i1l776:
 10779  1659  1C61               	btfss	___fladd@grs,0
 10780  165A  2E5C               	goto	u385_21
 10781  165B  2E5D               	goto	u385_20
 10782  165C                     u385_21:
 10783  165C  2E66               	goto	i1l2741
 10784  165D                     u385_20:
 10785  165D                     i1l2739:
 10786  165D  0861               	movf	___fladd@grs,w
 10787  165E  00D6               	movwf	??___fladd
 10788  165F  1003               	clrc
 10789  1660  0C56               	rrf	??___fladd,w
 10790  1661  3801               	iorlw	1
 10791  1662  00FF               	movwf	btemp+1
 10792  1663  087F               	movf	btemp+1,w
 10793  1664  00E1               	movwf	___fladd@grs
 10794  1665  2E68               	goto	i1l2743
 10795  1666                     i1l2741:
 10796  1666  1003               	clrc
 10797  1667  0CE1               	rrf	___fladd@grs,f
 10798  1668                     i1l2743:
 10799  1668  1C4E               	btfss	___fladd@b,0
 10800  1669  2E6B               	goto	u386_21
 10801  166A  2E6C               	goto	u386_20
 10802  166B                     u386_21:
 10803  166B  2E6D               	goto	i1l2747
 10804  166C                     u386_20:
 10805  166C                     i1l2745:
 10806  166C  17E1               	bsf	___fladd@grs,7
 10807  166D                     i1l2747:
 10808  166D  3001               	movlw	1
 10809  166E  00D6               	movwf	??___fladd
 10810  166F                     u387_25:
 10811  166F  0D51               	rlf	___fladd@b+3,w
 10812  1670  0CD1               	rrf	___fladd@b+3,f
 10813  1671  0CD0               	rrf	___fladd@b+2,f
 10814  1672  0CCF               	rrf	___fladd@b+1,f
 10815  1673  0CCE               	rrf	___fladd@b,f
 10816  1674  0BD6               	decfsz	??___fladd& (0+127),f
 10817  1675  2E6F               	goto	u387_25
 10818  1676                     i1l2749:
 10819  1676  3001               	movlw	1
 10820  1677  00FF               	movwf	btemp+1
 10821  1678  087F               	movf	btemp+1,w
 10822  1679  07E0               	addwf	___fladd@bexp,f
 10823  167A                     i1l2751:
 10824  167A  1283               	bcf	3,5	;RP0=0, select bank0
 10825  167B  1303               	bcf	3,6	;RP1=0, select bank0
 10826  167C  085F               	movf	___fladd@aexp,w
 10827  167D  0260               	subwf	___fladd@bexp,w
 10828  167E  1C03               	skipc
 10829  167F  2E81               	goto	u388_21
 10830  1680  2E82               	goto	u388_20
 10831  1681                     u388_21:
 10832  1681  2E59               	goto	i1l776
 10833  1682                     u388_20:
 10834  1682                     i1l774:
 10835  1682  1B5E               	btfsc	___fladd@signs,6
 10836  1683  2E85               	goto	u389_21
 10837  1684  2E86               	goto	u389_20
 10838  1685                     u389_21:
 10839  1685  2ED1               	goto	i1l2777
 10840  1686                     u389_20:
 10841  1686                     i1l2753:
 10842  1686  0860               	movf	___fladd@bexp,w
 10843  1687  1D03               	btfss	3,2
 10844  1688  2E8A               	goto	u390_21
 10845  1689  2E8B               	goto	u390_20
 10846  168A                     u390_21:
 10847  168A  2E94               	goto	i1l2759
 10848  168B                     u390_20:
 10849  168B                     i1l2755:
 10850  168B  3000               	movlw	0
 10851  168C  00D1               	movwf	?___fladd+3
 10852  168D  3000               	movlw	0
 10853  168E  00D0               	movwf	?___fladd+2
 10854  168F  3000               	movlw	0
 10855  1690  00CF               	movwf	?___fladd+1
 10856  1691  3000               	movlw	0
 10857  1692  00CE               	movwf	?___fladd
 10858  1693  2FFF               	goto	i1l783
 10859  1694                     i1l2759:
 10860  1694  0852               	movf	___fladd@a,w
 10861  1695  07CE               	addwf	___fladd@b,f
 10862  1696  0853               	movf	___fladd@a+1,w
 10863  1697  1103               	clrz
 10864  1698  1803               	skipnc
 10865  1699  3E01               	addlw	1
 10866  169A  1903               	skipnz
 10867  169B  2E9D               	goto	u391_21
 10868  169C  07CF               	addwf	___fladd@b+1,f
 10869  169D                     u391_21:
 10870  169D  0854               	movf	___fladd@a+2,w
 10871  169E  1103               	clrz
 10872  169F  1803               	skipnc
 10873  16A0  3E01               	addlw	1
 10874  16A1  1903               	skipnz
 10875  16A2  2EA4               	goto	u391_22
 10876  16A3  07D0               	addwf	___fladd@b+2,f
 10877  16A4                     u391_22:
 10878  16A4  0855               	movf	___fladd@a+3,w
 10879  16A5  1103               	clrz
 10880  16A6  1803               	skipnc
 10881  16A7  3E01               	addlw	1
 10882  16A8  1903               	skipnz
 10883  16A9  2EAB               	goto	u391_23
 10884  16AA  07D1               	addwf	___fladd@b+3,f
 10885  16AB                     u391_23:
 10886  16AB                     i1l2761:
 10887  16AB  1C51               	btfss	___fladd@b+3,0
 10888  16AC  2EAE               	goto	u392_21
 10889  16AD  2EAF               	goto	u392_20
 10890  16AE                     u392_21:
 10891  16AE  2F85               	goto	i1l2813
 10892  16AF                     u392_20:
 10893  16AF                     i1l2763:
 10894  16AF  1C61               	btfss	___fladd@grs,0
 10895  16B0  2EB2               	goto	u393_21
 10896  16B1  2EB3               	goto	u393_20
 10897  16B2                     u393_21:
 10898  16B2  2EBC               	goto	i1l2767
 10899  16B3                     u393_20:
 10900  16B3                     i1l2765:
 10901  16B3  0861               	movf	___fladd@grs,w
 10902  16B4  00D6               	movwf	??___fladd
 10903  16B5  1003               	clrc
 10904  16B6  0C56               	rrf	??___fladd,w
 10905  16B7  3801               	iorlw	1
 10906  16B8  00FF               	movwf	btemp+1
 10907  16B9  087F               	movf	btemp+1,w
 10908  16BA  00E1               	movwf	___fladd@grs
 10909  16BB  2EBE               	goto	i1l2769
 10910  16BC                     i1l2767:
 10911  16BC  1003               	clrc
 10912  16BD  0CE1               	rrf	___fladd@grs,f
 10913  16BE                     i1l2769:
 10914  16BE  1C4E               	btfss	___fladd@b,0
 10915  16BF  2EC1               	goto	u394_21
 10916  16C0  2EC2               	goto	u394_20
 10917  16C1                     u394_21:
 10918  16C1  2EC3               	goto	i1l2773
 10919  16C2                     u394_20:
 10920  16C2                     i1l2771:
 10921  16C2  17E1               	bsf	___fladd@grs,7
 10922  16C3                     i1l2773:
 10923  16C3  3001               	movlw	1
 10924  16C4  00D6               	movwf	??___fladd
 10925  16C5                     u395_25:
 10926  16C5  0D51               	rlf	___fladd@b+3,w
 10927  16C6  0CD1               	rrf	___fladd@b+3,f
 10928  16C7  0CD0               	rrf	___fladd@b+2,f
 10929  16C8  0CCF               	rrf	___fladd@b+1,f
 10930  16C9  0CCE               	rrf	___fladd@b,f
 10931  16CA  0BD6               	decfsz	??___fladd& (0+127),f
 10932  16CB  2EC5               	goto	u395_25
 10933  16CC                     i1l2775:
 10934  16CC  3001               	movlw	1
 10935  16CD  00FF               	movwf	btemp+1
 10936  16CE  087F               	movf	btemp+1,w
 10937  16CF  07E0               	addwf	___fladd@bexp,f
 10938  16D0  2F85               	goto	i1l2813
 10939  16D1                     i1l2777:
 10940  16D1  0851               	movf	___fladd@b+3,w
 10941  16D2  3A80               	xorlw	128
 10942  16D3  00FF               	movwf	btemp+1
 10943  16D4  0855               	movf	___fladd@a+3,w
 10944  16D5  3A80               	xorlw	128
 10945  16D6  027F               	subwf	btemp+1,w
 10946  16D7  1D03               	skipz
 10947  16D8  2EE3               	goto	u396_23
 10948  16D9  0854               	movf	___fladd@a+2,w
 10949  16DA  0250               	subwf	___fladd@b+2,w
 10950  16DB  1D03               	skipz
 10951  16DC  2EE3               	goto	u396_23
 10952  16DD  0853               	movf	___fladd@a+1,w
 10953  16DE  024F               	subwf	___fladd@b+1,w
 10954  16DF  1D03               	skipz
 10955  16E0  2EE3               	goto	u396_23
 10956  16E1  0852               	movf	___fladd@a,w
 10957  16E2  024E               	subwf	___fladd@b,w
 10958  16E3                     u396_23:
 10959  16E3  1803               	skipnc
 10960  16E4  2EE6               	goto	u396_21
 10961  16E5  2EE7               	goto	u396_20
 10962  16E6                     u396_21:
 10963  16E6  2F3F               	goto	i1l2789
 10964  16E7                     u396_20:
 10965  16E7                     i1l2779:
 10966  16E7  30FF               	movlw	255
 10967  16E8  00D6               	movwf	??___fladd
 10968  16E9  30FF               	movlw	255
 10969  16EA  00D7               	movwf	??___fladd+1
 10970  16EB  30FF               	movlw	255
 10971  16EC  00D8               	movwf	??___fladd+2
 10972  16ED  30FF               	movlw	255
 10973  16EE  00D9               	movwf	??___fladd+3
 10974  16EF  0852               	movf	___fladd@a,w
 10975  16F0  00DA               	movwf	??___fladd+4
 10976  16F1  0853               	movf	___fladd@a+1,w
 10977  16F2  00DB               	movwf	??___fladd+5
 10978  16F3  0854               	movf	___fladd@a+2,w
 10979  16F4  00DC               	movwf	??___fladd+6
 10980  16F5  0855               	movf	___fladd@a+3,w
 10981  16F6  00DD               	movwf	??___fladd+7
 10982  16F7  084E               	movf	___fladd@b,w
 10983  16F8  02DA               	subwf	??___fladd+4,f
 10984  16F9  084F               	movf	___fladd@b+1,w
 10985  16FA  1C03               	skipc
 10986  16FB  0F4F               	incfsz	___fladd@b+1,w
 10987  16FC  2EFE               	goto	u397_21
 10988  16FD  2EFF               	goto	u397_22
 10989  16FE                     u397_21:
 10990  16FE  02DB               	subwf	??___fladd+5,f
 10991  16FF                     u397_22:
 10992  16FF  0850               	movf	___fladd@b+2,w
 10993  1700  1C03               	skipc
 10994  1701  0F50               	incfsz	___fladd@b+2,w
 10995  1702  2F04               	goto	u397_23
 10996  1703  2F05               	goto	u397_24
 10997  1704                     u397_23:
 10998  1704  02DC               	subwf	??___fladd+6,f
 10999  1705                     u397_24:
 11000  1705  0851               	movf	___fladd@b+3,w
 11001  1706  1C03               	skipc
 11002  1707  0F51               	incfsz	___fladd@b+3,w
 11003  1708  2F0A               	goto	u397_25
 11004  1709  2F0B               	goto	u397_26
 11005  170A                     u397_25:
 11006  170A  02DD               	subwf	??___fladd+7,f
 11007  170B                     u397_26:
 11008  170B  085A               	movf	??___fladd+4,w
 11009  170C  07D6               	addwf	??___fladd,f
 11010  170D  085B               	movf	??___fladd+5,w
 11011  170E  1803               	skipnc
 11012  170F  0F5B               	incfsz	??___fladd+5,w
 11013  1710  2F12               	goto	u398_20
 11014  1711  2F13               	goto	u398_21
 11015  1712                     u398_20:
 11016  1712  07D7               	addwf	??___fladd+1,f
 11017  1713                     u398_21:
 11018  1713  085C               	movf	??___fladd+6,w
 11019  1714  1803               	skipnc
 11020  1715  0F5C               	incfsz	??___fladd+6,w
 11021  1716  2F18               	goto	u398_22
 11022  1717  2F19               	goto	u398_23
 11023  1718                     u398_22:
 11024  1718  07D8               	addwf	??___fladd+2,f
 11025  1719                     u398_23:
 11026  1719  085D               	movf	??___fladd+7,w
 11027  171A  1803               	skipnc
 11028  171B  0A5D               	incf	??___fladd+7,w
 11029  171C  07D9               	addwf	??___fladd+3,f
 11030  171D  0859               	movf	??___fladd+3,w
 11031  171E  00D1               	movwf	___fladd@b+3
 11032  171F  0858               	movf	??___fladd+2,w
 11033  1720  00D0               	movwf	___fladd@b+2
 11034  1721  0857               	movf	??___fladd+1,w
 11035  1722  00CF               	movwf	___fladd@b+1
 11036  1723  0856               	movf	??___fladd,w
 11037  1724  00CE               	movwf	___fladd@b
 11038  1725                     i1l2781:
 11039  1725  3080               	movlw	128
 11040  1726  00FF               	movwf	btemp+1
 11041  1727  087F               	movf	btemp+1,w
 11042  1728  06DE               	xorwf	___fladd@signs,f
 11043  1729                     i1l2783:
 11044  1729  09E1               	comf	___fladd@grs,f
 11045  172A  0AE1               	incf	___fladd@grs,f
 11046  172B                     i1l2785:
 11047  172B  0861               	movf	___fladd@grs,w
 11048  172C  1D03               	btfss	3,2
 11049  172D  2F2F               	goto	u399_21
 11050  172E  2F30               	goto	u399_20
 11051  172F                     u399_21:
 11052  172F  2F4D               	goto	i1l791
 11053  1730                     u399_20:
 11054  1730                     i1l2787:
 11055  1730  3001               	movlw	1
 11056  1731  07CE               	addwf	___fladd@b,f
 11057  1732  3000               	movlw	0
 11058  1733  1803               	skipnc
 11059  1734  3001               	movlw	1
 11060  1735  07CF               	addwf	___fladd@b+1,f
 11061  1736  3000               	movlw	0
 11062  1737  1803               	skipnc
 11063  1738  3001               	movlw	1
 11064  1739  07D0               	addwf	___fladd@b+2,f
 11065  173A  3000               	movlw	0
 11066  173B  1803               	skipnc
 11067  173C  3001               	movlw	1
 11068  173D  07D1               	addwf	___fladd@b+3,f
 11069  173E  2F4D               	goto	i1l791
 11070  173F                     i1l2789:
 11071  173F  0852               	movf	___fladd@a,w
 11072  1740  02CE               	subwf	___fladd@b,f
 11073  1741  0853               	movf	___fladd@a+1,w
 11074  1742  1C03               	skipc
 11075  1743  0F53               	incfsz	___fladd@a+1,w
 11076  1744  02CF               	subwf	___fladd@b+1,f
 11077  1745  0854               	movf	___fladd@a+2,w
 11078  1746  1C03               	skipc
 11079  1747  0F54               	incfsz	___fladd@a+2,w
 11080  1748  02D0               	subwf	___fladd@b+2,f
 11081  1749  0855               	movf	___fladd@a+3,w
 11082  174A  1C03               	skipc
 11083  174B  0F55               	incfsz	___fladd@a+3,w
 11084  174C  02D1               	subwf	___fladd@b+3,f
 11085  174D                     i1l791:
 11086  174D  0851               	movf	___fladd@b+3,w
 11087  174E  0450               	iorwf	___fladd@b+2,w
 11088  174F  044F               	iorwf	___fladd@b+1,w
 11089  1750  044E               	iorwf	___fladd@b,w
 11090  1751  1D03               	skipz
 11091  1752  2F54               	goto	u400_21
 11092  1753  2F55               	goto	u400_20
 11093  1754                     u400_21:
 11094  1754  2F81               	goto	i1l2811
 11095  1755                     u400_20:
 11096  1755                     i1l2791:
 11097  1755  0861               	movf	___fladd@grs,w
 11098  1756  1D03               	btfss	3,2
 11099  1757  2F59               	goto	u401_21
 11100  1758  2F5A               	goto	u401_20
 11101  1759                     u401_21:
 11102  1759  2F81               	goto	i1l2811
 11103  175A                     u401_20:
 11104  175A                     i1l2793:
 11105  175A  3000               	movlw	0
 11106  175B  00D1               	movwf	?___fladd+3
 11107  175C  3000               	movlw	0
 11108  175D  00D0               	movwf	?___fladd+2
 11109  175E  3000               	movlw	0
 11110  175F  00CF               	movwf	?___fladd+1
 11111  1760  3000               	movlw	0
 11112  1761  00CE               	movwf	?___fladd
 11113  1762  2FFF               	goto	i1l783
 11114  1763                     i1l2797:
 11115  1763  3001               	movlw	1
 11116  1764  00D6               	movwf	??___fladd
 11117  1765                     u402_25:
 11118  1765  1003               	clrc
 11119  1766  0DCE               	rlf	___fladd@b,f
 11120  1767  0DCF               	rlf	___fladd@b+1,f
 11121  1768  0DD0               	rlf	___fladd@b+2,f
 11122  1769  0DD1               	rlf	___fladd@b+3,f
 11123  176A  0BD6               	decfsz	??___fladd,f
 11124  176B  2F65               	goto	u402_25
 11125  176C                     i1l2799:
 11126  176C  1FE1               	btfss	___fladd@grs,7
 11127  176D  2F6F               	goto	u403_21
 11128  176E  2F70               	goto	u403_20
 11129  176F                     u403_21:
 11130  176F  2F71               	goto	i1l795
 11131  1770                     u403_20:
 11132  1770                     i1l2801:
 11133  1770  144E               	bsf	___fladd@b,0
 11134  1771                     i1l795:
 11135  1771  1C61               	btfss	___fladd@grs,0
 11136  1772  2F74               	goto	u404_21
 11137  1773  2F75               	goto	u404_20
 11138  1774                     u404_21:
 11139  1774  2F78               	goto	i1l2805
 11140  1775                     u404_20:
 11141  1775                     i1l2803:
 11142  1775  1403               	setc
 11143  1776  0DE1               	rlf	___fladd@grs,f
 11144  1777  2F7A               	goto	i1l2807
 11145  1778                     i1l2805:
 11146  1778  1003               	clrc
 11147  1779  0DE1               	rlf	___fladd@grs,f
 11148  177A                     i1l2807:
 11149  177A  0860               	movf	___fladd@bexp,w
 11150  177B  1903               	btfsc	3,2
 11151  177C  2F7E               	goto	u405_21
 11152  177D  2F7F               	goto	u405_20
 11153  177E                     u405_21:
 11154  177E  2F81               	goto	i1l2811
 11155  177F                     u405_20:
 11156  177F                     i1l2809:
 11157  177F  3001               	movlw	1
 11158  1780  02E0               	subwf	___fladd@bexp,f
 11159  1781                     i1l2811:
 11160  1781  1FD0               	btfss	___fladd@b+2,7
 11161  1782  2F84               	goto	u406_21
 11162  1783  2F85               	goto	u406_20
 11163  1784                     u406_21:
 11164  1784  2F63               	goto	i1l2797
 11165  1785                     u406_20:
 11166  1785                     i1l2813:
 11167  1785  01DF               	clrf	___fladd@aexp
 11168  1786                     i1l2815:
 11169  1786  1FE1               	btfss	___fladd@grs,7
 11170  1787  2F89               	goto	u407_21
 11171  1788  2F8A               	goto	u407_20
 11172  1789                     u407_21:
 11173  1789  2F98               	goto	i1l2823
 11174  178A                     u407_20:
 11175  178A                     i1l2817:
 11176  178A  0861               	movf	___fladd@grs,w
 11177  178B  397F               	andlw	127
 11178  178C  1903               	btfsc	3,2
 11179  178D  2F8F               	goto	u408_21
 11180  178E  2F90               	goto	u408_20
 11181  178F                     u408_21:
 11182  178F  2F93               	goto	i1l801
 11183  1790                     u408_20:
 11184  1790                     i1l2819:
 11185  1790  01DF               	clrf	___fladd@aexp
 11186  1791  0ADF               	incf	___fladd@aexp,f
 11187  1792  2F98               	goto	i1l2823
 11188  1793                     i1l801:
 11189  1793  1C4E               	btfss	___fladd@b,0
 11190  1794  2F96               	goto	u409_21
 11191  1795  2F97               	goto	u409_20
 11192  1796                     u409_21:
 11193  1796  2F98               	goto	i1l2823
 11194  1797                     u409_20:
 11195  1797  2F90               	goto	i1l2819
 11196  1798                     i1l2823:
 11197  1798  085F               	movf	___fladd@aexp,w
 11198  1799  1903               	btfsc	3,2
 11199  179A  2F9C               	goto	u410_21
 11200  179B  2F9D               	goto	u410_20
 11201  179C                     u410_21:
 11202  179C  2FD1               	goto	i1l2833
 11203  179D                     u410_20:
 11204  179D                     i1l2825:
 11205  179D  3001               	movlw	1
 11206  179E  07CE               	addwf	___fladd@b,f
 11207  179F  3000               	movlw	0
 11208  17A0  1803               	skipnc
 11209  17A1  3001               	movlw	1
 11210  17A2  07CF               	addwf	___fladd@b+1,f
 11211  17A3  3000               	movlw	0
 11212  17A4  1803               	skipnc
 11213  17A5  3001               	movlw	1
 11214  17A6  07D0               	addwf	___fladd@b+2,f
 11215  17A7  3000               	movlw	0
 11216  17A8  1803               	skipnc
 11217  17A9  3001               	movlw	1
 11218  17AA  07D1               	addwf	___fladd@b+3,f
 11219  17AB                     i1l2827:
 11220  17AB  1C51               	btfss	___fladd@b+3,0
 11221  17AC  2FAE               	goto	u411_21
 11222  17AD  2FAF               	goto	u411_20
 11223  17AE                     u411_21:
 11224  17AE  2FD1               	goto	i1l2833
 11225  17AF                     u411_20:
 11226  17AF                     i1l2829:
 11227  17AF  084E               	movf	___fladd@b,w
 11228  17B0  00D6               	movwf	??___fladd
 11229  17B1  084F               	movf	___fladd@b+1,w
 11230  17B2  00D7               	movwf	??___fladd+1
 11231  17B3  0850               	movf	___fladd@b+2,w
 11232  17B4  00D8               	movwf	??___fladd+2
 11233  17B5  0851               	movf	___fladd@b+3,w
 11234  17B6  00D9               	movwf	??___fladd+3
 11235  17B7  3001               	movlw	1
 11236  17B8  00DA               	movwf	??___fladd+4
 11237  17B9                     u412_25:
 11238  17B9  0D59               	rlf	??___fladd+3,w
 11239  17BA  0CD9               	rrf	??___fladd+3,f
 11240  17BB  0CD8               	rrf	??___fladd+2,f
 11241  17BC  0CD7               	rrf	??___fladd+1,f
 11242  17BD  0CD6               	rrf	??___fladd,f
 11243  17BE                     u412_20:
 11244  17BE  0BDA               	decfsz	??___fladd+4,f
 11245  17BF  2FB9               	goto	u412_25
 11246  17C0  0859               	movf	??___fladd+3,w
 11247  17C1  00D1               	movwf	___fladd@b+3
 11248  17C2  0858               	movf	??___fladd+2,w
 11249  17C3  00D0               	movwf	___fladd@b+2
 11250  17C4  0857               	movf	??___fladd+1,w
 11251  17C5  00CF               	movwf	___fladd@b+1
 11252  17C6  0856               	movf	??___fladd,w
 11253  17C7  00CE               	movwf	___fladd@b
 11254  17C8  0A60               	incf	___fladd@bexp,w
 11255  17C9  1903               	btfsc	3,2
 11256  17CA  2FCC               	goto	u413_21
 11257  17CB  2FCD               	goto	u413_20
 11258  17CC                     u413_21:
 11259  17CC  2FD1               	goto	i1l2833
 11260  17CD                     u413_20:
 11261  17CD                     i1l2831:
 11262  17CD  3001               	movlw	1
 11263  17CE  00FF               	movwf	btemp+1
 11264  17CF  087F               	movf	btemp+1,w
 11265  17D0  07E0               	addwf	___fladd@bexp,f
 11266  17D1                     i1l2833:
 11267  17D1  0A60               	incf	___fladd@bexp,w
 11268  17D2  1903               	btfsc	3,2
 11269  17D3  2FD5               	goto	u414_21
 11270  17D4  2FD6               	goto	u414_20
 11271  17D5                     u414_21:
 11272  17D5  2FDB               	goto	i1l2837
 11273  17D6                     u414_20:
 11274  17D6                     i1l2835:
 11275  17D6  0860               	movf	___fladd@bexp,w
 11276  17D7  1D03               	btfss	3,2
 11277  17D8  2FDA               	goto	u415_21
 11278  17D9  2FDB               	goto	u415_20
 11279  17DA                     u415_21:
 11280  17DA  2FE9               	goto	i1l2843
 11281  17DB                     u415_20:
 11282  17DB                     i1l2837:
 11283  17DB  3000               	movlw	0
 11284  17DC  00D1               	movwf	___fladd@b+3
 11285  17DD  3000               	movlw	0
 11286  17DE  00D0               	movwf	___fladd@b+2
 11287  17DF  3000               	movlw	0
 11288  17E0  00CF               	movwf	___fladd@b+1
 11289  17E1  3000               	movlw	0
 11290  17E2  00CE               	movwf	___fladd@b
 11291  17E3                     i1l2839:
 11292  17E3  0860               	movf	___fladd@bexp,w
 11293  17E4  1D03               	btfss	3,2
 11294  17E5  2FE7               	goto	u416_21
 11295  17E6  2FE8               	goto	u416_20
 11296  17E7                     u416_21:
 11297  17E7  2FE9               	goto	i1l2843
 11298  17E8                     u416_20:
 11299  17E8                     i1l2841:
 11300  17E8  01DE               	clrf	___fladd@signs
 11301  17E9                     i1l2843:
 11302  17E9  1C60               	btfss	___fladd@bexp,0
 11303  17EA  2FEC               	goto	u417_21
 11304  17EB  2FED               	goto	u417_20
 11305  17EC                     u417_21:
 11306  17EC  2FEF               	goto	i1l2847
 11307  17ED                     u417_20:
 11308  17ED                     i1l2845:
 11309  17ED  17D0               	bsf	___fladd@b+2,7
 11310  17EE  2FF3               	goto	i1l812
 11311  17EF                     i1l2847:
 11312  17EF  307F               	movlw	127
 11313  17F0  00FF               	movwf	btemp+1
 11314  17F1  087F               	movf	btemp+1,w
 11315  17F2  05D0               	andwf	___fladd@b+2,f
 11316  17F3                     i1l812:
 11317  17F3  0860               	movf	___fladd@bexp,w
 11318  17F4  00D6               	movwf	??___fladd
 11319  17F5  1003               	clrc
 11320  17F6  0C56               	rrf	??___fladd,w
 11321  17F7  00FF               	movwf	btemp+1
 11322  17F8  087F               	movf	btemp+1,w
 11323  17F9  00D1               	movwf	___fladd@b+3
 11324  17FA                     i1l2849:
 11325  17FA  1FDE               	btfss	___fladd@signs,7
 11326  17FB  2FFD               	goto	u418_21
 11327  17FC  2FFE               	goto	u418_20
 11328  17FD                     u418_21:
 11329  17FD  2FFF               	goto	i1l813
 11330  17FE                     u418_20:
 11331  17FE                     i1l2851:
 11332  17FE  17D1               	bsf	___fladd@b+3,7
 11333  17FF                     i1l813:
 11334  17FF                     i1l783:
 11335  17FF  0008               	return
 11336  1800                     __end_of___fladd:
 11337                           
 11338                           	psect	text44
 11339  18FB                     __ptext44:	
 11340 ;; *************** function ___flneg *****************
 11341 ;; Defined at:
 11342 ;;		line 15 in file "/opt/microchip/xc8/v2.20/pic/sources/c90/common/flneg.c"
 11343 ;; Parameters:    Size  Location     Type
 11344 ;;  f1              4    0[COMMON] unsigned char 
 11345 ;; Auto vars:     Size  Location     Type
 11346 ;;		None
 11347 ;; Return value:  Size  Location     Type
 11348 ;;                  4    0[COMMON] unsigned char 
 11349 ;; Registers used:
 11350 ;;		wreg
 11351 ;; Tracked objects:
 11352 ;;		On entry : 0/0
 11353 ;;		On exit  : 0/0
 11354 ;;		Unchanged: 0/0
 11355 ;; Data sizes:     COMMON   BANK0   BANK1   BANK3   BANK2
 11356 ;;      Params:         4       0       0       0       0
 11357 ;;      Locals:         0       0       0       0       0
 11358 ;;      Temps:          0       0       0       0       0
 11359 ;;      Totals:         4       0       0       0       0
 11360 ;;Total ram usage:        4 bytes
 11361 ;; Hardware stack levels used:    1
 11362 ;; This function calls:
 11363 ;;		Nothing
 11364 ;; This function is called by:
 11365 ;;		_sprintf
 11366 ;; This function uses a non-reentrant model
 11367 ;;
 11368                           
 11369                           
 11370                           ;psect for function ___flneg
 11371  18FB                     ___flneg:
 11372  18FB                     i1l3259:	
 11373                           ;incstack = 0
 11374                           ; Regs used in ___flneg: [wreg]
 11375                           
 11376  18FB  0873               	movf	___flneg@f1+3,w
 11377  18FC  0472               	iorwf	___flneg@f1+2,w
 11378  18FD  0471               	iorwf	___flneg@f1+1,w
 11379  18FE  0470               	iorwf	___flneg@f1,w
 11380  18FF  1903               	skipnz
 11381  1900  2902               	goto	u540_21
 11382  1901  2903               	goto	u540_20
 11383  1902                     u540_21:
 11384  1902  2905               	goto	i1l3263
 11385  1903                     u540_20:
 11386  1903                     i1l3261:
 11387  1903  3080               	movlw	128
 11388  1904  06F3               	xorwf	___flneg@f1+3,f
 11389  1905                     i1l3263:
 11390  1905                     i1l642:
 11391  1905  0008               	return
 11392  1906                     __end_of___flneg:
 11393                           
 11394                           	psect	text45
 11395  1F5E                     __ptext45:	
 11396 ;; *************** function ___flge *****************
 11397 ;; Defined at:
 11398 ;;		line 4 in file "/opt/microchip/xc8/v2.20/pic/sources/c90/common/flge.c"
 11399 ;; Parameters:    Size  Location     Type
 11400 ;;  ff1             4    0[COMMON] unsigned char 
 11401 ;;  ff2             4    4[COMMON] unsigned char 
 11402 ;; Auto vars:     Size  Location     Type
 11403 ;;		None
 11404 ;; Return value:  Size  Location     Type
 11405 ;;		None               void
 11406 ;; Registers used:
 11407 ;;		wreg, status,2, status,0
 11408 ;; Tracked objects:
 11409 ;;		On entry : 0/0
 11410 ;;		On exit  : 0/0
 11411 ;;		Unchanged: 0/0
 11412 ;; Data sizes:     COMMON   BANK0   BANK1   BANK3   BANK2
 11413 ;;      Params:         8       0       0       0       0
 11414 ;;      Locals:         0       0       0       0       0
 11415 ;;      Temps:          4       0       0       0       0
 11416 ;;      Totals:        12       0       0       0       0
 11417 ;;Total ram usage:       12 bytes
 11418 ;; Hardware stack levels used:    1
 11419 ;; This function calls:
 11420 ;;		Nothing
 11421 ;; This function is called by:
 11422 ;;		_sprintf
 11423 ;; This function uses a non-reentrant model
 11424 ;;
 11425                           
 11426                           
 11427                           ;psect for function ___flge
 11428  1F5E                     ___flge:
 11429  1F5E                     i1l3239:	
 11430                           ;incstack = 0
 11431                           ; Regs used in ___flge: [wreg+status,2+status,0]
 11432                           
 11433  1F5E  3000               	movlw	0
 11434  1F5F  0570               	andwf	___flge@ff1,w
 11435  1F60  00F8               	movwf	??___flge
 11436  1F61  3000               	movlw	0
 11437  1F62  0571               	andwf	___flge@ff1+1,w
 11438  1F63  00F9               	movwf	??___flge+1
 11439  1F64  3080               	movlw	128
 11440  1F65  0572               	andwf	___flge@ff1+2,w
 11441  1F66  00FA               	movwf	??___flge+2
 11442  1F67  307F               	movlw	127
 11443  1F68  0573               	andwf	___flge@ff1+3,w
 11444  1F69  00FB               	movwf	??___flge+3
 11445  1F6A  087B               	movf	??___flge+3,w
 11446  1F6B  047A               	iorwf	??___flge+2,w
 11447  1F6C  0479               	iorwf	??___flge+1,w
 11448  1F6D  0478               	iorwf	??___flge,w
 11449  1F6E  1D03               	skipz
 11450  1F6F  2F71               	goto	u533_21
 11451  1F70  2F72               	goto	u533_20
 11452  1F71                     u533_21:
 11453  1F71  2F7A               	goto	i1l634
 11454  1F72                     u533_20:
 11455  1F72                     i1l3241:
 11456  1F72  3000               	movlw	0
 11457  1F73  00F3               	movwf	___flge@ff1+3
 11458  1F74  3000               	movlw	0
 11459  1F75  00F2               	movwf	___flge@ff1+2
 11460  1F76  3000               	movlw	0
 11461  1F77  00F1               	movwf	___flge@ff1+1
 11462  1F78  3000               	movlw	0
 11463  1F79  00F0               	movwf	___flge@ff1
 11464  1F7A                     i1l634:
 11465  1F7A  3000               	movlw	0
 11466  1F7B  0574               	andwf	___flge@ff2,w
 11467  1F7C  00F8               	movwf	??___flge
 11468  1F7D  3000               	movlw	0
 11469  1F7E  0575               	andwf	___flge@ff2+1,w
 11470  1F7F  00F9               	movwf	??___flge+1
 11471  1F80  3080               	movlw	128
 11472  1F81  0576               	andwf	___flge@ff2+2,w
 11473  1F82  00FA               	movwf	??___flge+2
 11474  1F83  307F               	movlw	127
 11475  1F84  0577               	andwf	___flge@ff2+3,w
 11476  1F85  00FB               	movwf	??___flge+3
 11477  1F86  087B               	movf	??___flge+3,w
 11478  1F87  047A               	iorwf	??___flge+2,w
 11479  1F88  0479               	iorwf	??___flge+1,w
 11480  1F89  0478               	iorwf	??___flge,w
 11481  1F8A  1D03               	skipz
 11482  1F8B  2F8D               	goto	u534_21
 11483  1F8C  2F8E               	goto	u534_20
 11484  1F8D                     u534_21:
 11485  1F8D  2F96               	goto	i1l3245
 11486  1F8E                     u534_20:
 11487  1F8E                     i1l3243:
 11488  1F8E  3000               	movlw	0
 11489  1F8F  00F7               	movwf	___flge@ff2+3
 11490  1F90  3000               	movlw	0
 11491  1F91  00F6               	movwf	___flge@ff2+2
 11492  1F92  3000               	movlw	0
 11493  1F93  00F5               	movwf	___flge@ff2+1
 11494  1F94  3000               	movlw	0
 11495  1F95  00F4               	movwf	___flge@ff2
 11496  1F96                     i1l3245:
 11497  1F96  1FF3               	btfss	___flge@ff1+3,7
 11498  1F97  2F99               	goto	u535_21
 11499  1F98  2F9A               	goto	u535_20
 11500  1F99                     u535_21:
 11501  1F99  2FBE               	goto	i1l3249
 11502  1F9A                     u535_20:
 11503  1F9A                     i1l3247:
 11504  1F9A  3000               	movlw	0
 11505  1F9B  00F8               	movwf	??___flge
 11506  1F9C  3000               	movlw	0
 11507  1F9D  00F9               	movwf	??___flge+1
 11508  1F9E  3000               	movlw	0
 11509  1F9F  00FA               	movwf	??___flge+2
 11510  1FA0  3080               	movlw	128
 11511  1FA1  00FB               	movwf	??___flge+3
 11512  1FA2  0870               	movf	___flge@ff1,w
 11513  1FA3  02F8               	subwf	??___flge,f
 11514  1FA4  0871               	movf	___flge@ff1+1,w
 11515  1FA5  1C03               	skipc
 11516  1FA6  0F71               	incfsz	___flge@ff1+1,w
 11517  1FA7  2FA9               	goto	u536_21
 11518  1FA8  2FAA               	goto	u536_22
 11519  1FA9                     u536_21:
 11520  1FA9  02F9               	subwf	??___flge+1,f
 11521  1FAA                     u536_22:
 11522  1FAA  0872               	movf	___flge@ff1+2,w
 11523  1FAB  1C03               	skipc
 11524  1FAC  0F72               	incfsz	___flge@ff1+2,w
 11525  1FAD  2FAF               	goto	u536_23
 11526  1FAE  2FB0               	goto	u536_24
 11527  1FAF                     u536_23:
 11528  1FAF  02FA               	subwf	??___flge+2,f
 11529  1FB0                     u536_24:
 11530  1FB0  0873               	movf	___flge@ff1+3,w
 11531  1FB1  1C03               	skipc
 11532  1FB2  0F73               	incfsz	___flge@ff1+3,w
 11533  1FB3  2FB5               	goto	u536_25
 11534  1FB4  2FB6               	goto	u536_26
 11535  1FB5                     u536_25:
 11536  1FB5  02FB               	subwf	??___flge+3,f
 11537  1FB6                     u536_26:
 11538  1FB6  087B               	movf	??___flge+3,w
 11539  1FB7  00F3               	movwf	___flge@ff1+3
 11540  1FB8  087A               	movf	??___flge+2,w
 11541  1FB9  00F2               	movwf	___flge@ff1+2
 11542  1FBA  0879               	movf	??___flge+1,w
 11543  1FBB  00F1               	movwf	___flge@ff1+1
 11544  1FBC  0878               	movf	??___flge,w
 11545  1FBD  00F0               	movwf	___flge@ff1
 11546  1FBE                     i1l3249:
 11547  1FBE  1FF7               	btfss	___flge@ff2+3,7
 11548  1FBF  2FC1               	goto	u537_21
 11549  1FC0  2FC2               	goto	u537_20
 11550  1FC1                     u537_21:
 11551  1FC1  2FE6               	goto	i1l637
 11552  1FC2                     u537_20:
 11553  1FC2                     i1l3251:
 11554  1FC2  3000               	movlw	0
 11555  1FC3  00F8               	movwf	??___flge
 11556  1FC4  3000               	movlw	0
 11557  1FC5  00F9               	movwf	??___flge+1
 11558  1FC6  3000               	movlw	0
 11559  1FC7  00FA               	movwf	??___flge+2
 11560  1FC8  3080               	movlw	128
 11561  1FC9  00FB               	movwf	??___flge+3
 11562  1FCA  0874               	movf	___flge@ff2,w
 11563  1FCB  02F8               	subwf	??___flge,f
 11564  1FCC  0875               	movf	___flge@ff2+1,w
 11565  1FCD  1C03               	skipc
 11566  1FCE  0F75               	incfsz	___flge@ff2+1,w
 11567  1FCF  2FD1               	goto	u538_21
 11568  1FD0  2FD2               	goto	u538_22
 11569  1FD1                     u538_21:
 11570  1FD1  02F9               	subwf	??___flge+1,f
 11571  1FD2                     u538_22:
 11572  1FD2  0876               	movf	___flge@ff2+2,w
 11573  1FD3  1C03               	skipc
 11574  1FD4  0F76               	incfsz	___flge@ff2+2,w
 11575  1FD5  2FD7               	goto	u538_23
 11576  1FD6  2FD8               	goto	u538_24
 11577  1FD7                     u538_23:
 11578  1FD7  02FA               	subwf	??___flge+2,f
 11579  1FD8                     u538_24:
 11580  1FD8  0877               	movf	___flge@ff2+3,w
 11581  1FD9  1C03               	skipc
 11582  1FDA  0F77               	incfsz	___flge@ff2+3,w
 11583  1FDB  2FDD               	goto	u538_25
 11584  1FDC  2FDE               	goto	u538_26
 11585  1FDD                     u538_25:
 11586  1FDD  02FB               	subwf	??___flge+3,f
 11587  1FDE                     u538_26:
 11588  1FDE  087B               	movf	??___flge+3,w
 11589  1FDF  00F7               	movwf	___flge@ff2+3
 11590  1FE0  087A               	movf	??___flge+2,w
 11591  1FE1  00F6               	movwf	___flge@ff2+2
 11592  1FE2  0879               	movf	??___flge+1,w
 11593  1FE3  00F5               	movwf	___flge@ff2+1
 11594  1FE4  0878               	movf	??___flge,w
 11595  1FE5  00F4               	movwf	___flge@ff2
 11596  1FE6                     i1l637:
 11597  1FE6  3080               	movlw	128
 11598  1FE7  06F3               	xorwf	___flge@ff1+3,f
 11599  1FE8  3080               	movlw	128
 11600  1FE9  06F7               	xorwf	___flge@ff2+3,f
 11601  1FEA  0877               	movf	___flge@ff2+3,w
 11602  1FEB  0273               	subwf	___flge@ff1+3,w
 11603  1FEC  1D03               	skipz
 11604  1FED  2FF8               	goto	u539_25
 11605  1FEE  0876               	movf	___flge@ff2+2,w
 11606  1FEF  0272               	subwf	___flge@ff1+2,w
 11607  1FF0  1D03               	skipz
 11608  1FF1  2FF8               	goto	u539_25
 11609  1FF2  0875               	movf	___flge@ff2+1,w
 11610  1FF3  0271               	subwf	___flge@ff1+1,w
 11611  1FF4  1D03               	skipz
 11612  1FF5  2FF8               	goto	u539_25
 11613  1FF6  0874               	movf	___flge@ff2,w
 11614  1FF7  0270               	subwf	___flge@ff1,w
 11615  1FF8                     u539_25:
 11616  1FF8  1803               	skipnc
 11617  1FF9  2FFB               	goto	u539_21
 11618  1FFA  2FFC               	goto	u539_20
 11619  1FFB                     u539_21:
 11620  1FFB  2FFE               	goto	i1l3255
 11621  1FFC                     u539_20:
 11622  1FFC                     i1l3253:
 11623  1FFC  1003               	clrc
 11624  1FFD  2FFF               	goto	i1l638
 11625  1FFE                     i1l3255:
 11626  1FFE  1403               	setc
 11627  1FFF                     i1l638:
 11628  1FFF  0008               	return
 11629  2000                     __end_of___flge:
 11630                           
 11631                           	psect	text46
 11632  1B9D                     __ptext46:	
 11633 ;; *************** function ___fleq *****************
 11634 ;; Defined at:
 11635 ;;		line 4 in file "/opt/microchip/xc8/v2.20/pic/sources/c90/common/fleq.c"
 11636 ;; Parameters:    Size  Location     Type
 11637 ;;  ff1             4    0[COMMON] unsigned char 
 11638 ;;  ff2             4    4[COMMON] unsigned char 
 11639 ;; Auto vars:     Size  Location     Type
 11640 ;;		None
 11641 ;; Return value:  Size  Location     Type
 11642 ;;		None               void
 11643 ;; Registers used:
 11644 ;;		wreg, status,2, status,0
 11645 ;; Tracked objects:
 11646 ;;		On entry : 0/0
 11647 ;;		On exit  : 0/0
 11648 ;;		Unchanged: 0/0
 11649 ;; Data sizes:     COMMON   BANK0   BANK1   BANK3   BANK2
 11650 ;;      Params:         8       0       0       0       0
 11651 ;;      Locals:         0       0       0       0       0
 11652 ;;      Temps:          4       0       0       0       0
 11653 ;;      Totals:        12       0       0       0       0
 11654 ;;Total ram usage:       12 bytes
 11655 ;; Hardware stack levels used:    1
 11656 ;; This function calls:
 11657 ;;		Nothing
 11658 ;; This function is called by:
 11659 ;;		_sprintf
 11660 ;; This function uses a non-reentrant model
 11661 ;;
 11662                           
 11663                           
 11664                           ;psect for function ___fleq
 11665  1B9D                     ___fleq:
 11666  1B9D                     i1l3227:	
 11667                           ;incstack = 0
 11668                           ; Regs used in ___fleq: [wreg+status,2+status,0]
 11669                           
 11670  1B9D  3000               	movlw	0
 11671  1B9E  0570               	andwf	___fleq@ff1,w
 11672  1B9F  00F8               	movwf	??___fleq
 11673  1BA0  3000               	movlw	0
 11674  1BA1  0571               	andwf	___fleq@ff1+1,w
 11675  1BA2  00F9               	movwf	??___fleq+1
 11676  1BA3  3080               	movlw	128
 11677  1BA4  0572               	andwf	___fleq@ff1+2,w
 11678  1BA5  00FA               	movwf	??___fleq+2
 11679  1BA6  307F               	movlw	127
 11680  1BA7  0573               	andwf	___fleq@ff1+3,w
 11681  1BA8  00FB               	movwf	??___fleq+3
 11682  1BA9  087B               	movf	??___fleq+3,w
 11683  1BAA  047A               	iorwf	??___fleq+2,w
 11684  1BAB  0479               	iorwf	??___fleq+1,w
 11685  1BAC  0478               	iorwf	??___fleq,w
 11686  1BAD  1D03               	skipz
 11687  1BAE  2BB0               	goto	u530_21
 11688  1BAF  2BB1               	goto	u530_20
 11689  1BB0                     u530_21:
 11690  1BB0  2BB9               	goto	i1l629
 11691  1BB1                     u530_20:
 11692  1BB1                     i1l3229:
 11693  1BB1  3000               	movlw	0
 11694  1BB2  00F3               	movwf	___fleq@ff1+3
 11695  1BB3  3000               	movlw	0
 11696  1BB4  00F2               	movwf	___fleq@ff1+2
 11697  1BB5  3000               	movlw	0
 11698  1BB6  00F1               	movwf	___fleq@ff1+1
 11699  1BB7  3000               	movlw	0
 11700  1BB8  00F0               	movwf	___fleq@ff1
 11701  1BB9                     i1l629:
 11702  1BB9  3000               	movlw	0
 11703  1BBA  0574               	andwf	___fleq@ff2,w
 11704  1BBB  00F8               	movwf	??___fleq
 11705  1BBC  3000               	movlw	0
 11706  1BBD  0575               	andwf	___fleq@ff2+1,w
 11707  1BBE  00F9               	movwf	??___fleq+1
 11708  1BBF  3080               	movlw	128
 11709  1BC0  0576               	andwf	___fleq@ff2+2,w
 11710  1BC1  00FA               	movwf	??___fleq+2
 11711  1BC2  307F               	movlw	127
 11712  1BC3  0577               	andwf	___fleq@ff2+3,w
 11713  1BC4  00FB               	movwf	??___fleq+3
 11714  1BC5  087B               	movf	??___fleq+3,w
 11715  1BC6  047A               	iorwf	??___fleq+2,w
 11716  1BC7  0479               	iorwf	??___fleq+1,w
 11717  1BC8  0478               	iorwf	??___fleq,w
 11718  1BC9  1D03               	skipz
 11719  1BCA  2BCC               	goto	u531_21
 11720  1BCB  2BCD               	goto	u531_20
 11721  1BCC                     u531_21:
 11722  1BCC  2BD5               	goto	i1l630
 11723  1BCD                     u531_20:
 11724  1BCD                     i1l3231:
 11725  1BCD  3000               	movlw	0
 11726  1BCE  00F7               	movwf	___fleq@ff2+3
 11727  1BCF  3000               	movlw	0
 11728  1BD0  00F6               	movwf	___fleq@ff2+2
 11729  1BD1  3000               	movlw	0
 11730  1BD2  00F5               	movwf	___fleq@ff2+1
 11731  1BD3  3000               	movlw	0
 11732  1BD4  00F4               	movwf	___fleq@ff2
 11733  1BD5                     i1l630:
 11734  1BD5  0877               	movf	___fleq@ff2+3,w
 11735  1BD6  0673               	xorwf	___fleq@ff1+3,w
 11736  1BD7  1D03               	skipz
 11737  1BD8  2BE3               	goto	u532_25
 11738  1BD9  0876               	movf	___fleq@ff2+2,w
 11739  1BDA  0672               	xorwf	___fleq@ff1+2,w
 11740  1BDB  1D03               	skipz
 11741  1BDC  2BE3               	goto	u532_25
 11742  1BDD  0875               	movf	___fleq@ff2+1,w
 11743  1BDE  0671               	xorwf	___fleq@ff1+1,w
 11744  1BDF  1D03               	skipz
 11745  1BE0  2BE3               	goto	u532_25
 11746  1BE1  0874               	movf	___fleq@ff2,w
 11747  1BE2  0670               	xorwf	___fleq@ff1,w
 11748  1BE3                     u532_25:
 11749  1BE3  1903               	skipnz
 11750  1BE4  2BE6               	goto	u532_21
 11751  1BE5  2BE7               	goto	u532_20
 11752  1BE6                     u532_21:
 11753  1BE6  2BE9               	goto	i1l3235
 11754  1BE7                     u532_20:
 11755  1BE7                     i1l3233:
 11756  1BE7  1003               	clrc
 11757  1BE8  2BEA               	goto	i1l631
 11758  1BE9                     i1l3235:
 11759  1BE9  1403               	setc
 11760  1BEA                     i1l631:
 11761  1BEA  0008               	return
 11762  1BEB                     __end_of___fleq:
 11763                           
 11764                           	psect	text47
 11765  19AD                     __ptext47:	
 11766 ;; *************** function _io_sw_read *****************
 11767 ;; Defined at:
 11768 ;;		line 49 in file "io.c"
 11769 ;; Parameters:    Size  Location     Type
 11770 ;;  port            1    wreg     unsigned char 
 11771 ;; Auto vars:     Size  Location     Type
 11772 ;;  port            1    1[COMMON] unsigned char 
 11773 ;;  swNew           1    2[COMMON] unsigned char 
 11774 ;; Return value:  Size  Location     Type
 11775 ;;                  1    wreg      void 
 11776 ;; Registers used:
 11777 ;;		wreg, status,2, status,0, btemp+1
 11778 ;; Tracked objects:
 11779 ;;		On entry : 0/0
 11780 ;;		On exit  : 0/0
 11781 ;;		Unchanged: 0/0
 11782 ;; Data sizes:     COMMON   BANK0   BANK1   BANK3   BANK2
 11783 ;;      Params:         0       0       0       0       0
 11784 ;;      Locals:         2       0       0       0       0
 11785 ;;      Temps:          1       0       0       0       0
 11786 ;;      Totals:         3       0       0       0       0
 11787 ;;Total ram usage:        3 bytes
 11788 ;; Hardware stack levels used:    1
 11789 ;; This function calls:
 11790 ;;		Nothing
 11791 ;; This function is called by:
 11792 ;;		_isr
 11793 ;; This function uses a non-reentrant model
 11794 ;;
 11795                           
 11796                           
 11797                           ;psect for function _io_sw_read
 11798  19AD                     _io_sw_read:
 11799                           
 11800                           ;incstack = 0
 11801                           ; Regs used in _io_sw_read: [wreg+status,2+status,0+btemp+1]
 11802                           ;io_sw_read@port stored from wreg
 11803  19AD  00F1               	movwf	io_sw_read@port
 11804  19AE                     i1l3965:
 11805                           
 11806                           ;io.c: 50: static char swOld = 1;;io.c: 51: char swNew = (port & 0b01000000) >> 6;
 11807  19AE  0871               	movf	io_sw_read@port,w
 11808  19AF  00F0               	movwf	??_io_sw_read
 11809  19B0  3006               	movlw	6
 11810  19B1                     u653_25:
 11811  19B1  1003               	clrc
 11812  19B2  0CF0               	rrf	??_io_sw_read,f
 11813  19B3  3EFF               	addlw	-1
 11814  19B4  1D03               	skipz
 11815  19B5  29B1               	goto	u653_25
 11816  19B6  0870               	movf	??_io_sw_read,w
 11817  19B7  3901               	andlw	1
 11818  19B8  00FF               	movwf	btemp+1
 11819  19B9  087F               	movf	btemp+1,w
 11820  19BA  00F2               	movwf	io_sw_read@swNew
 11821  19BB                     i1l3967:
 11822                           
 11823                           ;io.c: 52: if (swNew == 0 && swOld == 1) {
 11824  19BB  0872               	movf	io_sw_read@swNew,w
 11825  19BC  1D03               	btfss	3,2
 11826  19BD  29BF               	goto	u654_21
 11827  19BE  29C0               	goto	u654_20
 11828  19BF                     u654_21:
 11829  19BF  29C8               	goto	i1l3973
 11830  19C0                     u654_20:
 11831  19C0                     i1l3969:
 11832  19C0  1683               	bsf	3,5	;RP0=1, select bank1
 11833  19C1  1303               	bcf	3,6	;RP1=0, select bank1
 11834  19C2  036F               	decf	io_sw_read@swOld^(0+128),w
 11835  19C3  1D03               	btfss	3,2
 11836  19C4  29C6               	goto	u655_21
 11837  19C5  29C7               	goto	u655_20
 11838  19C6                     u655_21:
 11839  19C6  29C8               	goto	i1l3973
 11840  19C7                     u655_20:
 11841  19C7                     i1l3971:
 11842                           
 11843                           ;io.c: 53: swPressed = 1;
 11844  19C7  146E               	bsf	(_swPressed/(0+8))^(0+128),_swPressed& (0+7)	;volatile
 11845  19C8                     i1l3973:
 11846                           
 11847                           ;io.c: 54: };io.c: 55: swOld = swNew;
 11848  19C8  0872               	movf	io_sw_read@swNew,w
 11849  19C9  00FF               	movwf	btemp+1
 11850  19CA  087F               	movf	btemp+1,w
 11851  19CB  1683               	bsf	3,5	;RP0=1, select bank1
 11852  19CC  1303               	bcf	3,6	;RP1=0, select bank1
 11853  19CD  00EF               	movwf	io_sw_read@swOld^(0+128)
 11854  19CE                     i1l235:
 11855  19CE  0008               	return
 11856  19CF                     __end_of_io_sw_read:
 11857                           
 11858                           	psect	text48
 11859  196F                     __ptext48:	
 11860 ;; *************** function _debug_led_toggle *****************
 11861 ;; Defined at:
 11862 ;;		line 23 in file "debug.c"
 11863 ;; Parameters:    Size  Location     Type
 11864 ;;  led             1    wreg     unsigned char 
 11865 ;; Auto vars:     Size  Location     Type
 11866 ;;  led             1    0[COMMON] unsigned char 
 11867 ;; Return value:  Size  Location     Type
 11868 ;;                  1    wreg      void 
 11869 ;; Registers used:
 11870 ;;		wreg, fsr0l, fsr0h, status,2, status,0
 11871 ;; Tracked objects:
 11872 ;;		On entry : 0/0
 11873 ;;		On exit  : 0/0
 11874 ;;		Unchanged: 0/0
 11875 ;; Data sizes:     COMMON   BANK0   BANK1   BANK3   BANK2
 11876 ;;      Params:         0       0       0       0       0
 11877 ;;      Locals:         1       0       0       0       0
 11878 ;;      Temps:          0       0       0       0       0
 11879 ;;      Totals:         1       0       0       0       0
 11880 ;;Total ram usage:        1 bytes
 11881 ;; Hardware stack levels used:    1
 11882 ;; This function calls:
 11883 ;;		Nothing
 11884 ;; This function is called by:
 11885 ;;		_isr
 11886 ;; This function uses a non-reentrant model
 11887 ;;
 11888                           
 11889                           
 11890                           ;psect for function _debug_led_toggle
 11891  196F                     _debug_led_toggle:
 11892                           
 11893                           ;incstack = 0
 11894                           ; Regs used in _debug_led_toggle: [wreg-fsr0h+status,2+status,0]
 11895                           ;debug_led_toggle@led stored from wreg
 11896  196F  00F0               	movwf	debug_led_toggle@led
 11897  1970                     i1l3651:
 11898                           
 11899                           ;debug.c: 24: switch (led) {
 11900  1970  2980               	goto	i1l3655
 11901  1971                     i1l262:	
 11902                           ;debug.c: 25: case 1:
 11903                           
 11904                           
 11905                           ;debug.c: 26: RA4 = ~RA4;
 11906  1971  3010               	movlw	16
 11907  1972  1283               	bcf	3,5	;RP0=0, select bank0
 11908  1973  1303               	bcf	3,6	;RP1=0, select bank0
 11909  1974  0685               	xorwf	5,f
 11910                           
 11911                           ;debug.c: 27: break;
 11912  1975  298B               	goto	i1l267
 11913  1976                     i1l264:	
 11914                           ;debug.c: 28: case 2:
 11915                           
 11916                           
 11917                           ;debug.c: 29: RB2 = ~RB2;
 11918  1976  3004               	movlw	4
 11919  1977  1283               	bcf	3,5	;RP0=0, select bank0
 11920  1978  1303               	bcf	3,6	;RP1=0, select bank0
 11921  1979  0686               	xorwf	6,f
 11922                           
 11923                           ;debug.c: 30: break;
 11924  197A  298B               	goto	i1l267
 11925  197B                     i1l265:	
 11926                           ;debug.c: 31: case 3:
 11927                           
 11928                           
 11929                           ;debug.c: 32: RB1 = ~RB1;
 11930  197B  3002               	movlw	2
 11931  197C  1283               	bcf	3,5	;RP0=0, select bank0
 11932  197D  1303               	bcf	3,6	;RP1=0, select bank0
 11933  197E  0686               	xorwf	6,f
 11934                           
 11935                           ;debug.c: 33: break;
 11936  197F  298B               	goto	i1l267
 11937  1980                     i1l3655:
 11938  1980  0870               	movf	debug_led_toggle@led,w
 11939                           
 11940                           ; Switch size 1, requested type "simple"
 11941                           ; Number of cases is 3, Range of values is 1 to 3
 11942                           ; switch strategies available:
 11943                           ; Name         Instructions Cycles
 11944                           ; simple_byte           10     6 (average)
 11945                           ; direct_byte           20    11 (fixed)
 11946                           ; jumptable            263     9 (fixed)
 11947                           ;	Chosen strategy is simple_byte
 11948  1981  3A01               	xorlw	1	; case 1
 11949  1982  1903               	skipnz
 11950  1983  2971               	goto	i1l262
 11951  1984  3A03               	xorlw	3	; case 2
 11952  1985  1903               	skipnz
 11953  1986  2976               	goto	i1l264
 11954  1987  3A01               	xorlw	1	; case 3
 11955  1988  1903               	skipnz
 11956  1989  297B               	goto	i1l265
 11957  198A  298B               	goto	i1l267
 11958  198B                     i1l267:
 11959  198B  0008               	return
 11960  198C                     __end_of_debug_led_toggle:
 11961                           
 11962                           	psect	text49
 11963  1190                     __ptext49:	
 11964 ;; *************** function ___fldiv *****************
 11965 ;; Defined at:
 11966 ;;		line 8 in file "/opt/microchip/xc8/v2.20/pic/sources/c90/common/sprcdiv.c"
 11967 ;; Parameters:    Size  Location     Type
 11968 ;;  a               4    0[BANK0 ] void 
 11969 ;;  b               4    4[BANK0 ] void 
 11970 ;; Auto vars:     Size  Location     Type
 11971 ;;  grs             4   20[BANK0 ] unsigned long 
 11972 ;;  rem             4   13[BANK0 ] unsigned long 
 11973 ;;  new_exp         2   18[BANK0 ] int 
 11974 ;;  aexp            1   25[BANK0 ] unsigned char 
 11975 ;;  bexp            1   24[BANK0 ] unsigned char 
 11976 ;;  sign            1   17[BANK0 ] unsigned char 
 11977 ;; Return value:  Size  Location     Type
 11978 ;;                  4    0[BANK0 ] unsigned char 
 11979 ;; Registers used:
 11980 ;;		wreg, status,2, status,0, btemp+1
 11981 ;; Tracked objects:
 11982 ;;		On entry : 0/0
 11983 ;;		On exit  : 0/0
 11984 ;;		Unchanged: 0/0
 11985 ;; Data sizes:     COMMON   BANK0   BANK1   BANK3   BANK2
 11986 ;;      Params:         0       8       0       0       0
 11987 ;;      Locals:         0      13       0       0       0
 11988 ;;      Temps:          0       5       0       0       0
 11989 ;;      Totals:         0      26       0       0       0
 11990 ;;Total ram usage:       26 bytes
 11991 ;; Hardware stack levels used:    1
 11992 ;; This function calls:
 11993 ;;		Nothing
 11994 ;; This function is called by:
 11995 ;;		_isr
 11996 ;; This function uses a non-reentrant model
 11997 ;;
 11998                           
 11999                           
 12000                           ;psect for function ___fldiv
 12001  1190                     ___fldiv:
 12002  1190                     i1l3723:	
 12003                           ;incstack = 0
 12004                           ; Regs used in ___fldiv: [wreg+status,2+status,0+btemp+1]
 12005                           
 12006  1190  1283               	bcf	3,5	;RP0=0, select bank0
 12007  1191  1303               	bcf	3,6	;RP1=0, select bank0
 12008  1192  0827               	movf	___fldiv@b+3,w
 12009  1193  3980               	andlw	128
 12010  1194  00FF               	movwf	btemp+1
 12011  1195  087F               	movf	btemp+1,w
 12012  1196  00B1               	movwf	___fldiv@sign
 12013  1197                     i1l3725:
 12014  1197  0827               	movf	___fldiv@b+3,w
 12015  1198  00A8               	movwf	??___fldiv
 12016  1199  0728               	addwf	??___fldiv,w
 12017  119A  00FF               	movwf	btemp+1
 12018  119B  087F               	movf	btemp+1,w
 12019  119C  00B8               	movwf	___fldiv@bexp
 12020  119D                     i1l3727:
 12021  119D  1FA6               	btfss	___fldiv@b+2,7
 12022  119E  29A0               	goto	u615_21
 12023  119F  29A1               	goto	u615_20
 12024  11A0                     u615_21:
 12025  11A0  29A2               	goto	i1l3731
 12026  11A1                     u615_20:
 12027  11A1                     i1l3729:
 12028  11A1  1438               	bsf	___fldiv@bexp,0
 12029  11A2                     i1l3731:
 12030  11A2  0838               	movf	___fldiv@bexp,w
 12031  11A3  1903               	btfsc	3,2
 12032  11A4  29A6               	goto	u616_21
 12033  11A5  29A7               	goto	u616_20
 12034  11A6                     u616_21:
 12035  11A6  29B7               	goto	i1l3741
 12036  11A7                     u616_20:
 12037  11A7                     i1l3733:
 12038  11A7  0A38               	incf	___fldiv@bexp,w
 12039  11A8  1D03               	btfss	3,2
 12040  11A9  29AB               	goto	u617_21
 12041  11AA  29AC               	goto	u617_20
 12042  11AB                     u617_21:
 12043  11AB  29B4               	goto	i1l3737
 12044  11AC                     u617_20:
 12045  11AC                     i1l3735:
 12046  11AC  3000               	movlw	0
 12047  11AD  00A7               	movwf	___fldiv@b+3
 12048  11AE  3000               	movlw	0
 12049  11AF  00A6               	movwf	___fldiv@b+2
 12050  11B0  3000               	movlw	0
 12051  11B1  00A5               	movwf	___fldiv@b+1
 12052  11B2  3000               	movlw	0
 12053  11B3  00A4               	movwf	___fldiv@b
 12054  11B4                     i1l3737:
 12055  11B4  17A6               	bsf	___fldiv@b+2,7
 12056  11B5                     i1l3739:
 12057  11B5  01A7               	clrf	___fldiv@b+3
 12058  11B6  29BF               	goto	i1l3743
 12059  11B7                     i1l3741:
 12060  11B7  3000               	movlw	0
 12061  11B8  00A7               	movwf	___fldiv@b+3
 12062  11B9  3000               	movlw	0
 12063  11BA  00A6               	movwf	___fldiv@b+2
 12064  11BB  3000               	movlw	0
 12065  11BC  00A5               	movwf	___fldiv@b+1
 12066  11BD  3000               	movlw	0
 12067  11BE  00A4               	movwf	___fldiv@b
 12068  11BF                     i1l3743:
 12069  11BF  0823               	movf	___fldiv@a+3,w
 12070  11C0  3980               	andlw	128
 12071  11C1  00FF               	movwf	btemp+1
 12072  11C2  087F               	movf	btemp+1,w
 12073  11C3  06B1               	xorwf	___fldiv@sign,f
 12074  11C4                     i1l3745:
 12075  11C4  0823               	movf	___fldiv@a+3,w
 12076  11C5  00A8               	movwf	??___fldiv
 12077  11C6  0728               	addwf	??___fldiv,w
 12078  11C7  00FF               	movwf	btemp+1
 12079  11C8  087F               	movf	btemp+1,w
 12080  11C9  00B9               	movwf	___fldiv@aexp
 12081  11CA                     i1l3747:
 12082  11CA  1FA2               	btfss	___fldiv@a+2,7
 12083  11CB  29CD               	goto	u618_21
 12084  11CC  29CE               	goto	u618_20
 12085  11CD                     u618_21:
 12086  11CD  29CF               	goto	i1l3751
 12087  11CE                     u618_20:
 12088  11CE                     i1l3749:
 12089  11CE  1439               	bsf	___fldiv@aexp,0
 12090  11CF                     i1l3751:
 12091  11CF  0839               	movf	___fldiv@aexp,w
 12092  11D0  1903               	btfsc	3,2
 12093  11D1  29D3               	goto	u619_21
 12094  11D2  29D4               	goto	u619_20
 12095  11D3                     u619_21:
 12096  11D3  29E4               	goto	i1l3761
 12097  11D4                     u619_20:
 12098  11D4                     i1l3753:
 12099  11D4  0A39               	incf	___fldiv@aexp,w
 12100  11D5  1D03               	btfss	3,2
 12101  11D6  29D8               	goto	u620_21
 12102  11D7  29D9               	goto	u620_20
 12103  11D8                     u620_21:
 12104  11D8  29E1               	goto	i1l3757
 12105  11D9                     u620_20:
 12106  11D9                     i1l3755:
 12107  11D9  3000               	movlw	0
 12108  11DA  00A3               	movwf	___fldiv@a+3
 12109  11DB  3000               	movlw	0
 12110  11DC  00A2               	movwf	___fldiv@a+2
 12111  11DD  3000               	movlw	0
 12112  11DE  00A1               	movwf	___fldiv@a+1
 12113  11DF  3000               	movlw	0
 12114  11E0  00A0               	movwf	___fldiv@a
 12115  11E1                     i1l3757:
 12116  11E1  17A2               	bsf	___fldiv@a+2,7
 12117  11E2                     i1l3759:
 12118  11E2  01A3               	clrf	___fldiv@a+3
 12119  11E3  29EC               	goto	i1l826
 12120  11E4                     i1l3761:
 12121  11E4  3000               	movlw	0
 12122  11E5  00A3               	movwf	___fldiv@a+3
 12123  11E6  3000               	movlw	0
 12124  11E7  00A2               	movwf	___fldiv@a+2
 12125  11E8  3000               	movlw	0
 12126  11E9  00A1               	movwf	___fldiv@a+1
 12127  11EA  3000               	movlw	0
 12128  11EB  00A0               	movwf	___fldiv@a
 12129  11EC                     i1l826:
 12130  11EC  0823               	movf	___fldiv@a+3,w
 12131  11ED  0422               	iorwf	___fldiv@a+2,w
 12132  11EE  0421               	iorwf	___fldiv@a+1,w
 12133  11EF  0420               	iorwf	___fldiv@a,w
 12134  11F0  1D03               	skipz
 12135  11F1  29F3               	goto	u621_21
 12136  11F2  29F4               	goto	u621_20
 12137  11F3                     u621_21:
 12138  11F3  2A0D               	goto	i1l3771
 12139  11F4                     u621_20:
 12140  11F4                     i1l3763:
 12141  11F4  3000               	movlw	0
 12142  11F5  00A7               	movwf	___fldiv@b+3
 12143  11F6  3000               	movlw	0
 12144  11F7  00A6               	movwf	___fldiv@b+2
 12145  11F8  3000               	movlw	0
 12146  11F9  00A5               	movwf	___fldiv@b+1
 12147  11FA  3000               	movlw	0
 12148  11FB  00A4               	movwf	___fldiv@b
 12149  11FC  3080               	movlw	128
 12150  11FD  04A6               	iorwf	___fldiv@b+2,f
 12151  11FE  307F               	movlw	127
 12152  11FF  04A7               	iorwf	___fldiv@b+3,f
 12153  1200                     i1l3765:
 12154  1200  0831               	movf	___fldiv@sign,w
 12155  1201  00FF               	movwf	btemp+1
 12156  1202  087F               	movf	btemp+1,w
 12157  1203  04A7               	iorwf	___fldiv@b+3,f
 12158  1204                     i1l3767:
 12159  1204  0827               	movf	___fldiv@b+3,w
 12160  1205  00A3               	movwf	?___fldiv+3
 12161  1206  0826               	movf	___fldiv@b+2,w
 12162  1207  00A2               	movwf	?___fldiv+2
 12163  1208  0825               	movf	___fldiv@b+1,w
 12164  1209  00A1               	movwf	?___fldiv+1
 12165  120A  0824               	movf	___fldiv@b,w
 12166  120B  00A0               	movwf	?___fldiv
 12167  120C  2B6C               	goto	i1l828
 12168  120D                     i1l3771:
 12169  120D  0838               	movf	___fldiv@bexp,w
 12170  120E  1D03               	btfss	3,2
 12171  120F  2A11               	goto	u622_21
 12172  1210  2A12               	goto	u622_20
 12173  1211                     u622_21:
 12174  1211  2A1B               	goto	i1l3777
 12175  1212                     u622_20:
 12176  1212                     i1l3773:
 12177  1212  3000               	movlw	0
 12178  1213  00A3               	movwf	?___fldiv+3
 12179  1214  3000               	movlw	0
 12180  1215  00A2               	movwf	?___fldiv+2
 12181  1216  3000               	movlw	0
 12182  1217  00A1               	movwf	?___fldiv+1
 12183  1218  3000               	movlw	0
 12184  1219  00A0               	movwf	?___fldiv
 12185  121A  2B6C               	goto	i1l828
 12186  121B                     i1l3777:
 12187  121B  0838               	movf	___fldiv@bexp,w
 12188  121C  00A8               	movwf	??___fldiv
 12189  121D  01A9               	clrf	??___fldiv+1
 12190  121E  0829               	movf	??___fldiv+1,w
 12191  121F  00AB               	movwf	??___fldiv+3
 12192  1220  0839               	movf	___fldiv@aexp,w
 12193  1221  0228               	subwf	??___fldiv,w
 12194  1222  00AA               	movwf	??___fldiv+2
 12195  1223  1C03               	skipc
 12196  1224  03AB               	decf	??___fldiv+3,f
 12197  1225  082A               	movf	??___fldiv+2,w
 12198  1226  3E7F               	addlw	127
 12199  1227  00B2               	movwf	___fldiv@new_exp
 12200  1228  082B               	movf	??___fldiv+3,w
 12201  1229  1803               	skipnc
 12202  122A  3E01               	addlw	1
 12203  122B  3E00               	addlw	0
 12204  122C  00B3               	movwf	___fldiv@new_exp+1
 12205  122D                     i1l3779:
 12206  122D  0827               	movf	___fldiv@b+3,w
 12207  122E  00B0               	movwf	___fldiv@rem+3
 12208  122F  0826               	movf	___fldiv@b+2,w
 12209  1230  00AF               	movwf	___fldiv@rem+2
 12210  1231  0825               	movf	___fldiv@b+1,w
 12211  1232  00AE               	movwf	___fldiv@rem+1
 12212  1233  0824               	movf	___fldiv@b,w
 12213  1234  00AD               	movwf	___fldiv@rem
 12214  1235                     i1l3781:
 12215  1235  3000               	movlw	0
 12216  1236  00A7               	movwf	___fldiv@b+3
 12217  1237  3000               	movlw	0
 12218  1238  00A6               	movwf	___fldiv@b+2
 12219  1239  3000               	movlw	0
 12220  123A  00A5               	movwf	___fldiv@b+1
 12221  123B  3000               	movlw	0
 12222  123C  00A4               	movwf	___fldiv@b
 12223  123D                     i1l3783:
 12224  123D  3000               	movlw	0
 12225  123E  00B7               	movwf	___fldiv@grs+3
 12226  123F  3000               	movlw	0
 12227  1240  00B6               	movwf	___fldiv@grs+2
 12228  1241  3000               	movlw	0
 12229  1242  00B5               	movwf	___fldiv@grs+1
 12230  1243  3000               	movlw	0
 12231  1244  00B4               	movwf	___fldiv@grs
 12232  1245                     i1l3785:
 12233  1245  01B9               	clrf	___fldiv@aexp
 12234  1246  2A91               	goto	i1l3805
 12235  1247                     i1l3787:
 12236  1247  0839               	movf	___fldiv@aexp,w
 12237  1248  1903               	btfsc	3,2
 12238  1249  2A4B               	goto	u623_21
 12239  124A  2A4C               	goto	u623_20
 12240  124B                     u623_21:
 12241  124B  2A6C               	goto	i1l3797
 12242  124C                     u623_20:
 12243  124C                     i1l3789:
 12244  124C  3001               	movlw	1
 12245  124D  00A8               	movwf	??___fldiv
 12246  124E                     u624_25:
 12247  124E  1003               	clrc
 12248  124F  0DAD               	rlf	___fldiv@rem,f
 12249  1250  0DAE               	rlf	___fldiv@rem+1,f
 12250  1251  0DAF               	rlf	___fldiv@rem+2,f
 12251  1252  0DB0               	rlf	___fldiv@rem+3,f
 12252  1253  0BA8               	decfsz	??___fldiv,f
 12253  1254  2A4E               	goto	u624_25
 12254  1255  3001               	movlw	1
 12255  1256  00A8               	movwf	??___fldiv
 12256  1257                     u625_25:
 12257  1257  1003               	clrc
 12258  1258  0DA4               	rlf	___fldiv@b,f
 12259  1259  0DA5               	rlf	___fldiv@b+1,f
 12260  125A  0DA6               	rlf	___fldiv@b+2,f
 12261  125B  0DA7               	rlf	___fldiv@b+3,f
 12262  125C  0BA8               	decfsz	??___fldiv,f
 12263  125D  2A57               	goto	u625_25
 12264  125E                     i1l3791:
 12265  125E  1FB7               	btfss	___fldiv@grs+3,7
 12266  125F  2A61               	goto	u626_21
 12267  1260  2A62               	goto	u626_20
 12268  1261                     u626_21:
 12269  1261  2A63               	goto	i1l3795
 12270  1262                     u626_20:
 12271  1262                     i1l3793:
 12272  1262  1424               	bsf	___fldiv@b,0
 12273  1263                     i1l3795:
 12274  1263  3001               	movlw	1
 12275  1264  00A8               	movwf	??___fldiv
 12276  1265                     u627_25:
 12277  1265  1003               	clrc
 12278  1266  0DB4               	rlf	___fldiv@grs,f
 12279  1267  0DB5               	rlf	___fldiv@grs+1,f
 12280  1268  0DB6               	rlf	___fldiv@grs+2,f
 12281  1269  0DB7               	rlf	___fldiv@grs+3,f
 12282  126A  0BA8               	decfsz	??___fldiv,f
 12283  126B  2A65               	goto	u627_25
 12284  126C                     i1l3797:
 12285  126C  0823               	movf	___fldiv@a+3,w
 12286  126D  0230               	subwf	___fldiv@rem+3,w
 12287  126E  1D03               	skipz
 12288  126F  2A7A               	goto	u628_25
 12289  1270  0822               	movf	___fldiv@a+2,w
 12290  1271  022F               	subwf	___fldiv@rem+2,w
 12291  1272  1D03               	skipz
 12292  1273  2A7A               	goto	u628_25
 12293  1274  0821               	movf	___fldiv@a+1,w
 12294  1275  022E               	subwf	___fldiv@rem+1,w
 12295  1276  1D03               	skipz
 12296  1277  2A7A               	goto	u628_25
 12297  1278  0820               	movf	___fldiv@a,w
 12298  1279  022D               	subwf	___fldiv@rem,w
 12299  127A                     u628_25:
 12300  127A  1C03               	skipc
 12301  127B  2A7D               	goto	u628_21
 12302  127C  2A7E               	goto	u628_20
 12303  127D                     u628_21:
 12304  127D  2A8D               	goto	i1l3803
 12305  127E                     u628_20:
 12306  127E                     i1l3799:
 12307  127E  1737               	bsf	___fldiv@grs+3,6
 12308  127F                     i1l3801:
 12309  127F  0820               	movf	___fldiv@a,w
 12310  1280  02AD               	subwf	___fldiv@rem,f
 12311  1281  0821               	movf	___fldiv@a+1,w
 12312  1282  1C03               	skipc
 12313  1283  0F21               	incfsz	___fldiv@a+1,w
 12314  1284  02AE               	subwf	___fldiv@rem+1,f
 12315  1285  0822               	movf	___fldiv@a+2,w
 12316  1286  1C03               	skipc
 12317  1287  0F22               	incfsz	___fldiv@a+2,w
 12318  1288  02AF               	subwf	___fldiv@rem+2,f
 12319  1289  0823               	movf	___fldiv@a+3,w
 12320  128A  1C03               	skipc
 12321  128B  0F23               	incfsz	___fldiv@a+3,w
 12322  128C  02B0               	subwf	___fldiv@rem+3,f
 12323  128D                     i1l3803:
 12324  128D  3001               	movlw	1
 12325  128E  00FF               	movwf	btemp+1
 12326  128F  087F               	movf	btemp+1,w
 12327  1290  07B9               	addwf	___fldiv@aexp,f
 12328  1291                     i1l3805:
 12329  1291  301A               	movlw	26
 12330  1292  0239               	subwf	___fldiv@aexp,w
 12331  1293  1C03               	skipc
 12332  1294  2A96               	goto	u629_21
 12333  1295  2A97               	goto	u629_20
 12334  1296                     u629_21:
 12335  1296  2A47               	goto	i1l3787
 12336  1297                     u629_20:
 12337  1297                     i1l3807:
 12338  1297  0830               	movf	___fldiv@rem+3,w
 12339  1298  042F               	iorwf	___fldiv@rem+2,w
 12340  1299  042E               	iorwf	___fldiv@rem+1,w
 12341  129A  042D               	iorwf	___fldiv@rem,w
 12342  129B  1903               	skipnz
 12343  129C  2A9E               	goto	u630_21
 12344  129D  2A9F               	goto	u630_20
 12345  129E                     u630_21:
 12346  129E  2ABE               	goto	i1l3821
 12347  129F                     u630_20:
 12348  129F                     i1l3809:
 12349  129F  1434               	bsf	___fldiv@grs,0
 12350  12A0  2ABE               	goto	i1l3821
 12351  12A1                     i1l3811:
 12352  12A1  3001               	movlw	1
 12353  12A2  00A8               	movwf	??___fldiv
 12354  12A3                     u631_25:
 12355  12A3  1003               	clrc
 12356  12A4  0DA4               	rlf	___fldiv@b,f
 12357  12A5  0DA5               	rlf	___fldiv@b+1,f
 12358  12A6  0DA6               	rlf	___fldiv@b+2,f
 12359  12A7  0DA7               	rlf	___fldiv@b+3,f
 12360  12A8  0BA8               	decfsz	??___fldiv,f
 12361  12A9  2AA3               	goto	u631_25
 12362  12AA                     i1l3813:
 12363  12AA  1FB7               	btfss	___fldiv@grs+3,7
 12364  12AB  2AAD               	goto	u632_21
 12365  12AC  2AAE               	goto	u632_20
 12366  12AD                     u632_21:
 12367  12AD  2AAF               	goto	i1l3817
 12368  12AE                     u632_20:
 12369  12AE                     i1l3815:
 12370  12AE  1424               	bsf	___fldiv@b,0
 12371  12AF                     i1l3817:
 12372  12AF  3001               	movlw	1
 12373  12B0  00A8               	movwf	??___fldiv
 12374  12B1                     u633_25:
 12375  12B1  1003               	clrc
 12376  12B2  0DB4               	rlf	___fldiv@grs,f
 12377  12B3  0DB5               	rlf	___fldiv@grs+1,f
 12378  12B4  0DB6               	rlf	___fldiv@grs+2,f
 12379  12B5  0DB7               	rlf	___fldiv@grs+3,f
 12380  12B6  0BA8               	decfsz	??___fldiv,f
 12381  12B7  2AB1               	goto	u633_25
 12382  12B8                     i1l3819:
 12383  12B8  30FF               	movlw	255
 12384  12B9  07B2               	addwf	___fldiv@new_exp,f
 12385  12BA  1803               	skipnc
 12386  12BB  0AB3               	incf	___fldiv@new_exp+1,f
 12387  12BC  30FF               	movlw	255
 12388  12BD  07B3               	addwf	___fldiv@new_exp+1,f
 12389  12BE                     i1l3821:
 12390  12BE  1FA6               	btfss	___fldiv@b+2,7
 12391  12BF  2AC1               	goto	u634_21
 12392  12C0  2AC2               	goto	u634_20
 12393  12C1                     u634_21:
 12394  12C1  2AA1               	goto	i1l3811
 12395  12C2                     u634_20:
 12396  12C2                     i1l3823:
 12397  12C2  01B9               	clrf	___fldiv@aexp
 12398  12C3                     i1l3825:
 12399  12C3  1FB7               	btfss	___fldiv@grs+3,7
 12400  12C4  2AC6               	goto	u635_21
 12401  12C5  2AC7               	goto	u635_20
 12402  12C6                     u635_21:
 12403  12C6  2AE3               	goto	i1l3833
 12404  12C7                     u635_20:
 12405  12C7                     i1l3827:
 12406  12C7  30FF               	movlw	255
 12407  12C8  0534               	andwf	___fldiv@grs,w
 12408  12C9  00A8               	movwf	??___fldiv
 12409  12CA  30FF               	movlw	255
 12410  12CB  0535               	andwf	___fldiv@grs+1,w
 12411  12CC  00A9               	movwf	??___fldiv+1
 12412  12CD  30FF               	movlw	255
 12413  12CE  0536               	andwf	___fldiv@grs+2,w
 12414  12CF  00AA               	movwf	??___fldiv+2
 12415  12D0  307F               	movlw	127
 12416  12D1  0537               	andwf	___fldiv@grs+3,w
 12417  12D2  00AB               	movwf	??___fldiv+3
 12418  12D3  082B               	movf	??___fldiv+3,w
 12419  12D4  042A               	iorwf	??___fldiv+2,w
 12420  12D5  0429               	iorwf	??___fldiv+1,w
 12421  12D6  0428               	iorwf	??___fldiv,w
 12422  12D7  1903               	skipnz
 12423  12D8  2ADA               	goto	u636_21
 12424  12D9  2ADB               	goto	u636_20
 12425  12DA                     u636_21:
 12426  12DA  2ADE               	goto	i1l842
 12427  12DB                     u636_20:
 12428  12DB                     i1l3829:
 12429  12DB  01B9               	clrf	___fldiv@aexp
 12430  12DC  0AB9               	incf	___fldiv@aexp,f
 12431  12DD  2AE3               	goto	i1l3833
 12432  12DE                     i1l842:
 12433  12DE  1C24               	btfss	___fldiv@b,0
 12434  12DF  2AE1               	goto	u637_21
 12435  12E0  2AE2               	goto	u637_20
 12436  12E1                     u637_21:
 12437  12E1  2AE3               	goto	i1l3833
 12438  12E2                     u637_20:
 12439  12E2  2ADB               	goto	i1l3829
 12440  12E3                     i1l3833:
 12441  12E3  0839               	movf	___fldiv@aexp,w
 12442  12E4  1903               	btfsc	3,2
 12443  12E5  2AE7               	goto	u638_21
 12444  12E6  2AE8               	goto	u638_20
 12445  12E7                     u638_21:
 12446  12E7  2B19               	goto	i1l3843
 12447  12E8                     u638_20:
 12448  12E8                     i1l3835:
 12449  12E8  3001               	movlw	1
 12450  12E9  07A4               	addwf	___fldiv@b,f
 12451  12EA  3000               	movlw	0
 12452  12EB  1803               	skipnc
 12453  12EC  3001               	movlw	1
 12454  12ED  07A5               	addwf	___fldiv@b+1,f
 12455  12EE  3000               	movlw	0
 12456  12EF  1803               	skipnc
 12457  12F0  3001               	movlw	1
 12458  12F1  07A6               	addwf	___fldiv@b+2,f
 12459  12F2  3000               	movlw	0
 12460  12F3  1803               	skipnc
 12461  12F4  3001               	movlw	1
 12462  12F5  07A7               	addwf	___fldiv@b+3,f
 12463  12F6                     i1l3837:
 12464  12F6  1C27               	btfss	___fldiv@b+3,0
 12465  12F7  2AF9               	goto	u639_21
 12466  12F8  2AFA               	goto	u639_20
 12467  12F9                     u639_21:
 12468  12F9  2B19               	goto	i1l3843
 12469  12FA                     u639_20:
 12470  12FA                     i1l3839:
 12471  12FA  0824               	movf	___fldiv@b,w
 12472  12FB  00A8               	movwf	??___fldiv
 12473  12FC  0825               	movf	___fldiv@b+1,w
 12474  12FD  00A9               	movwf	??___fldiv+1
 12475  12FE  0826               	movf	___fldiv@b+2,w
 12476  12FF  00AA               	movwf	??___fldiv+2
 12477  1300  0827               	movf	___fldiv@b+3,w
 12478  1301  00AB               	movwf	??___fldiv+3
 12479  1302  3001               	movlw	1
 12480  1303  00AC               	movwf	??___fldiv+4
 12481  1304                     u640_25:
 12482  1304  0D2B               	rlf	??___fldiv+3,w
 12483  1305  0CAB               	rrf	??___fldiv+3,f
 12484  1306  0CAA               	rrf	??___fldiv+2,f
 12485  1307  0CA9               	rrf	??___fldiv+1,f
 12486  1308  0CA8               	rrf	??___fldiv,f
 12487  1309                     u640_20:
 12488  1309  0BAC               	decfsz	??___fldiv+4,f
 12489  130A  2B04               	goto	u640_25
 12490  130B  082B               	movf	??___fldiv+3,w
 12491  130C  00A7               	movwf	___fldiv@b+3
 12492  130D  082A               	movf	??___fldiv+2,w
 12493  130E  00A6               	movwf	___fldiv@b+2
 12494  130F  0829               	movf	??___fldiv+1,w
 12495  1310  00A5               	movwf	___fldiv@b+1
 12496  1311  0828               	movf	??___fldiv,w
 12497  1312  00A4               	movwf	___fldiv@b
 12498  1313                     i1l3841:
 12499  1313  3001               	movlw	1
 12500  1314  07B2               	addwf	___fldiv@new_exp,f
 12501  1315  1803               	skipnc
 12502  1316  0AB3               	incf	___fldiv@new_exp+1,f
 12503  1317  3000               	movlw	0
 12504  1318  07B3               	addwf	___fldiv@new_exp+1,f
 12505  1319                     i1l3843:
 12506  1319  0833               	movf	___fldiv@new_exp+1,w
 12507  131A  3A80               	xorlw	128
 12508  131B  00FF               	movwf	btemp+1
 12509  131C  3080               	movlw	128
 12510  131D  027F               	subwf	btemp+1,w
 12511  131E  1D03               	skipz
 12512  131F  2B22               	goto	u641_25
 12513  1320  30FF               	movlw	255
 12514  1321  0232               	subwf	___fldiv@new_exp,w
 12515  1322                     u641_25:
 12516  1322  1C03               	skipc
 12517  1323  2B25               	goto	u641_21
 12518  1324  2B26               	goto	u641_20
 12519  1325                     u641_21:
 12520  1325  2B34               	goto	i1l3847
 12521  1326                     u641_20:
 12522  1326                     i1l3845:
 12523  1326  30FF               	movlw	255
 12524  1327  1283               	bcf	3,5	;RP0=0, select bank0
 12525  1328  1303               	bcf	3,6	;RP1=0, select bank0
 12526  1329  00B2               	movwf	___fldiv@new_exp
 12527  132A  3000               	movlw	0
 12528  132B  00B3               	movwf	___fldiv@new_exp+1
 12529  132C  3000               	movlw	0
 12530  132D  00A7               	movwf	___fldiv@b+3
 12531  132E  3000               	movlw	0
 12532  132F  00A6               	movwf	___fldiv@b+2
 12533  1330  3000               	movlw	0
 12534  1331  00A5               	movwf	___fldiv@b+1
 12535  1332  3000               	movlw	0
 12536  1333  00A4               	movwf	___fldiv@b
 12537  1334                     i1l3847:
 12538  1334  1283               	bcf	3,5	;RP0=0, select bank0
 12539  1335  1303               	bcf	3,6	;RP1=0, select bank0
 12540  1336  0833               	movf	___fldiv@new_exp+1,w
 12541  1337  3A80               	xorlw	128
 12542  1338  00FF               	movwf	btemp+1
 12543  1339  3080               	movlw	128
 12544  133A  027F               	subwf	btemp+1,w
 12545  133B  1D03               	skipz
 12546  133C  2B3F               	goto	u642_25
 12547  133D  3001               	movlw	1
 12548  133E  0232               	subwf	___fldiv@new_exp,w
 12549  133F                     u642_25:
 12550  133F  1803               	skipnc
 12551  1340  2B42               	goto	u642_21
 12552  1341  2B43               	goto	u642_20
 12553  1342                     u642_21:
 12554  1342  2B50               	goto	i1l3855
 12555  1343                     u642_20:
 12556  1343                     i1l3849:
 12557  1343  1283               	bcf	3,5	;RP0=0, select bank0
 12558  1344  1303               	bcf	3,6	;RP1=0, select bank0
 12559  1345  01B2               	clrf	___fldiv@new_exp
 12560  1346  01B3               	clrf	___fldiv@new_exp+1
 12561  1347                     i1l3851:
 12562  1347  3000               	movlw	0
 12563  1348  00A7               	movwf	___fldiv@b+3
 12564  1349  3000               	movlw	0
 12565  134A  00A6               	movwf	___fldiv@b+2
 12566  134B  3000               	movlw	0
 12567  134C  00A5               	movwf	___fldiv@b+1
 12568  134D  3000               	movlw	0
 12569  134E  00A4               	movwf	___fldiv@b
 12570  134F                     i1l3853:
 12571  134F  01B1               	clrf	___fldiv@sign
 12572  1350                     i1l3855:
 12573  1350  1283               	bcf	3,5	;RP0=0, select bank0
 12574  1351  1303               	bcf	3,6	;RP1=0, select bank0
 12575  1352  0832               	movf	___fldiv@new_exp,w
 12576  1353  00FF               	movwf	btemp+1
 12577  1354  087F               	movf	btemp+1,w
 12578  1355  00B8               	movwf	___fldiv@bexp
 12579  1356                     i1l3857:
 12580  1356  1C38               	btfss	___fldiv@bexp,0
 12581  1357  2B59               	goto	u643_21
 12582  1358  2B5A               	goto	u643_20
 12583  1359                     u643_21:
 12584  1359  2B5C               	goto	i1l3861
 12585  135A                     u643_20:
 12586  135A                     i1l3859:
 12587  135A  17A6               	bsf	___fldiv@b+2,7
 12588  135B  2B60               	goto	i1l850
 12589  135C                     i1l3861:
 12590  135C  307F               	movlw	127
 12591  135D  00FF               	movwf	btemp+1
 12592  135E  087F               	movf	btemp+1,w
 12593  135F  05A6               	andwf	___fldiv@b+2,f
 12594  1360                     i1l850:
 12595  1360  0838               	movf	___fldiv@bexp,w
 12596  1361  00A8               	movwf	??___fldiv
 12597  1362  1003               	clrc
 12598  1363  0C28               	rrf	??___fldiv,w
 12599  1364  00FF               	movwf	btemp+1
 12600  1365  087F               	movf	btemp+1,w
 12601  1366  00A7               	movwf	___fldiv@b+3
 12602  1367  0831               	movf	___fldiv@sign,w
 12603  1368  00FF               	movwf	btemp+1
 12604  1369  087F               	movf	btemp+1,w
 12605  136A  04A7               	iorwf	___fldiv@b+3,f
 12606  136B  2A04               	goto	i1l3767
 12607  136C                     i1l828:
 12608  136C  0008               	return
 12609  136D                     __end_of___fldiv:
 12610  007E                     btemp	set	126	;btemp
 12611  007E                     wtemp0	set	126
 12612                           
 12613                           	psect	config
 12614                           
 12615                           ;Config register CONFIG1 @ 0x2007
 12616                           ;	Oscillator Selection bits
 12617                           ;	FOSC = EC, EC: I/O function on RA6/OSC2/CLKOUT pin, CLKIN on RA7/OSC1/CLKIN
 12618                           ;	Watchdog Timer Enable bit
 12619                           ;	WDTE = OFF, WDT disabled and can be enabled by SWDTEN bit of the WDTCON register
 12620                           ;	Power-up Timer Enable bit
 12621                           ;	PWRTE = OFF, PWRT disabled
 12622                           ;	RE3/MCLR pin function select bit
 12623                           ;	MCLRE = ON, RE3/MCLR pin function is MCLR
 12624                           ;	Code Protection bit
 12625                           ;	CP = OFF, Program memory code protection is disabled
 12626                           ;	Data Code Protection bit
 12627                           ;	CPD = OFF, Data memory code protection is disabled
 12628                           ;	Brown Out Reset Selection bits
 12629                           ;	BOREN = ON, BOR enabled
 12630                           ;	Internal External Switchover bit
 12631                           ;	IESO = ON, Internal/External Switchover mode is enabled
 12632                           ;	Fail-Safe Clock Monitor Enabled bit
 12633                           ;	FCMEN = ON, Fail-Safe Clock Monitor is enabled
 12634                           ;	Low Voltage Programming Enable bit
 12635                           ;	LVP = OFF, RB3 pin has digital I/O, HV on MCLR must be used for programming
 12636                           ;	In-Circuit Debugger Mode bit
 12637                           ;	DEBUG = 0x1, unprogrammed default
 12638  2007                     	org	8199
 12639  2007  2FF3               	dw	12275
 12640                           
 12641                           ;Config register CONFIG2 @ 0x2008
 12642                           ;	Brown-out Reset Selection bit
 12643                           ;	BOR4V = BOR40V, Brown-out Reset set to 4.0V
 12644                           ;	Flash Program Memory Self Write Enable bits
 12645                           ;	WRT = OFF, Write protection off
 12646  2008                     	org	8200
 12647  2008  3FFF               	dw	16383

Data Sizes:
    Strings     16
    Constant    144
    Data        1
    BSS         26
    Persistent  1
    Stack       0

Auto Spaces:
    Space          Size  Autos    Used
    COMMON           14     14      14
    BANK0            80     79      79
    BANK1            80     51      80
    BANK3            96     12      12
    BANK2            96      0       0

Pointer List with Targets:

    sprintf@f	PTR const unsigned char  size(1) Largest target is 3
		 -> STR_2(CODE[3]), STR_1(CODE[3]), 

    sprintf@sp	PTR unsigned char  size(1) Largest target is 9
		 -> isr@message(BANK1[9]), 

    sprintf@ap	PTR void [1] size(1) Largest target is 2
		 -> ?_sprintf(BANK0[2]), 

    lcd_puts@s	PTR const unsigned char  size(2) Largest target is 10
		 -> STR_3(CODE[10]), isr@message(BANK1[9]), 


Critical Paths under _main in COMMON

    None.

Critical Paths under _isr in COMMON

    _isr->___xxtofl
    i1_lcd_puts->i1_lcd_write
    i1_lcd_goto->i1_lcd_write
    i1_lcd_write->i1_lcd_write_nibble
    _sprintf->___awdiv
    _sprintf->___lldiv
    _sprintf->___xxtofl
    _scale->___awdiv
    ___awdiv->___awmod
    ___lwdiv->___lwmod
    ___flmul->___awdiv
    ___llmod->___lldiv
    ___flsub->___xxtofl
    ___fldiv->___xxtofl

Critical Paths under _main in BANK0

    None.

Critical Paths under _isr in BANK0

    _isr->_sprintf
    _sprintf->___flsub
    _scale->___flmul
    _fround->___flmul
    ___fltol->___flmul
    ___flsub->___fladd
    ___fladd->_fround

Critical Paths under _main in BANK1

    None.

Critical Paths under _isr in BANK1

    _isr->_sprintf

Critical Paths under _main in BANK3

    _main->_matriz_estados_init
    _lcd_puts->_lcd_write
    _lcd_init->_lcd_write
    _lcd_goto->_lcd_write
    _lcd_cursor->_lcd_write
    _lcd_clear->_lcd_write
    _lcd_write->_lcd_write_nibble

Critical Paths under _isr in BANK3

    None.

Critical Paths under _main in BANK2

    None.

Critical Paths under _isr in BANK2

    None.

Call Graph Tables:

 ---------------------------------------------------------------------------------
 (Depth) Function   	        Calls       Base Space   Used Autos Params    Refs
 ---------------------------------------------------------------------------------
 (0) _main                                                13    13      0    1262
                                              8 BANK3      4     4      0
                         _debug_init
                            _io_beep
                            _io_init
                      _io_led_toggle
                      _io_sw_pressed
                          _lcd_clear
                         _lcd_cursor
                           _lcd_goto
                           _lcd_init
                           _lcd_puts
                _matriz_estados_init
                         _portB_init
                            _t0_init
 ---------------------------------------------------------------------------------
 (1) _t0_init                                              0     0      0       0
 ---------------------------------------------------------------------------------
 (1) _portB_init                                           0     0      0       0
 ---------------------------------------------------------------------------------
 (1) _matriz_estados_init                                  8     8      0     160
                                              0 BANK3      8     8      0
 ---------------------------------------------------------------------------------
 (1) _lcd_puts                                             2     0      2     353
                                              4 BANK3      2     0      2
                     _LCD_RS_SetHigh
                          _lcd_write
 ---------------------------------------------------------------------------------
 (2) _LCD_RS_SetHigh                                       0     0      0       0
 ---------------------------------------------------------------------------------
 (1) _lcd_init                                             2     2      0     132
                                              4 BANK3      2     2      0
                      _LCD_RS_SetLow
                      _LCD_RW_SetLow
                          _lcd_write
 ---------------------------------------------------------------------------------
 (2) _LCD_RW_SetLow                                        0     0      0       0
 ---------------------------------------------------------------------------------
 (1) _lcd_goto                                             1     1      0     154
                                              4 BANK3      1     1      0
                      _LCD_RS_SetLow
                          _lcd_write
 ---------------------------------------------------------------------------------
 (1) _lcd_cursor                                           2     0      2     230
                                              4 BANK3      2     0      2
                      _LCD_RS_SetLow
                          _lcd_write
 ---------------------------------------------------------------------------------
 (1) _lcd_clear                                            2     2      0     132
                                              4 BANK3      2     2      0
                      _LCD_RS_SetLow
                          _lcd_write
 ---------------------------------------------------------------------------------
 (2) _lcd_write                                            2     2      0     132
                                              2 BANK3      2     2      0
                   _lcd_write_nibble
 ---------------------------------------------------------------------------------
 (3) _lcd_write_nibble                                     2     2      0      88
                                              0 BANK3      2     2      0
 ---------------------------------------------------------------------------------
 (2) _LCD_RS_SetLow                                        0     0      0       0
 ---------------------------------------------------------------------------------
 (1) _io_sw_pressed                                        2     0      2       0
                                              0 BANK3      2     0      2
 ---------------------------------------------------------------------------------
 (1) _io_led_toggle                                        0     0      0       0
 ---------------------------------------------------------------------------------
 (1) _io_init                                              0     0      0       0
 ---------------------------------------------------------------------------------
 (1) _io_beep                                              4     2      2      98
                                              0 BANK3      4     2      2
 ---------------------------------------------------------------------------------
 (1) _debug_init                                           0     0      0       0
 ---------------------------------------------------------------------------------
 Estimated maximum stack depth 3
 ---------------------------------------------------------------------------------
 (Depth) Function   	        Calls       Base Space   Used Autos Params    Refs
 ---------------------------------------------------------------------------------
 (4) _isr                                                 21    21      0   33232
                                             30 BANK1     21    21      0
                            ___fldiv
                           ___xxtofl
                   _debug_led_toggle
                         _io_sw_read
                            _sprintf
                         i1_lcd_goto
                         i1_lcd_puts
 ---------------------------------------------------------------------------------
 (5) i1_lcd_puts                                           2     0      2     229
                                              4 COMMON     2     0      2
                   i1_LCD_RS_SetHigh
                        i1_lcd_write
 ---------------------------------------------------------------------------------
 (6) i1_LCD_RS_SetHigh                                     0     0      0       0
 ---------------------------------------------------------------------------------
 (5) i1_lcd_goto                                           1     1      0     154
                                              4 COMMON     1     1      0
                    i1_LCD_RS_SetLow
                        i1_lcd_write
 ---------------------------------------------------------------------------------
 (6) i1_lcd_write                                          2     2      0     132
                                              2 COMMON     2     2      0
                 i1_lcd_write_nibble
 ---------------------------------------------------------------------------------
 (7) i1_lcd_write_nibble                                   2     2      0      88
                                              0 COMMON     2     2      0
 ---------------------------------------------------------------------------------
 (6) i1_LCD_RS_SetLow                                      0     0      0       0
 ---------------------------------------------------------------------------------
 (5) _sprintf                                             42    37      5   30689
                                             74 BANK0      5     0      5
                                              0 BANK1     30    30      0
                            ___awdiv
                            ___fladd
                            ___fldiv (ARG)
                             ___fleq
                             ___flge
                            ___flmul
                            ___flneg
                            ___flsub
                            ___fltol
                            ___lldiv
                            ___llmod
                             ___wmul
                           ___xxtofl
                         __div_to_l_
                        __tdiv_to_l_
                             _fround
                              _scale
 ---------------------------------------------------------------------------------
 (6) _scale                                               19    15      4    7408
                                             26 BANK0     19    15      4
                            ___awdiv
                            ___awmod
                            ___flmul
 ---------------------------------------------------------------------------------
 (7) ___awmod                                              6     2      4    1208
                                              0 COMMON     6     2      4
 ---------------------------------------------------------------------------------
 (7) ___awdiv                                              8     4      4    1364
                                              6 COMMON     8     4      4
                            ___awmod (ARG)
 ---------------------------------------------------------------------------------
 (6) _fround                                              20    16      4    5871
                                             26 BANK0     20    16      4
                            ___flmul
                            ___lwdiv
                            ___lwmod
 ---------------------------------------------------------------------------------
 (7) ___lwmod                                              5     1      4     615
                                              0 COMMON     5     1      4
 ---------------------------------------------------------------------------------
 (7) ___lwdiv                                              7     3      4     618
                                              5 COMMON     7     3      4
                            ___lwmod (ARG)
 ---------------------------------------------------------------------------------
 (7) ___flmul                                             26    18      8    4393
                                              0 BANK0     26    18      8
                          __Umul8_16
                            ___awdiv (ARG)
                            ___awmod (ARG)
                            ___lwdiv (ARG)
                            ___lwmod (ARG)
 ---------------------------------------------------------------------------------
 (8) __Umul8_16                                            9     7      2     799
                                              0 COMMON     9     7      2
 ---------------------------------------------------------------------------------
 (6) __tdiv_to_l_                                         17     9      8     455
                                              0 COMMON    11     3      8
                                              0 BANK0      6     6      0
 ---------------------------------------------------------------------------------
 (6) __div_to_l_                                          15     7      8     455
                                              0 COMMON     9     1      8
                                              0 BANK0      6     6      0
 ---------------------------------------------------------------------------------
 (6) ___xxtofl                                            14    10      4     474
                                              0 COMMON    14    10      4
 ---------------------------------------------------------------------------------
 (6) ___wmul                                               6     2      4     244
                                              0 COMMON     6     2      4
 ---------------------------------------------------------------------------------
 (6) ___llmod                                             10     2      8     767
                                              0 BANK0     10     2      8
                            ___lldiv (ARG)
 ---------------------------------------------------------------------------------
 (6) ___lldiv                                             14     6      8     618
                                              0 COMMON    14     6      8
 ---------------------------------------------------------------------------------
 (6) ___fltol                                             10     6      4     457
                                             26 BANK0     10     6      4
                            ___flmul (ARG)
 ---------------------------------------------------------------------------------
 (6) ___flsub                                              8     0      8    2485
                                             66 BANK0      8     0      8
                            ___fladd
                           ___xxtofl (ARG)
 ---------------------------------------------------------------------------------
 (7) ___fladd                                             20    12      8    2288
                                             46 BANK0     20    12      8
                             _fround (ARG)
 ---------------------------------------------------------------------------------
 (6) ___flneg                                              4     0      4     121
                                              0 COMMON     4     0      4
 ---------------------------------------------------------------------------------
 (6) ___flge                                              12     4      8     790
                                              0 COMMON    12     4      8
 ---------------------------------------------------------------------------------
 (6) ___fleq                                              12     4      8     394
                                              0 COMMON    12     4      8
 ---------------------------------------------------------------------------------
 (5) _io_sw_read                                           3     3      0      96
                                              0 COMMON     3     3      0
 ---------------------------------------------------------------------------------
 (5) _debug_led_toggle                                     1     1      0      22
                                              0 COMMON     1     1      0
 ---------------------------------------------------------------------------------
 (5) ___fldiv                                             26    18      8    1273
                                              0 BANK0     26    18      8
                           ___xxtofl (ARG)
 ---------------------------------------------------------------------------------
 Estimated maximum stack depth 8
 ---------------------------------------------------------------------------------

 Call Graph Graphs:

 _main (ROOT)
   _debug_init
   _io_beep
   _io_init
   _io_led_toggle
   _io_sw_pressed
   _lcd_clear
     _LCD_RS_SetLow
     _lcd_write
       _lcd_write_nibble
   _lcd_cursor
     _LCD_RS_SetLow
     _lcd_write
       _lcd_write_nibble
   _lcd_goto
     _LCD_RS_SetLow
     _lcd_write
       _lcd_write_nibble
   _lcd_init
     _LCD_RS_SetLow
     _LCD_RW_SetLow
     _lcd_write
       _lcd_write_nibble
   _lcd_puts
     _LCD_RS_SetHigh
     _lcd_write
       _lcd_write_nibble
   _matriz_estados_init
   _portB_init
   _t0_init

 _isr (ROOT)
   ___fldiv
     ___xxtofl (ARG)
   ___xxtofl
   _debug_led_toggle
   _io_sw_read
   _sprintf
     ___awdiv
       ___awmod (ARG)
     ___fladd
       _fround (ARG)
         ___flmul
           __Umul8_16
           ___awdiv (ARG)
             ___awmod (ARG)
           ___awmod (ARG)
           ___lwdiv (ARG)
             ___lwmod (ARG)
           ___lwmod (ARG)
         ___lwdiv
           ___lwmod (ARG)
         ___lwmod
     ___fldiv (ARG)
       ___xxtofl (ARG)
     ___fleq (ARG)
     ___flge (ARG)
     ___flmul (ARG)
       __Umul8_16
       ___awdiv (ARG)
         ___awmod (ARG)
       ___awmod (ARG)
       ___lwdiv (ARG)
         ___lwmod (ARG)
       ___lwmod (ARG)
     ___flneg (ARG)
     ___flsub (ARG)
       ___fladd
         _fround (ARG)
           ___flmul
             __Umul8_16
             ___awdiv (ARG)
               ___awmod (ARG)
             ___awmod (ARG)
             ___lwdiv (ARG)
               ___lwmod (ARG)
             ___lwmod (ARG)
           ___lwdiv
             ___lwmod (ARG)
           ___lwmod
       ___xxtofl (ARG)
     ___fltol (ARG)
       ___flmul (ARG)
         __Umul8_16
         ___awdiv (ARG)
           ___awmod (ARG)
         ___awmod (ARG)
         ___lwdiv (ARG)
           ___lwmod (ARG)
         ___lwmod (ARG)
     ___lldiv (ARG)
     ___llmod (ARG)
       ___lldiv (ARG)
     ___wmul (ARG)
     ___xxtofl (ARG)
     __div_to_l_ (ARG)
     __tdiv_to_l_ (ARG)
     _fround (ARG)
       ___flmul
         __Umul8_16
         ___awdiv (ARG)
           ___awmod (ARG)
         ___awmod (ARG)
         ___lwdiv (ARG)
           ___lwmod (ARG)
         ___lwmod (ARG)
       ___lwdiv
         ___lwmod (ARG)
       ___lwmod
     _scale (ARG)
       ___awdiv
         ___awmod (ARG)
       ___awmod
       ___flmul
         __Umul8_16
         ___awdiv (ARG)
           ___awmod (ARG)
         ___awmod (ARG)
         ___lwdiv (ARG)
           ___lwmod (ARG)
         ___lwmod (ARG)
   i1_lcd_goto
     i1_LCD_RS_SetLow
     i1_lcd_write
       i1_lcd_write_nibble
   i1_lcd_puts
     i1_LCD_RS_SetHigh
     i1_lcd_write
       i1_lcd_write_nibble

 Address spaces:
Name               Size   Autos  Total    Cost      Usage
BANK3               60      C       C       9       12.5%
BITBANK3            60      0       0       8        0.0%
SFR3                 0      0       0       4        0.0%
BITSFR3              0      0       0       4        0.0%
BANK2               60      0       0      11        0.0%
BITBANK2            60      0       0      10        0.0%
SFR2                 0      0       0       5        0.0%
BITSFR2              0      0       0       5        0.0%
BANK1               50     33      50       7      100.0%
BITBANK1            50      0       1       6        1.2%
SFR1                 0      0       0       2        0.0%
BITSFR1              0      0       0       2        0.0%
BANK0               50     4F      4F       5       98.8%
BITBANK0            50      0       0       4        0.0%
SFR0                 0      0       0       1        0.0%
BITSFR0              0      0       0       1        0.0%
COMMON               E      E       E       1      100.0%
BITCOMMON            E      0       0       0        0.0%
CODE                 0      0       0       0        0.0%
DATA                 0      0      B9      12        0.0%
ABS                  0      0      B9       3        0.0%
NULL                 0      0       0       0        0.0%
STACK                0      0       0       2        0.0%
EEDATA             100      0       0       0        0.0%


Microchip Technology PIC Macro Assembler V2.20 build 20200408173844 
Symbol Table                                                                                   Sat Jun 13 02:09:14 2020

                ___fldiv@aexp 0039                  ___fldiv@bexp 0038     __size_ofi1_LCD_RS_SetHigh 0004  
                           pc 0002             ?_debug_led_toggle 0070                  ___fldiv@sign 0031  
                          l33 18DB                            l51 1018                            l60 1940  
                          l36 18E3                            l45 1C38                            l39 18DF  
                          l71 1CE6                            l48 19AC                            l65 081A  
                          l57 1B12                  ___awdiv@sign 007B        __size_of_io_led_toggle 0005  
                          fsr 0004           ___wmul@multiplicand 0072            ??_debug_led_toggle 0070  
              ?_LCD_RS_SetLow 0070           __Umul8_16@word_mpld 0076                           l214 192E  
                         l223 18E8                           l227 1A6B                           l171 07FF  
                         l229 1A9D                           l239 1953                           l168 1911  
                         l258 18FA                           l178 1D9B                           _RA2 002A  
                         _RB0 0030                           _RA3 002B                           _RB1 0031  
                         _RC0 0038                           _RA4 002C                           _RB2 0032  
                         _RC3 003B                           _RB5 0035                           _RC4 003C  
                         _RC5 003D                           _RB7 0037                           _PSA 040B  
             io_sw_read@swOld 00EF               io_sw_read@swNew 0072                           _isr 081B  
              ?_LCD_RW_SetLow 0070                           fsr0 0004                           indf 0000  
                ___awmod@sign 0075                   lcd_goto@pos 0194                  ___flmul@aexp 0032  
                ___flmul@bexp 0033                   _sprintf$976 00A5                    i1_lcd_goto 1912  
                ___flmul@sign 002D                  ___flmul@temp 0038                  ___flmul@prod 0034  
                  i1_lcd_puts 1A3F               ?_LCD_RS_SetHigh 0070                  ___fltol@exp1 0043  
                        l3011 18DC                          l3013 198F                          l3007 18D8  
                        l3015 19A5                          l3009 18E0                          l2511 1BF8  
                        l2513 1C34                          l3401 1932                          l4041 1E7C  
                        l2515 1C35                          l3411 0814                          l3403 1937  
                        l4051 1E95                          l4043 1E81                          l4035 1E69  
                        l2517 1C36                          l2509 1BEE                          l3405 0800  
                        l3421 1CAF                          l3413 1C8F                          l4061 1EBC  
                        l4053 1E96                          l4045 1E86                          l4037 1E75  
                        l2519 1C37                          l3407 0805                          l3431 1CD4  
                        l3423 1CB4                          l3415 1CA1                          l4063 1EC1  
                        l4055 1EA1                          l4047 1E8B                          l4039 1E77  
                        l3409 080D                          l3433 1CDA                          l3425 1CBE  
                        l3417 1CA7                          l4065 1ECE                          l4057 1EAB  
                        l4049 1E90                          l3435 1CE0                          l3427 1CC4  
                        l3419 1CAA                          l4067 1ED3                          l4059 1EB1  
                        l3701 1A6A                          l3429 1CCE                          l3703 1A6E  
                        l3391 1008                          l3705 1A79                          l3721 18E4  
                        l3393 1AD8                          l3707 1A87                          l3395 1ADE  
                        l3389 1003                          l3397 1AF4                          l3661 190C  
                        l3399 1AFC                          l3663 1910                          l3681 1D4F  
                        l3673 1D45                          l3665 07F1                          l3657 1906  
                        l3691 1D79                          l3683 1D55                          l3667 1D40  
                        l3659 190A                          l3693 1D86                          l3685 1D56  
                        l3695 1D8E                          l3687 1D6F                          l3679 1D49  
                        l3697 1920                          l3689 1D73                          l3699 18F1  
                        l3983 194F                          l3975 1941                          l3977 1947  
                        l3979 1948                          ?_isr 0070                          STR_1 18AD  
                        STR_2 18AA                          _ANS2 0C42                          STR_3 18A0  
                        _ANS3 0C43                          _ANS8 0C48                          _ANS9 0C49  
                        _T0IE 005D                          _T0IF 005A                          _T0CS 040D  
                        u3300 1BF5                          u3301 1BF1                          u3330 1C09  
                        u3314 1BF8                          u3331 1C05                          u3404 1C34  
                        u3325 1BFD                          u3360 1C1D                          u3344 1C0C  
                        u3361 1C19                          u3355 1C11                          u3390 1C31  
                        u3374 1C20                          u6110 1D86                          u3391 1C2D  
                        u6111 1D85                          u6120 1D9B                          u3385 1C25  
                        u6121 1D9A                          u6105 1D5F                          u6130 1A9D  
                        u6131 1A9C                          u6115 1D82                          u6125 1D97  
                        u6135 1A99                          _RBIE 005B                          _RBIF 0058  
                        i1l33 18D3                          i1l60 191F                          i1l36 18D7  
                        i1l45 1B9C                          i1l48 196E                          u5720 1B12  
                        i1l57 1A69                          u5721 1B11                          u5730 080D  
                        u4675 1992                          u5731 080C                          u6560 1947  
                        u6640 1ECE                          u6561 1946                          u6641 1ECD  
                        u6707 1A74                          u6717 1A82                          u6657 1ED9  
                        u6667 1CBA                          u6677 1CCA                          u6687 1014  
                        u6697 19A9                          _TMR0 0001                          _main 1E69  
                        btemp 007E                          start 0016               ___fldiv@new_exp 0032  
                lcd_cursor@on 0194                   i1_lcd_write 1954               _contagem_pulsos 00EB  
                       ??_isr 00BE               __end_of_t0_init 1912                 ___fltol@sign1 0042  
             __end_of___fladd 1800                         ?_main 0070               __end_of___fldiv 136D  
             __end_of___awdiv 1E69               __end_of___flneg 1906                         _EEADR 010D  
                       _ANS11 0C4B                         _ANS12 0C4C                         _ANS13 0C4D  
             __end_of___awmod 1D40               __end_of___flmul 1000               __end_of___flsub 19F3  
             __end_of___fltol 1F5E               __end_of___lldiv 1E02               ___awdiv@divisor 0076  
             __end_of___llmod 1C8F                         _IOCB3 04B3                         _IOCB4 04B4  
                       _IOCB6 04B6               __end_of___lwdiv 1B57                         i1l235 19CE  
                       i1l165 092F                         i1l262 1971                         i1l264 1976  
                       i1l265 197B               __end_of___lwmod 1AD8                         i1l267 198B  
                       i1l443 19FF                         i1l445 1A17                         i1l613 07F0  
                       i1l630 1BD5                         i1l614 0755                         i1l374 0C9E  
                       i1l631 1BEA                         i1l367 1577                         i1l439 0732  
                       i1l624 07E3                         i1l801 1793                         i1l617 07B3  
                       i1l609 1D3F                         i1l634 1F7A                         i1l642 1905  
                       i1l812 17F3                         i1l660 118F                         i1l388 004C  
                       i1l629 1BB9                         i1l637 1FE6                         i1l813 17FF  
                       i1l653 1F48                         i1l661 1101                         i1l638 1FFF  
                       i1l646 1F5D                         i1l910 103B                         i1l479 1E01  
                       i1l671 1182                         i1l816 19F2                         i1l656 1F5D  
                       i1l912 10D2                         i1l664 1152                         i1l850 1360  
                       i1l842 12DE                         i1l826 11EC                         i1l770 15DB  
                       i1l923 109C                         i1l828 136C                         i1l924 10A8  
                       i1l596 1E68                         i1l749 1B56                         i1l774 1682  
                       i1l791 174D                         i1l783 17FF                         i1l759 1AD7  
                       i1l776 1659                         i1l872 0F6B                         i1l866 0FFF  
                       i1l795 1771                         i1l699 1C8E                         i1l885 1A2C  
                       i1l878 0FF3                         i1l887 1A3E               ___awdiv@counter 007A  
                       _PORTB 0006                         _TRISC 0087                         _WPUB6 04AE  
                       _nRBPU 040F               __end_of_io_beep 1A9E               i1_LCD_RS_SetLow 18D0  
             __end_of_io_init 192F               __end_of_dpowers 18A0                         _scale 0940  
               _io_led_toggle 18E4                         pclath 000A                         status 0003  
                       wtemp0 007E               __end_of_sprintf 0733               __initialization 0019  
                __end_of_main 1EE2          matriz_estados_init@i 0194          matriz_estados_init@j 0196  
             ??_LCD_RS_SetLow 0190                   i1lcd_puts@s 0074                        ??_main 0198  
             ??_LCD_RW_SetLow 0190        __size_of_io_sw_pressed 0013            i1_lcd_write_nibble 1B57  
        __size_of__tdiv_to_l_ 00BD                   ?i1_lcd_goto 0070                   ?i1_lcd_puts 0074  
         ?i1_lcd_write_nibble 0070              ___llmod@dividend 0024                        ?_scale 003A  
                      _EEDATA 010C                        _EECON1 018C              ___awdiv@dividend 0078  
              ?_io_led_toggle 0070                        i1l3001 1B99                        i1l3003 1B9A  
                      i1l3101 1139                        i1l3005 1B9B                        i1l3103 1143  
                      i1l3031 1534                        i1l3201 1D9C                        i1l3105 1144  
                      i1l3025 1483                        i1l3017 1370                        i1l3041 0950  
                      i1l4001 08A9                        i1l3211 1DC0                        i1l3203 1DAC  
                      i1l3131 0733                        i1l3115 115E                        i1l3107 114C  
                      i1l3027 1489                        i1l3019 1376                        i1l3035 0943  
                      i1l4011 08BA                        i1l4003 08AF                        i1l3301 1F4D  
                      i1l3221 1DF3                        i1l3213 1DC9                        i1l3205 1DAF  
                      i1l3133 0740                        i1l3125 1177                        i1l3117 1167  
                      i1l3109 1156                        i1l2501 1A26                        i1l3053 0AC7  
                      i1l3037 0947                        i1l4021 08E3                        i1l4013 08BE  
                      i1l4005 08B1                        i1l3231 1BCD                        i1l3303 1F52  
                      i1l3215 1DDB                        i1l3207 1DB8                        i1l3223 1DF9  
                      i1l3311 1C4F                        i1l3151 0776                        i1l3143 0756  
                      i1l3127 1187                        i1l3119 1170                        i1l2503 1A35  
                      i1l3071 0C72                        i1l3047 0A38                        i1l3039 0949  
                      i1l4031 0925                        i1l4023 08F8                        i1l4015 08C5  
                      i1l4007 08B5                        i1l3233 1BE7                        i1l3241 1F72  
                      i1l3217 1DE9                        i1l3209 1DBC                        i1l3321 1C80  
                      i1l3313 1C53                        i1l3305 1C39                        i1l3161 07A4  
                      i1l3153 077A                        i1l3145 075E                        i1l3137 0749  
                      i1l3081 10EF                        i1l2505 1A3A                        i1l2521 1E02  
                      i1l3065 0BE3                        i1l3049 0A3F                        i1l3057 0AF4  
                      i1l4033 092E                        i1l4025 08FC                        i1l4017 08CB  
                      i1l4009 08B6                        i1l3235 1BE9                        i1l3227 1B9D  
                      i1l3251 1FC2                        i1l3243 1F8E                        i1l3219 1DEA  
                      i1l3315 1C57                        i1l3307 1C43                        i1l3323 1C86  
                      i1l3171 07BF                        i1l3163 07AD                        i1l3155 0783  
                      i1l3147 076F                        i1l3091 1117                        i1l3075 10D3  
                      i1l2611 1B25                        i1l2603 1B13                        i1l2531 1E12  
                      i1l2523 1E03                        i1l3067 0BEA                        i1l3059 0AFB  
                      i1l4027 0907                        i1l4019 08D1                        i1l3229 1BB1  
                      i1l3253 1FFC                        i1l3245 1F96                        i1l3261 1903  
                      i1l2701 15ED                        i1l3317 1C69                        i1l3309 1C46  
                      i1l3341 1043                        i1l3333 101A                        i1l3181 07D8  
                      i1l3173 07C8                        i1l3165 07B7                        i1l3157 0795  
                      i1l3149 0771                        i1l3093 1119                        i1l3077 10E6  
                      i1l2621 1B45                        i1l2613 1B29                        i1l2605 1B15  
                      i1l2541 1E26                        i1l2533 1E17                        i1l2525 1E07  
                      i1l3501 023C                        i1l4029 091F                        i1l3255 1FFE  
                      i1l3247 1F9A                        i1l3239 1F5E                        i1l3263 1905  
                      i1l2711 1601                        i1l2703 15F1                        i1l3327 19CF  
                      i1l3319 1C77                        i1l3191 19F9                        i1l3351 105E  
                      i1l3335 101F                        i1l3183 07E8                        i1l3175 07D1  
                      i1l3159 07A3                        i1l3095 111E                        i1l3087 1102  
                      i1l2623 1B4C                        i1l2615 1B2D                        i1l2607 1B1B  
                      i1l2631 1AA4                        i1l2551 1E4C                        i1l2543 1E2D  
                      i1l2535 1E1B                        i1l2527 1E0C                        i1l3511 029E  
                      i1l3503 0263                        i1l3249 1FBE                        i1l2801 1770  
                      i1l2721 1615                        i1l2713 1605                        i1l2705 15F5  
                      i1l3329 19D3                        i1l3281 1F18                        i1l3273 1EF8  
                      i1l3193 1A06                        i1l3361 1087                        i1l3353 1065  
                      i1l3345 104C                        i1l3337 1023                        i1l3097 1122  
                      i1l3089 1108                        i1l2617 1B3E                        i1l2609 1B1E  
                      i1l2625 1B52                        i1l2641 1AC0                        i1l2633 1AA7  
                      i1l2561 1E64                        i1l2553 1E4D                        i1l2545 1E31  
                      i1l2537 1E1D                        i1l2529 1E0E                        i1l3601 0639  
                      i1l3521 0366                        i1l3513 02BC                        i1l3505 0272  
                      i1l3441 003D                        i1l3259 18FB                        i1l2803 1775  
                      i1l2811 1781                        i1l2731 1626                        i1l2723 1619  
                      i1l2715 1609                        i1l2707 15F9                        i1l2651 1578  
                      i1l3291 1F2D                        i1l3283 1F1C                        i1l3275 1F0D  
                      i1l3267 1EE2                        i1l3195 1A0D                        i1l3187 19F3  
                      i1l3371 10C0                        i1l3363 1092                        i1l3355 1069  
                      i1l3347 1051                        i1l3339 1033                        i1l3099 112B  
                      i1l2619 1B44                        i1l2643 1AC6                        i1l2635 1AAE  
                      i1l2555 1E54                        i1l2547 1E35                        i1l2539 1E23  
                      i1l2571 1CF1                        i1l3611 064A                        i1l3603 063D  
                      i1l3523 0368                        i1l3507 028D                        i1l3451 006A  
                      i1l3443 0044                        i1l2805 1778                        i1l2813 1785  
                      i1l2741 1666                        i1l2733 163D                        i1l2725 161D  
                      i1l2717 160D                        i1l2709 15FD                        i1l2661 158F  
                      i1l2653 157F                        i1l3293 1F36                        i1l3277 1F0E  
                      i1l3269 1EEF                        i1l3197 1A13                        i1l3189 19F5  
                      i1l3373 10C5                        i1l3365 1096                        i1l3357 1077  
                      i1l3349 1055                        i1l2901 0D29                        i1l2645 1ACD  
                      i1l2637 1AB2                        i1l2629 1A9E                        i1l2549 1E46  
                      i1l2557 1E5A                        i1l2581 1D05                        i1l2573 1CF3  
                      i1l2565 1CE7                        i1l3621 0697                        i1l3605 0648  
                      i1l3541 03BE                        i1l3533 03A1                        i1l3517 02DB  
                      i1l3509 0296                        i1l3461 00A5                        i1l3453 0076  
                      i1l3445 0049                        i1l3437 0032                        i1l3381 18D0  
                      i1l2831 17CD                        i1l2823 1798                        i1l2815 1786  
                      i1l2807 177A                        i1l2743 1668                        i1l2735 164C  
                      i1l2751 167A                        i1l2727 1621                        i1l2719 1611  
                      i1l2671 15A7                        i1l2663 1594                        i1l2655 1585  
                      i1l3279 1F16                        i1l3375 10C9                        i1l3367 10A0  
                      i1l3359 1080                        i1l2495 1A19                        i1l2911 0DC6  
                      i1l2903 0D46                        i1l2639 1AB6                        i1l2647 1AD3  
                      i1l2559 1E5F                        i1l2591 1D24                        i1l2583 1D0C  
                      i1l2575 1CF7                        i1l2567 1CE8                        i1l3631 0706  
                      i1l3623 069E                        i1l3615 0681                        i1l3551 0451  
                      i1l3543 03C3                        i1l3535 03A5                        i1l3519 02E4  
                      i1l3471 00EA                        i1l3463 00BE                        i1l3455 007A  
                      i1l3439 0037                        i1l3383 18D4                        i1l3801 127F  
                      i1l2841 17E8                        i1l2825 179D                        i1l2833 17D1  
                      i1l2817 178A                        i1l2809 177F                        i1l2761 16AB  
                      i1l2753 1686                        i1l2745 166C                        i1l2737 1654  
                      i1l2729 1625                        i1l2681 15BD                        i1l2673 15AC  
                      i1l2665 159C                        i1l2657 1589                        i1l3289 1F24  
                      i1l3377 10CA                        i1l3369 10AA                        i1l2497 1A1B  
                      i1l2921 0E29                        i1l2913 0DCF                        i1l2905 0D62  
                      i1l2593 1D2B                        i1l2585 1D10                        i1l2577 1CFC  
                      i1l2569 1CEC                        i1l3633 070A                        i1l3625 06A2  
                      i1l3617 0685                        i1l3561 0480                        i1l3553 045A  
                      i1l3545 03FE                        i1l3537 03AB                        i1l3529 036A  
                      i1l3481 0120                        i1l3473 00F0                        i1l3465 00C2  
                      i1l3457 0088                        i1l3449 004E                        i1l3385 1955  
                      i1l3811 12A1                        i1l3803 128D                        i1l3731 11A2  
                      i1l3723 1190                        i1l3651 1970                        i1l2851 17FE  
                      i1l2843 17E9                        i1l2835 17D6                        i1l2827 17AB  
                      i1l2819 1790                        i1l2771 16C2                        i1l2763 16AF  
                      i1l2755 168B                        i1l2747 166D                        i1l2739 165D  
                      i1l2691 15D1                        i1l2683 15BE                        i1l2675 15B2  
                      i1l2667 159D                        i1l2659 158A                        i1l3299 1F3D  
                      i1l2499 1A22                        i1l2931 0EC9                        i1l2923 0E42  
                      i1l2915 0DDF                        i1l2907 0D8E                        i1l2587 1D14  
                      i1l2579 1D02                        i1l2595 1D31                        i1l3627 06AA  
                      i1l3619 068B                        i1l3571 04A2                        i1l3563 0487  
                      i1l3555 045E                        i1l3547 043D                        i1l3539 03B7  
                      i1l3491 01C7                        i1l3483 013F                        i1l3475 0103  
                      i1l3467 00C6                        i1l3459 008C                        i1l3635 0718  
                      i1l3387 1969                        i1l3813 12AA                        i1l3821 12BE  
                      i1l3805 1291                        i1l3733 11A7                        i1l3741 11B7  
                      i1l3725 1197                        i1l2845 17ED                        i1l2837 17DB  
                      i1l2829 17AF                        i1l2781 1725                        i1l2773 16C3  
                      i1l2765 16B3                        i1l2749 1676                        i1l2685 15C3  
                      i1l2693 15D3                        i1l2677 15B3                        i1l2669 159F  
                      i1l2941 0F37                        i1l2933 0EEF                        i1l2925 0E5F  
                      i1l2917 0DFC                        i1l2909 0DAA                        i1l2861 0CB1  
                      i1l2853 0C9F                        i1l2597 1D36                        i1l2589 1D1E  
                      i1l3629 06FF                        i1l3581 0599                        i1l3573 04A6  
                      i1l3565 048D                        i1l3557 0464                        i1l3549 0449  
                      i1l3485 018A                        i1l3477 0116                        i1l3469 00DF  
                      i1l3493 01CF                        i1l3637 072E                        i1l3823 12C2  
                      i1l3815 12AE                        i1l3807 1297                        i1l3751 11CF  
                      i1l3743 11BF                        i1l3735 11AC                        i1l3727 119D  
                      i1l3655 1980                        i1l2847 17EF                        i1l2839 17E3  
                      i1l2791 1755                        i1l2783 1729                        i1l2775 16CC  
                      i1l2767 16BC                        i1l2759 1694                        i1l2695 15E1  
                      i1l2687 15C8                        i1l2679 15B9                        i1l2951 0F4F  
                      i1l2943 0F3B                        i1l2935 0F17                        i1l2927 0E8C  
                      i1l2919 0E0C                        i1l2871 0CCD                        i1l2863 0CB6  
                      i1l2855 0CA6                        i1l2599 1D3B                        i1l3591 0613  
                      i1l3583 05A5                        i1l3575 04C4                        i1l3567 0496  
                      i1l3559 0471                        i1l3495 01CF                        i1l3487 01A3  
                      i1l3479 011A                        i1l3841 1313                        i1l3833 12E3  
                      i1l3825 12C3                        i1l3817 12AF                        i1l3809 129F  
                      i1l3753 11D4                        i1l3761 11E4                        i1l3745 11C4  
                      i1l3737 11B4                        i1l3729 11A1                        i1l2849 17FA  
                      i1l2793 175A                        i1l2785 172B                        i1l2769 16BE  
                      i1l2777 16D1                        i1l2697 15E5                        i1l2689 15D0  
                      i1l2961 0F70                        i1l2953 0F50                        i1l2945 0F3C  
                      i1l2937 0F20                        i1l2929 0E9C                        i1l2881 0CE2  
                      i1l2873 0CD2                        i1l2865 0CBB                        i1l2857 0CAC  
                      i1l3593 0619                        i1l3577 051F                        i1l3585 0600  
                      i1l3569 049B                        i1l3497 0214                        i1l3489 01AC  
                      i1l3851 1347                        i1l3835 12E8                        i1l3843 1319  
                      i1l3827 12C7                        i1l3819 12B8                        i1l3763 11F4  
                      i1l3771 120D                        i1l3755 11D9                        i1l3747 11CA  
                      i1l3739 11B5                        i1l2787 1730                        i1l2779 16E7  
                      i1l2699 15E9                        i1l2963 0F75                        i1l2971 0FA6  
                      i1l2955 0F54                        i1l2947 0F45                        i1l2939 0F2E  
                      i1l2891 0CFE                        i1l2883 0CE7                        i1l2875 0CD8  
                      i1l2867 0CC3                        i1l2859 0CB0                        i1l3587 0608  
                      i1l3579 055A                        i1l3499 0221                        i1l3595 0620  
                      i1l3861 135C                        i1l3853 134F                        i1l3845 1326  
                      i1l3837 12F6                        i1l3829 12DB                        i1l3781 1235  
                      i1l3773 1212                        i1l3765 1200                        i1l3757 11E1  
                      i1l3749 11CE                        i1l2797 1763                        i1l2789 173F  
                      i1l2981 0FD9                        i1l2973 0FB3                        i1l2965 0F83  
                      i1l2957 0F68                        i1l2949 0F4B                        i1l2893 0D03  
                      i1l2885 0CEF                        i1l2877 0CDC                        i1l2869 0CC5  
                      i1l3597 0631                        i1l3589 060F                        i1l3855 1350  
                      i1l3847 1334                        i1l3839 12FA                        i1l3791 125E  
                      i1l3783 123D                        i1l3767 1204                        i1l3759 11E2  
                      i1l2799 176C                        i1l2991 0FF7                        i1l2983 0FDF  
                      i1l2975 0FBE                        i1l2967 0F87                        i1l2887 0CF1  
                      i1l2879 0CDD                        i1l3599 0635                        i1l3871 1A53  
                      i1l3857 1356                        i1l3849 1343                        i1l3793 1262  
                      i1l3785 1245                        i1l3777 121B                        i1l2985 0FE7  
                      i1l2977 0FCD                        i1l2969 0FA0                        i1l2897 0D0C  
                      i1l2889 0CF9                        i1l3873 1A59                        i1l3859 135A  
                      i1l3795 1263                        i1l3787 1247                        i1l3779 122D  
                      i1l3971 19C7                        i1l2987 0FEB                        i1l2979 0FD7  
                      i1l2899 0D1C                        i1l2995 1B58                        i1l3875 1913  
                      i1l3867 1A3F                        i1l3789 124C                        i1l3797 126C  
                      i1l3973 19C8                        i1l3965 19AE                        i1l2989 0FEC  
                      i1l2997 1B62                        i1l3877 1918                        i1l3869 1A45  
                      i1l3799 127E                        i1l3967 19BB                        i1l2999 1B98  
                      i1l3991 0823                        i1l3969 19C0                        i1l3993 0830  
                      i1l3995 0876                        i1l3987 081B                        i1l3997 089A  
                      i1l3989 081F                        i1l3999 08A0                        u400_20 1755  
                      u400_21 1754                        u401_20 175A                        u401_21 1759  
                      u410_20 179D                        u410_21 179C                        u402_25 1765  
                      u411_20 17AF                        u403_20 1770                        u411_21 17AE  
                      u403_21 176F                        u412_20 17BE                        u404_20 1775  
                      u500_20 115D                        u420_20 0CB6                        u404_21 1774  
                      u500_21 115C                        u420_21 0CB5                        u412_25 17B9  
                      u413_20 17CD                        u405_20 177F                        u421_20 0CBB  
                      u341_20 1E07                        u413_21 17CC                        u405_21 177E  
                      u421_21 0CBA                        u341_21 1E06                        u501_25 115F  
                      u414_20 17D6                        u406_20 1785                        u502_20 116F  
                      u422_20 0CDC                        u350_20 1E5F                        u342_20 1E12  
                      u414_21 17D5                        u406_21 1784                        u502_21 116E  
                      u430_21 0DB8                        u422_21 0CDB                        u350_21 1E5E  
                      u342_21 1E11                        u430_22 0DBF                        u430_23 0DC6  
                      u510_25 07A6                        u415_20 17DB                        u407_20 178A  
                      u511_20 07B3                        u503_20 1176                        u327_20 1A26  
                      u423_20 0CE2                        u343_20 1E23                        u351_20 1CEC  
                      u415_21 17DA                        u407_21 1789                        u511_21 07B2  
                      u503_21 1175                        u327_21 1A25                        u423_21 0CE1  
                      u343_21 1E22                        u351_21 1CEB                        u431_25 0DC8  
                      u416_20 17E8                        u408_20 1790                        u512_20 07B7  
                      u440_20 0EFD                        u424_20 0CE7                        u360_20 1B1B  
                      u352_20 1CF7                        u416_21 17E7                        u408_21 178F  
                      u512_21 07B6                        u432_21 0DEE                        u424_21 0CE6  
                      u360_21 1B1A                        u352_21 1CF6                        u432_22 0DF5  
                      u432_23 0DFC                        u520_25 1A00                        u504_25 1179  
                      u328_25 1A2D                        u440_25 0EF8                        u344_25 1E27  
                      u600_25 064D                        u417_20 17ED                        u409_20 1797  
                      u513_20 07BE                        u505_20 1187                        u329_20 1A3A  
                      u425_20 0CFE                        u345_20 1E35                        u353_20 1D02  
                      u601_20 0680                        u417_21 17EC                        u409_21 1796  
                      u513_21 07BD                        u505_21 1186                        u329_21 1A39  
                      u441_21 0F09                        u433_21 0E1B                        u425_21 0CFD  
                      u345_21 1E34                        u353_21 1D01                        u601_21 067F  
                      u441_22 0F10                        u433_22 0E22                        u441_23 0F17  
                      u433_23 0E29                        u521_25 1A07                        u361_25 1B1F  
                      u601_25 067C                        u530_20 1BB1                        u418_20 17FE  
                      u522_20 1A13                        u506_20 0740                        u450_20 0F75  
                      u426_20 0D03                        u362_20 1B2D                        u370_20 1AC0  
                      u602_20 068B                        u530_21 1BB0                        u418_21 17FD  
                      u522_21 1A12                        u506_21 073F                        u450_21 0F74  
                      u426_21 0D02                        u362_21 1B2C                        u370_21 1ABF  
                      u602_21 068A                        u514_25 07C0                        u442_25 0F19  
                      u434_25 0E2B                        u370_25 1ABC                        u346_25 1E36  
                      u354_25 1D06                        u531_20 1BCD                        u523_20 1DAC  
                      u515_20 07D0                        u507_20 0754                        u451_20 0F87  
                      u419_20 0CB0                        u347_20 1E46                        u355_20 1D14  
                      u603_20 0697                        u531_21 1BCC                        u523_21 1DAB  
                      u515_21 07CF                        u507_21 0753                        u451_21 0F86  
                      u435_21 0E51                        u427_21 0D54                        u419_21 0CAF  
                      u347_21 1E45                        u355_21 1D13                        u603_21 0696  
                      u435_22 0E58                        u427_22 0D5B                        u435_23 0E5F  
                      u427_23 0D62                        u443_25 0F30                        u363_25 1B2E  
                      u371_25 1AC7                        u347_25 1E42                        u620_20 11D9  
                      u532_20 1BE7                        u540_20 1903                        u380_20 15E1  
                      u516_20 07D7                        u452_20 0F96                        u444_20 0F3B  
                      u364_20 1B3E                        u372_20 1AD3                        u356_20 1D1E  
                      u620_21 11D8                        u532_21 1BE6                        u540_21 1902  
                      u380_21 15E0                        u516_21 07D6                        u444_21 0F3A  
                      u436_21 0E7E                        u428_21 0D70                        u364_21 1B3D  
                      u372_21 1AD2                        u356_21 1D1D                        u436_22 0E85  
                      u428_22 0D77                        u436_23 0E8C                        u428_23 0D7E  
                      u460_24 1B74                        u532_25 1BE3                        u524_25 1DB1  
                      u508_25 077C                        u452_25 0F91                        u364_25 1B3A  
                      u348_25 1E4E                        u356_25 1D1A                        u604_25 06B9  
                      u621_20 11F4                        u533_20 1F72                        u381_20 15E5  
                      u373_20 1589                        u541_20 1EEF                        u525_20 1DC0  
                      u509_20 0795                        u453_20 0FB3                        u349_20 1E5A  
                      u605_20 0718                        u621_21 11F3                        u533_21 1F71  
                      u381_21 15E4                        u373_21 1588                        u541_21 1EEE  
                      u525_21 1DBF                        u509_21 0794                        u453_21 0FB2  
                      u437_21 0EAB                        u429_21 0D9C                        u349_21 1E59  
                      u605_21 0717                        u437_22 0EB2                        u429_22 0DA3  
                      u437_23 0EB9                        u429_23 0DAA                        u517_25 07DA  
                      u509_25 0791                        u453_25 0FAF                        u445_25 0F3E  
                      u365_25 1B46                        u357_25 1D25                        u461_25 1B77  
                      u630_20 129F                        u622_20 1212                        u534_20 1F8E  
                      u390_20 168B                        u382_20 163D                        u374_20 158F  
                      u550_20 1F52                        u542_20 1F06                        u518_20 07E8  
                      u454_20 0FCD                        u446_20 0F4F                        u438_20 0ED5  
                      u366_20 1B52                        u358_20 1D31                        u606_20 072E  
                      u462_20 1B83                        u630_21 129E                        u622_21 1211  
                      u534_21 1F8D                        u390_21 168A                        u382_21 163C  
                      u374_21 158E                        u550_21 1F51                        u518_21 07E7  
                      u454_21 0FCC                        u446_21 0F4E                        u366_21 1B51  
                      u358_21 1D30                        u606_21 072D                        u462_21 1B7F  
                      u382_25 1639                        u542_25 1F01                        u526_25 1DC2  
                      u454_25 0FC9                        u438_25 0ED0                        u470_25 13ED  
                      u623_20 124C                        u615_20 11A1                        u535_20 1F9A  
                      u383_20 1648                        u375_20 1594                        u543_20 1F1C  
                      u527_20 1DDB                        u551_20 1C43                        u519_20 19F9  
                      u455_20 0FEB                        u447_20 0F54                        u367_20 1AA4  
                      u359_20 1D36                        u623_21 124B                        u615_21 11A0  
                      u535_21 1F99                        u391_21 169D                        u383_21 1646  
                      u375_21 1593                        u543_21 1F1B                        u527_21 1DDA  
                      u551_21 1C42                        u519_21 19F8                        u455_21 0FEA  
                      u447_21 0F53                        u439_21 0EE1                        u367_21 1AA3  
                      u359_21 1D35                        u391_22 16A4                        u439_22 0EE8  
                      u391_23 16AB                        u439_23 0EEF                        u463_24 1B86  
                      u631_25 12A3                        u527_25 1DD7                        u471_25 1442  
                      u640_20 1309                        u632_20 12AE                        u616_20 11A7  
                      u392_20 16AF                        u384_20 1649                        u376_20 15B2  
                      u544_20 1F23                        u448_20 0F68                        u472_20 1489  
                      u456_20 1B5F                        u632_21 12AD                        u616_21 11A6  
                      u536_21 1FA9                        u392_21 16AE                        u376_21 15B1  
                      u544_21 1F22                        u448_21 0F67                        u472_21 1488  
                      u456_21 1B5B                        u536_22 1FAA                        u536_23 1FAF  
                      u536_24 1FB0                        u640_25 1304                        u624_25 124E  
                      u536_25 1FB5                        u528_25 1DEB                        u552_25 1C48  
                      u560_25 1056                        u368_25 1AA8                        u480_25 09F7  
                      u464_25 1B89                        u536_26 1FB6                        u641_20 1326  
                      u617_20 11AC                        u537_20 1FC2                        u393_20 16B3  
                      u385_20 165D                        u377_20 15BD                        u529_20 1DF9  
                      u553_20 1C57                        u561_20 1064                        u449_20 0F6F  
                      u369_20 1AB6                        u481_20 0A3F                        u465_20 1B95  
                      u641_21 1325                        u617_21 11AB                        u537_21 1FC1  
                      u393_21 16B2                        u385_21 165C                        u377_21 15BC  
                      u529_21 1DF8                        u553_21 1C56                        u561_21 1063  
                      u449_21 0F6E                        u369_21 1AB5                        u481_21 0A3E  
                      u465_21 1B91                        u457_24 1B62                        u641_25 1322  
                      u633_25 12B1                        u625_25 1257                        u545_25 1F25  
                      u473_25 14A6                        u642_20 1343                        u634_20 12C2  
                      u626_20 1262                        u618_20 11CE                        u394_20 16C2  
                      u386_20 166C                        u378_20 15C3                        u546_20 1F35  
                      u554_20 1C69                        u570_20 10C9                        u642_21 1342  
                      u634_21 12C1                        u626_21 1261                        u618_21 11CD  
                      u538_21 1FD1                        u394_21 16C1                        u386_21 166B  
                      u378_21 15C2                        u546_21 1F34                        u554_21 1C68  
                      u570_21 10C8                        u538_22 1FD2                        u538_23 1FD7  
                      u538_24 1FD8                        u466_24 1B98                        u642_25 133F  
                      u538_25 1FDD                        u554_25 1C65                        u562_25 1078  
                      u474_25 14F3                        u490_25 0BFD                        u482_25 0A52  
                      u458_25 1B65                        u538_26 1FDE                        u643_20 135A  
                      u635_20 12C7                        u619_20 11D4                        u539_20 1FFC  
                      u379_20 15C8                        u547_20 1F3C                        u563_20 1086  
                      u459_20 1B71                        u643_21 1359                        u635_21 12C6  
                      u619_21 11D3                        u539_21 1FFB                        u379_21 15C7  
                      u547_21 1F3B                        u563_21 1085                        u459_21 1B6D  
                      u627_25 1265                        u539_25 1FF8                        u395_25 16C5  
                      u387_25 166F                        u555_25 1C78                        u475_25 153F  
                      u491_25 0C39                        u483_25 0A8E                        u571_25 1958  
                      u636_20 12DB                        u628_20 127E                        u396_20 16E7  
                      u388_20 1682                        u556_20 1C86                        u468_20 1376  
                      u476_20 0947                        u580_20 01C7                        u644_20 1A69  
                      u660_20 08BA                        u636_21 12DA                        u628_21 127D  
                      u396_21 16E6                        u388_21 1681                        u556_21 1C85  
                      u468_21 1375                        u476_21 0946                        u580_21 01C6  
                      u644_21 1A68                        u660_21 08B9                        u396_23 16E3  
                      u628_25 127A                        u548_25 1F3F                        u564_25 108B  
                      u492_25 0C75                        u484_25 0ACA                        u637_20 12E2  
                      u629_20 1297                        u389_20 1686                        u549_20 1F4D  
                      u565_20 1096                        u557_20 101F                        u493_20 10E6  
                      u485_20 0AFB                        u477_20 0950                        u581_20 0221  
                      u661_20 08BE                        u637_21 12E1                        u629_21 1296  
                      u397_21 16FE                        u389_21 1685                        u549_21 1F4C  
                      u565_21 1095                        u557_21 101E                        u493_21 10E5  
                      u485_21 0AFA                        u477_21 094F                        u581_21 0220  
                      u661_21 08BD                        u397_22 16FF                        u397_23 1704  
                      u397_24 1705                        u653_25 19B1                        u397_25 170A  
                      u469_25 1393                        u581_25 021D                        u397_26 170B  
                      u638_20 12E8                        u654_20 19C0                        u398_20 1712  
                      u566_20 109C                        u558_20 1023                        u494_20 1100  
                      u582_20 023C                        u574_20 003D                        u638_21 12E7  
                      u654_21 19BF                        u398_21 1713                        u566_21 109B  
                      u558_21 1022                        u494_21 10FF                        u582_21 023B  
                      u574_21 003C                        u398_22 1718                        u398_23 1719  
                      u486_25 0B1B                        u478_25 0970                        u590_25 03C6  
                      u662_25 08D6                        u639_20 12FA                        u655_20 19C7  
                      u399_20 1730                        u567_20 10A0                        u559_20 1043  
                      u591_20 0450                        u583_20 0263                        u575_20 0076  
                      u639_21 12F9                        u655_21 19C6                        u399_21 172F  
                      u567_21 109F                        u559_21 1042                        u591_21 044F  
                      u583_21 0262                        u575_21 0075                        u495_25 1124  
                      u487_25 0B57                        u479_25 09AC                        u663_25 08E6  
                      u568_20 10B5                        u496_20 1139                        u592_20 0471  
                      u584_20 0272                        u576_20 00A5                        u496_21 1138  
                      u592_21 0470                        u584_21 0271                        u576_21 00A4  
                      u568_25 10B0                        u496_25 1135                        u488_25 0BA2  
                      u592_25 046D                        u584_25 026E                        u672_27 196B  
                      u569_20 10C5                        u489_20 0BEA                        u593_20 0480  
                      u585_20 028D                        u577_20 00DF                        u657_20 081F  
                      u569_21 10C4                        u489_21 0BE9                        u593_21 047F  
                      u585_21 028C                        u577_21 00DE                        u657_21 081E  
                      u497_25 1145                        u593_25 047C                        u498_20 1152  
                      u594_20 049B                        u578_20 011A                        u658_20 0823  
                      u498_21 1151                        u594_21 049A                        u578_21 0119  
                      u658_21 0822                        u586_25 036D                        u499_20 1156  
                      u587_20 03A0                        u579_20 01A3                        u659_20 0830  
                      u499_21 1155                        u587_21 039F                        u579_21 01A2  
                      u659_21 082F                        u595_25 0522                        u587_25 039C  
                      u588_20 03AB                        u588_21 03AA                        u596_25 05A8  
                      u597_20 0607                        u589_20 03B7                        u597_21 0606  
                      u589_21 03B6                        u598_20 061F                        u598_21 061E  
                      u599_20 0639                        u599_21 0638                        _TRISB0 0430  
                      _TRISA2 042A                        _TRISA3 042B                        _TRISB1 0431  
                      _TRISA4 042C                        _TRISB2 0432                        _TRISB3 0433  
                      _TRISB4 0434                        _TRISB5 0435                        _TRISB6 0436  
                      _TRISB7 0437              __end_of___xxtofl 10D3              __end_of__powers_ 1844  
            __end_of_lcd_init 1CE7              __end_of_lcd_goto 1941                     ??_t0_init 0190  
                      ___flge 1F5E                        ___fleq 1B9D              __end_of_lcd_puts 1B13  
        ??i1_lcd_write_nibble 0070                     ??___fladd 0056              i1_LCD_RS_SetHigh 18D4  
                      ___wmul 19F3                     ??___fldiv 0028                     ??___awdiv 007A  
                   ??___flneg 0074                     ??___awmod 0074                     ??___flmul 0028  
                   ??___flsub 007E                     ??___fltol 003E      __end_of_lcd_write_nibble 1C39  
                   ??___lldiv 0078                     ??___llmod 0028                     ??___lwdiv 0079  
                   ??___lwmod 0074                        _fround 136D              ___awdiv@quotient 007C  
           lcd_write_nibble@c 0191               ___awmod@divisor 0070               ___awmod@counter 0074  
  _contagem_interrupcoes_tmr0 00E7       __end_ofi1_LCD_RS_SetLow 18D4                     ??_io_beep 0192  
                   ??_io_init 0190            __size_of__Umul8_16 0027                        saved_w 007E  
                   ??_sprintf 00A0                    ___flge@ff1 0070                    ___flge@ff2 0074  
                ___xxtofl@arg 007A                  ___xxtofl@exp 0079                  ___xxtofl@val 0070  
                  ___fleq@ff1 0070                    ___fleq@ff2 0074       __end_of__initialization 002B  
                  ___flneg@f1 0070                 _io_sw_pressed 1941                    ___fltol@f1 003A  
              __pcstackCOMMON 0070           __size_ofi1_lcd_goto 000E                  __pidataBANK1 0003  
         __size_ofi1_lcd_puts 002B                 __end_of_scale 0C9F              ??_LCD_RS_SetHigh 0190  
                  __div_to_l_ 0733                _OPTION_REGbits 0081            __size_of_lcd_clear 0016  
                i1lcd_write@c 0073               ??_io_led_toggle 0190     __size_of_debug_led_toggle 001D  
             __div_to_l_@exp1 0025            __size_of_lcd_write 0021               __div_to_l_@cntr 0024  
                     ??_scale 003E   __end_of_matriz_estados_init 1D9C               __div_to_l_@quot 0020  
               io_beep@period 0190                    __pbssBANK1 00D3                ?_io_sw_pressed 0190  
                  _debug_init 18F1                 __div_to_l_@f1 0070                 __div_to_l_@f2 0074  
           __end_of__Umul8_16 1A3F           debug_led_toggle@led 0070                    __pmaintext 1E69  
                     ?___flge 0070                       ?___fleq 0070                  ?i1_lcd_write 0070  
                     ?___wmul 0070                    __pintentry 0004                       ?_fround 003A  
            ?i1_LCD_RS_SetLow 0070                     ?___xxtofl 0070                    _lcd_cursor 0800  
                   ?_lcd_init 0070                     ?_lcd_goto 0070                     ?_lcd_puts 0194  
                  __stringtab 1800        _matrizTransicaoEstados 00D3             __end_of__npowers_ 1878  
           __end_of_lcd_clear 1019                       _t0_init 1906                    _io_sw_read 19AD  
             __size_of___flge 00A2               __size_of___fleq 004E                       ___fladd 1578  
                     ___fldiv 1190                       ___awdiv 1E02                       ___flneg 18FB  
                     ___awmod 1CE7                       ___flmul 0C9F                       ___flsub 19CF  
                     ___fltol 1EE2             __end_of_lcd_write 19AD                       ___lldiv 1D9C  
             __size_of___wmul 0025                       ___llmod 1C39                       ___lwdiv 1B13  
                  _fround$973 0049                    _fround$974 0045                       ___lwmod 1A9E  
                     _isr$972 00CE               __size_of_fround 020B                       __ptext1 1906  
                     __ptext2 07F1                       __ptext3 1D40                       __ptext4 1AD8  
                     __ptext5 18E0                       _direcao 00ED                       __ptext6 1C8F  
                     __ptext7 18DC                       __ptext8 192F                       __ptext9 0800  
                     _io_beep 1A6A                   ?__div_to_l_ 0070                       _io_init 1920  
                     _dpowers 1878                  __size_of_isr 0125                    ??___xxtofl 0074  
            ___awmod@dividend 0072                  ??i1_lcd_goto 0074                  ??i1_lcd_puts 0076  
    __end_ofi1_LCD_RS_SetHigh 18D8                       _sprintf 002F                       clrloop0 18EA  
                  ??_lcd_init 0194                    ??_lcd_goto 0194               ??_io_sw_pressed 0192  
                  ??_lcd_puts 0196          end_of_initialization 002B                   ?_debug_init 0070  
             ___lldiv@divisor 0070               ___lldiv@counter 007D            __end_ofi1_lcd_goto 1920  
          __end_ofi1_lcd_puts 1A6A                __tdiv_to_l_@f1 0070                __tdiv_to_l_@f2 0074  
           ?_lcd_write_nibble 0070                    _portB_init 07F1                 ??__tdiv_to_l_ 0078  
       __end_of_LCD_RS_SetLow 18DC            ??_lcd_write_nibble 0190                   ___fladd@grs 0061  
       __end_of_LCD_RW_SetLow 18E0                 ___xxtofl@sign 0078                   ?_lcd_cursor 0194  
            _debug_led_toggle 196F                   ___fldiv@grs 0034                   ___fldiv@rem 002D  
              io_sw_read@port 0071                   ___flmul@grs 002E           __size_of__div_to_l_ 00BE  
                  lcd_write@c 0193                   ?_io_sw_read 0070   __size_ofi1_lcd_write_nibble 0046  
              __end_of___flge 2000                __end_of___fleq 1BEB                __end_of___wmul 1A18  
        __size_ofi1_lcd_write 001B                 __pbitbssBANK1 0770                __end_of_fround 1578  
         __size_of_debug_init 000A           start_initialization 0019                 i1lcd_goto@pos 0074  
         __end_of__tdiv_to_l_ 1190                   __end_of_isr 0940           i1lcd_write_nibble@c 0071  
             ___llmod@divisor 0020               ___llmod@counter 0029                    isr@message 00C5  
                    ??___flge 0078                      ??___fleq 0078           __size_of_lcd_cursor 001B  
                    ??___wmul 0074                     __Umul8_16 1A18                   ?_portB_init 0070  
                 __pdataBANK1 00EF                      ??_fround 003E                 sprintf@tmpval 00B4  
                   ___fladd@a 0052                     ___fladd@b 004E                    fround@prec 004D  
                _estado_atual 00E5                     ___fldiv@a 0020                     ___fldiv@b 0024  
                   ___flmul@a 0024                     ___flmul@b 0020                     ___flsub@a 0062  
                   ___flsub@b 0066                     ___latbits 0002                 __pcstackBANK0 0020  
               __pcstackBANK1 00A0                 __pcstackBANK3 0190             __size_of___xxtofl 00BA  
       __end_of_io_led_toggle 18E9           __size_of_io_sw_read 0022             __size_of_lcd_init 0058  
           __size_of_lcd_goto 0012                   sprintf@flag 00AA                   sprintf@eexp 00B2  
           __size_of_lcd_puts 003B                   sprintf@fval 00B9                   sprintf@prec 00AC  
                   __pnvBANK1 00ED  __size_of_matriz_estados_init 005C              ___lwdiv@dividend 0077  
                    ?_t0_init 0070                      ?___fladd 004E                      ?___fldiv 0020  
                    ?___awdiv 0076                      ?___flneg 0070                      ?___awmod 0070  
                    ?___flmul 0020                      ?___flsub 0062                      ?___fltol 003A  
                    ?___lldiv 0070                      ?___llmod 0020                     __npowers_ 1844  
                  ?__Umul8_16 0070                      ?___lwdiv 0075                      ?___lwmod 0070  
                   _lcd_clear 1003                     __pstrings 1800                   __tdiv_to_l_ 10D3  
                   _lcd_write 198C                      ?_io_beep 0190                  ??__div_to_l_ 0078  
                    ?_io_init 0070                     _scale$975 0048              ___lwdiv@quotient 0079  
                    ?_sprintf 006A                __size_of_scale 035F      __size_ofi1_LCD_RS_SetLow 0004  
           ?i1_LCD_RS_SetHigh 0070       __size_of_LCD_RS_SetHigh 0004           __size_of_portB_init 000F  
          ??i1_LCD_RS_SetHigh 0070             interrupt_function 0004                  ??_debug_init 0190  
 matriz_estados_init@contador 0193                ___wmul@product 0074                     clear_ram0 18E9  
          __end_of__div_to_l_ 07F1      _contagem_pulsos_anterior 00E9      __end_of_debug_led_toggle 198C  
                   _swPressed 0770                    ?_lcd_clear 0070                   __stringbase 180F  
                  ?_lcd_write 0070             ___wmul@multiplier 0070            __end_of_debug_init 18FB  
                   lcd_puts@s 0194                  ??_lcd_cursor 0196     __size_of_lcd_write_nibble 004E  
       __end_of_io_sw_pressed 1954                    _EECON1bits 018C                  ??_io_sw_read 0070  
            __size_of_t0_init 000C            __end_of_lcd_cursor 081B                   ??__Umul8_16 0072  
            __size_of___fladd 0288              __size_of___fldiv 01DD              __size_of___awdiv 0067  
            __size_of___flneg 000B              __size_of___awmod 0059              __size_of___flmul 0361  
            __size_of___flsub 0024              __size_of___fltol 007C              __size_of___lldiv 0066  
            __size_of___llmod 0056              __size_of___lwdiv 0044              __size_of___lwmod 003A  
          __end_of__stringtab 1810                    sprintf@val 00AE              __size_of_io_beep 0034  
                    ___xxtofl 1019              __size_of_io_init 000F               ___lwdiv@divisor 0075  
             ___lwdiv@counter 007B                      __ptext10 1003                      __ptext11 198C  
                    __ptext20 1A3F                      __ptext12 1BEB                      __ptext21 18D4  
                    __ptext13 18D8                      __ptext30 136D                      __ptext22 1912  
                    __ptext14 1941                      __ptext31 1A9E                      __ptext23 1954  
                    __ptext15 18E4                      __ptext40 1D9C                      __ptext32 1B13  
                    __ptext24 1B57                      __ptext16 1920                      __ptext41 1EE2  
                    __ptext33 0C9F                      __ptext25 18D0                      __ptext17 1A6A  
                    __ptext42 19CF                      __ptext34 1A18                      __ptext26 002F  
                    __ptext18 18F1                      __ptext43 1578                      __ptext35 10D3  
                    __ptext27 0940                      __ptext19 081B                      __ptext44 18FB  
                    __ptext36 0733                      __ptext28 1CE7                      __ptext45 1F5E  
                    __ptext37 1019                      __ptext29 1E02                      __ptext46 1B9D  
                    __ptext38 19F3                      __ptext47 19AD                      __ptext39 1C39  
                    __ptext48 196F                      __ptext49 1190                      __powers_ 1810  
                    _lcd_init 1C8F                      _lcd_goto 192F                      _lcd_puts 1AD8  
            __size_of_sprintf 0704            __end_of_io_sw_read 19CF                 __size_of_main 0079  
      __size_of_LCD_RS_SetLow 0004             ??i1_LCD_RS_SetLow 0070    __end_ofi1_lcd_write_nibble 1B9D  
      __size_of_LCD_RW_SetLow 0004                 ??i1_lcd_write 0072                  ??_portB_init 0190  
                 ??_lcd_clear 0194                   ??_lcd_write 0192           _matriz_estados_init 1D40  
                  _INTCONbits 000B                      isr@portB 00D2                      scale@scl 004C  
              _LCD_RS_SetHigh 18E0                      intlevel1 0000                     sprintf@ap 00A9  
            __tdiv_to_l_@exp1 0025              __tdiv_to_l_@cntr 0024                     sprintf@sp 00B8  
            __tdiv_to_l_@quot 0020              ___lwmod@dividend 0072            __end_of_portB_init 0800  
            ___lldiv@dividend 0074          ?_matriz_estados_init 0070                     stringcode 180A  
                ?__tdiv_to_l_ 0070           __end_ofi1_lcd_write 196F        __Umul8_16@multiplicand 0070  
               _LCD_RS_SetLow 18D8                      sprintf@c 00BD                      sprintf@f 006A  
            ___lldiv@quotient 0079               ___lwmod@divisor 0070               ___lwmod@counter 0074  
               _LCD_RW_SetLow 18DC                      stringdir 180A                      stringtab 1800  
      __end_of_LCD_RS_SetHigh 18E4              _lcd_write_nibble 1BEB                 ___fladd@signs 005E  
                ___fladd@aexp 005F                  ___fladd@bexp 0060          __Umul8_16@multiplier 0078  
       ??_matriz_estados_init 0190             __Umul8_16@product 0074               _estado_anterior 00E3  
